GAS LISTING /tmp/ccPkWzaa.s 			page 1


   1              		.file	"console.cpp"
   2              		.option pic
   3              		.option norelax
   4              		.text
   5              	.Ltext0:
   6              		.align	2
   7              		.globl	_ZN7Console4getcEv
   9              	_ZN7Console4getcEv:
  10              	.LFB21:
  11              		.file 1 "src/console.cpp"
   1:src/console.cpp **** #include "../h/syscall_cpp.hpp"
   2:src/console.cpp **** 
   3:src/console.cpp **** char Console::getc()
   4:src/console.cpp **** {
  12              		.loc 1 4 1
  13              		.cfi_startproc
  14 0000 130101FF 		addi	sp,sp,-16
  15              		.cfi_def_cfa_offset 16
  16 0004 23341100 		sd	ra,8(sp)
  17 0008 23308100 		sd	s0,0(sp)
  18              		.cfi_offset 1, -8
  19              		.cfi_offset 8, -16
  20 000c 13040101 		addi	s0,sp,16
  21              		.cfi_def_cfa 8, 0
   5:src/console.cpp ****     return getc();
  22              		.loc 1 5 5
  23              		.loc 1 5 16 is_stmt 0
  24 0010 97000000 		call	_ZN7Console4getcEv
  24      E7800000 
  25              	.LVL0:
   6:src/console.cpp **** }
  26              		.loc 1 6 1
  27 0018 83308100 		ld	ra,8(sp)
  28              		.cfi_restore 1
  29 001c 03340100 		ld	s0,0(sp)
  30              		.cfi_restore 8
  31              		.cfi_def_cfa 2, 16
  32 0020 13010101 		addi	sp,sp,16
  33              		.cfi_def_cfa_offset 0
  34 0024 67800000 		jr	ra
  35              		.cfi_endproc
  36              	.LFE21:
  38              		.align	2
  39              		.globl	_ZN7Console4putcEc
  41              	_ZN7Console4putcEc:
  42              	.LFB22:
   7:src/console.cpp **** 
   8:src/console.cpp **** void Console::putc(char chr)
   9:src/console.cpp **** {
  43              		.loc 1 9 1 is_stmt 1
  44              		.cfi_startproc
  45              	.LVL1:
  46 0028 130101FF 		addi	sp,sp,-16
  47              		.cfi_def_cfa_offset 16
  48 002c 23341100 		sd	ra,8(sp)
  49 0030 23308100 		sd	s0,0(sp)
  50              		.cfi_offset 1, -8
GAS LISTING /tmp/ccPkWzaa.s 			page 2


  51              		.cfi_offset 8, -16
  52 0034 13040101 		addi	s0,sp,16
  53              		.cfi_def_cfa 8, 0
  10:src/console.cpp ****     putc(chr);
  54              		.loc 1 10 5
  55              		.loc 1 10 9 is_stmt 0
  56 0038 97000000 		call	_ZN7Console4putcEc
  56      E7800000 
  57              	.LVL2:
  11:src/console.cpp **** }...
  58              		.loc 1 11 1
  59 0040 83308100 		ld	ra,8(sp)
  60              		.cfi_restore 1
  61 0044 03340100 		ld	s0,0(sp)
  62              		.cfi_restore 8
  63              		.cfi_def_cfa 2, 16
  64 0048 13010101 		addi	sp,sp,16
  65              		.cfi_def_cfa_offset 0
  66 004c 67800000 		jr	ra
  67              		.cfi_endproc
  68              	.LFE22:
  70              	.Letext0:
  71              		.file 2 "src/../h/../lib/hw.h"
  72              		.file 3 "src/../h/syscall_c.h"
  73              		.file 4 "src/../h/syscall_cpp.hpp"
GAS LISTING /tmp/ccPkWzaa.s 			page 3

