GAS LISTING /tmp/ccTMXQOI.s 			page 1


   1              		.file	"main.c"
   2              		.option nopic
   3              		.option norelax
   4              		.text
   5              	.Ltext0:
   6              		.cfi_sections	.debug_frame
   7              		.align	2
   8              		.globl	main
  10              	main:
  11              	.LFB0:
  12              		.file 1 "src/main.c"
   1:src/main.c    **** #include "../h/syscall_c.h"
   2:src/main.c    **** #include "../lib/console.h"
   3:src/main.c    **** 
   4:src/main.c    **** int main()
   5:src/main.c    **** {
  13              		.loc 1 5 1
  14              		.cfi_startproc
  15 0000 130101FF 		addi	sp,sp,-16
  16              		.cfi_def_cfa_offset 16
  17 0004 23341100 		sd	ra,8(sp)
  18 0008 23308100 		sd	s0,0(sp)
  19              		.cfi_offset 1, -8
  20              		.cfi_offset 8, -16
  21 000c 13040101 		addi	s0,sp,16
  22              		.cfi_def_cfa 8, 0
   6:src/main.c    ****     // Realizacija jezgra može da pod svojom kontrolom ima radnje
   7:src/main.c    ****     // koje će se izvršiti pri pokretanju
   8:src/main.c    ****     // programa, a zatim treba da pokrene nit nad funkcijom userMain().
   9:src/main.c    **** 
  10:src/main.c    ****     // Ako se testira treba da se pozove userMain();
  11:src/main.c    **** 
  12:src/main.c    ****     size_t ss = 202; // Bajta
  23              		.loc 1 12 5
  24              	.LVL0:
  13:src/main.c    ****     mem_alloc_proba(ss);
  25              		.loc 1 13 5
  26 0010 1305A00C 		li	a0,202
  27 0014 97000000 		call	mem_alloc_proba
  27      E7800000 
  28              	.LVL1:
  14:src/main.c    **** 
  15:src/main.c    ****     //void* b = a + 0x4;
  16:src/main.c    ****     char  x = 'v';
  29              		.loc 1 16 5
  17:src/main.c    ****     __putc(x);
  30              		.loc 1 17 5
  31 001c 13056007 		li	a0,118
  32 0020 97000000 		call	__putc
  32      E7800000 
  33              	.LVL2:
  18:src/main.c    ****     char new_line = '\n';
  34              		.loc 1 18 5
  19:src/main.c    ****     __putc(new_line);
  35              		.loc 1 19 5
  36 0028 1305A000 		li	a0,10
  37 002c 97000000 		call	__putc
GAS LISTING /tmp/ccTMXQOI.s 			page 2


  37      E7800000 
  38              	.LVL3:
  20:src/main.c    **** 
  21:src/main.c    ****     return 0;
  39              		.loc 1 21 5
  22:src/main.c    **** }
  40              		.loc 1 22 1 is_stmt 0
  41 0034 13050000 		li	a0,0
  42 0038 83308100 		ld	ra,8(sp)
  43              		.cfi_restore 1
  44 003c 03340100 		ld	s0,0(sp)
  45              		.cfi_restore 8
  46              		.cfi_def_cfa 2, 16
  47 0040 13010101 		addi	sp,sp,16
  48              		.cfi_def_cfa_offset 0
  49 0044 67800000 		jr	ra
  50              		.cfi_endproc
  51              	.LFE0:
  53              	.Letext0:
  54              		.file 2 "src/../h/../lib/hw.h"
  55              		.file 3 "src/../h/syscall_c.h"
  56              		.file 4 "src/../lib/console.h"
GAS LISTING /tmp/ccTMXQOI.s 			page 3

