GAS LISTING /tmp/cc0HOBux.s 			page 1


   1              		.file	"main.cpp"
   2              		.option pic
   3              		.option norelax
   4              		.text
   5              	.Ltext0:
   6              		.align	2
   7              		.globl	_Z6helperPv
   9              	_Z6helperPv:
  10              	.LFB41:
  11              		.file 1 "src/main.cpp"
   1:src/main.cpp  **** //
   2:src/main.cpp  **** // Created by os on 2/11/23.
   3:src/main.cpp  **** //
   4:src/main.cpp  **** 
   5:src/main.cpp  **** #include "../lib/console.h"
   6:src/main.cpp  **** // #include "../h/my_mem.h"
   7:src/main.cpp  **** #include "../h/tcb.hpp"
   8:src/main.cpp  **** #include "../src/my_mem.c"
   9:src/main.cpp  **** #include "../test/printing.hpp"
  10:src/main.cpp  **** #include "../h/riscv.hpp"
  11:src/main.cpp  **** 
  12:src/main.cpp  **** 
  13:src/main.cpp  **** extern void userMain();
  14:src/main.cpp  **** 
  15:src/main.cpp  **** bool done = false;
  16:src/main.cpp  **** void
  17:src/main.cpp  **** helper(void *arg)
  18:src/main.cpp  **** {
  12              		.loc 1 18 1
  13              		.cfi_startproc
  14              	.LVL0:
  15 0000 130101FF 		addi	sp,sp,-16
  16              		.cfi_def_cfa_offset 16
  17 0004 23341100 		sd	ra,8(sp)
  18 0008 23308100 		sd	s0,0(sp)
  19              		.cfi_offset 1, -8
  20              		.cfi_offset 8, -16
  21 000c 13040101 		addi	s0,sp,16
  22              		.cfi_def_cfa 8, 0
  19:src/main.cpp  ****     userMain();
  23              		.loc 1 19 5
  24              		.loc 1 19 13 is_stmt 0
  25 0010 97000000 		call	_Z8userMainv@plt
  25      E7800000 
  26              	.LVL1:
  20:src/main.cpp  ****     done = true;
  27              		.loc 1 20 5 is_stmt 1
  28              		.loc 1 20 10 is_stmt 0
  29 0018 93071000 		li	a5,1
  30 001c 17070000 		sb	a5,.LANCHOR0,a4
  30      2300F700 
  21:src/main.cpp  **** }
  31              		.loc 1 21 1
  32 0024 83308100 		ld	ra,8(sp)
  33              		.cfi_restore 1
  34 0028 03340100 		ld	s0,0(sp)
  35              		.cfi_restore 8
GAS LISTING /tmp/cc0HOBux.s 			page 2


  36              		.cfi_def_cfa 2, 16
  37 002c 13010101 		addi	sp,sp,16
  38              		.cfi_def_cfa_offset 0
  39 0030 67800000 		jr	ra
  40              		.cfi_endproc
  41              	.LFE41:
  43              		.align	2
  44              		.globl	_Z11free_insertP9mem_block
  46              	_Z11free_insertP9mem_block:
  47              	.LFB19:
  48              		.file 2 "src/../src/my_mem.c"
   1:src/../src/my_mem.c **** #ifndef MY_MEM
   2:src/../src/my_mem.c **** #define MY_MEM
   3:src/../src/my_mem.c **** 
   4:src/../src/my_mem.c **** #include "../lib/hw.h"
   5:src/../src/my_mem.c **** 
   6:src/../src/my_mem.c **** 
   7:src/../src/my_mem.c **** struct mem_block{
   8:src/../src/my_mem.c ****     size_t size;
   9:src/../src/my_mem.c ****     struct mem_block* prev;
  10:src/../src/my_mem.c ****     struct mem_block* next;
  11:src/../src/my_mem.c **** };
  12:src/../src/my_mem.c **** 
  13:src/../src/my_mem.c **** void* __mem_alloc(size_t bytes);
  14:src/../src/my_mem.c **** 
  15:src/../src/my_mem.c **** int __mem_free(void* allocated_address);
  16:src/../src/my_mem.c **** 
  17:src/../src/my_mem.c **** 
  18:src/../src/my_mem.c **** #endif // MY_MEM
  19:src/../src/my_mem.c **** 
  20:src/../src/my_mem.c **** #define NULL 0
  21:src/../src/my_mem.c **** 
  22:src/../src/my_mem.c **** 
  23:src/../src/my_mem.c **** static struct mem_block* free_mem_head = NULL;
  24:src/../src/my_mem.c **** static struct mem_block* used_mem_head = NULL;
  25:src/../src/my_mem.c **** static int beginning = 0;
  26:src/../src/my_mem.c **** 
  27:src/../src/my_mem.c **** void free_insert(struct mem_block* block);
  28:src/../src/my_mem.c **** void free_remove(struct mem_block* block);
  29:src/../src/my_mem.c **** 
  30:src/../src/my_mem.c **** void used_insert(struct mem_block* block);
  31:src/../src/my_mem.c **** void used_remove(struct mem_block* block);
  32:src/../src/my_mem.c **** 
  33:src/../src/my_mem.c **** 
  34:src/../src/my_mem.c **** void
  35:src/../src/my_mem.c **** free_insert(struct mem_block* block)
  36:src/../src/my_mem.c **** {
  49              		.loc 2 36 1 is_stmt 1
  50              		.cfi_startproc
  51              	.LVL2:
  52 0034 130101FF 		addi	sp,sp,-16
  53              		.cfi_def_cfa_offset 16
  54 0038 23348100 		sd	s0,8(sp)
  55              		.cfi_offset 8, -8
  56 003c 13040101 		addi	s0,sp,16
  57              		.cfi_def_cfa 8, 0
  37:src/../src/my_mem.c ****     if ((char*)block < (char*)HEAP_START_ADDR || (char*)block >= (char*)HEAP_END_ADDR)
GAS LISTING /tmp/cc0HOBux.s 			page 3


  58              		.loc 2 37 5
  59              		.loc 2 37 24 is_stmt 0
  60 0040 97070000 		la	a5,HEAP_START_ADDR
  60      83B70700 
  61 0048 83B70700 		ld	a5,0(a5)
  62              		.loc 2 37 5
  63 004c 636CF502 		bgtu	a5,a0,.L3
  64              		.loc 2 37 66 discriminator 1
  65 0050 97070000 		la	a5,HEAP_END_ADDR
  65      83B70700 
  66 0058 83B70700 		ld	a5,0(a5)
  67              		.loc 2 37 47 discriminator 1
  68 005c 6374F502 		bleu	a5,a0,.L3
  38:src/../src/my_mem.c ****         return;
  39:src/../src/my_mem.c **** 
  40:src/../src/my_mem.c ****     if (free_mem_head == NULL)
  69              		.loc 2 40 5 is_stmt 1
  70              	.LBB4:
  71              		.loc 2 40 23 is_stmt 0
  72 0060 17070000 		ld	a4,.LANCHOR0+8
  72      03370700 
  73              		.loc 2 40 5
  74 0068 63040702 		beqz	a4,.L10
  75              	.LBE4:
  41:src/../src/my_mem.c ****     {
  42:src/../src/my_mem.c ****         free_mem_head = block;
  43:src/../src/my_mem.c ****     }
  44:src/../src/my_mem.c ****     else if (block < free_mem_head)
  76              		.loc 2 44 10 is_stmt 1
  77              	.LBB8:
  78              	.LBB5:
  79 006c 6378E502 		bleu	a4,a0,.L6
  45:src/../src/my_mem.c ****     {
  46:src/../src/my_mem.c ****         block->prev = NULL;
  80              		.loc 2 46 9
  81              		.loc 2 46 21 is_stmt 0
  82 0070 23340500 		sd	zero,8(a0)
  47:src/../src/my_mem.c ****         block->next = free_mem_head;
  83              		.loc 2 47 9 is_stmt 1
  84              		.loc 2 47 21 is_stmt 0
  85 0074 2338E500 		sd	a4,16(a0)
  48:src/../src/my_mem.c ****         free_mem_head->prev = block;
  86              		.loc 2 48 9 is_stmt 1
  87              		.loc 2 48 29 is_stmt 0
  88 0078 2334A700 		sd	a0,8(a4)
  49:src/../src/my_mem.c **** 
  50:src/../src/my_mem.c ****         free_mem_head = block;
  89              		.loc 2 50 9 is_stmt 1
  90              		.loc 2 50 23 is_stmt 0
  91 007c 97070000 		sd	a0,.LANCHOR0+8,a5
  91      23B0A700 
  92              	.L3:
  93              	.LBE5:
  94              	.LBE8:
  51:src/../src/my_mem.c ****     }
  52:src/../src/my_mem.c ****     else
  53:src/../src/my_mem.c ****     {
GAS LISTING /tmp/cc0HOBux.s 			page 4


  54:src/../src/my_mem.c ****         struct mem_block* prev_tmp = free_mem_head;
  55:src/../src/my_mem.c ****         struct mem_block* tmp      = free_mem_head->next;
  56:src/../src/my_mem.c **** 
  57:src/../src/my_mem.c ****         while (tmp != NULL && (char*)tmp < (char*)block)
  58:src/../src/my_mem.c ****         {
  59:src/../src/my_mem.c ****             prev_tmp = tmp;
  60:src/../src/my_mem.c ****             tmp = tmp->next;
  61:src/../src/my_mem.c ****         }
  62:src/../src/my_mem.c **** 
  63:src/../src/my_mem.c ****         prev_tmp->next = block;
  64:src/../src/my_mem.c ****         block->prev = prev_tmp;
  65:src/../src/my_mem.c ****         block->next = tmp;
  66:src/../src/my_mem.c **** 
  67:src/../src/my_mem.c ****         if (tmp != NULL)
  68:src/../src/my_mem.c ****             tmp->prev = block;
  69:src/../src/my_mem.c ****     }
  70:src/../src/my_mem.c **** }
  95              		.loc 2 70 1
  96 0084 03348100 		ld	s0,8(sp)
  97              		.cfi_remember_state
  98              		.cfi_restore 8
  99              		.cfi_def_cfa 2, 16
 100 0088 13010101 		addi	sp,sp,16
 101              		.cfi_def_cfa_offset 0
 102 008c 67800000 		jr	ra
 103              	.L10:
 104              		.cfi_restore_state
 105              	.LBB9:
  42:src/../src/my_mem.c ****     }
 106              		.loc 2 42 9 is_stmt 1
  42:src/../src/my_mem.c ****     }
 107              		.loc 2 42 23 is_stmt 0
 108 0090 97070000 		sd	a0,.LANCHOR0+8,a5
 108      23B0A700 
 109 0098 6FF0DFFE 		j	.L3
 110              	.L6:
 111              	.LBB7:
 112              	.LBB6:
  54:src/../src/my_mem.c ****         struct mem_block* tmp      = free_mem_head->next;
 113              		.loc 2 54 9 is_stmt 1
 114              	.LVL3:
  55:src/../src/my_mem.c **** 
 115              		.loc 2 55 9
  55:src/../src/my_mem.c **** 
 116              		.loc 2 55 27 is_stmt 0
 117 009c 83370701 		ld	a5,16(a4)
 118              	.LVL4:
 119              	.L8:
  57:src/../src/my_mem.c ****         {
 120              		.loc 2 57 9 is_stmt 1
  57:src/../src/my_mem.c ****         {
 121              		.loc 2 57 28
 122 00a0 638A0700 		beqz	a5,.L7
  57:src/../src/my_mem.c ****         {
 123              		.loc 2 57 28 is_stmt 0 discriminator 1
 124 00a4 63F8A700 		bgeu	a5,a0,.L7
  59:src/../src/my_mem.c ****             tmp = tmp->next;
GAS LISTING /tmp/cc0HOBux.s 			page 5


 125              		.loc 2 59 13 is_stmt 1
 126              	.LVL5:
  60:src/../src/my_mem.c ****         }
 127              		.loc 2 60 13
  59:src/../src/my_mem.c ****             tmp = tmp->next;
 128              		.loc 2 59 22 is_stmt 0
 129 00a8 13870700 		mv	a4,a5
  60:src/../src/my_mem.c ****         }
 130              		.loc 2 60 17
 131 00ac 83B70701 		ld	a5,16(a5)
 132              	.LVL6:
  57:src/../src/my_mem.c ****         {
 133              		.loc 2 57 9
 134 00b0 6FF01FFF 		j	.L8
 135              	.L7:
  63:src/../src/my_mem.c ****         block->prev = prev_tmp;
 136              		.loc 2 63 9 is_stmt 1
  63:src/../src/my_mem.c ****         block->prev = prev_tmp;
 137              		.loc 2 63 24 is_stmt 0
 138 00b4 2338A700 		sd	a0,16(a4)
  64:src/../src/my_mem.c ****         block->next = tmp;
 139              		.loc 2 64 9 is_stmt 1
  64:src/../src/my_mem.c ****         block->next = tmp;
 140              		.loc 2 64 21 is_stmt 0
 141 00b8 2334E500 		sd	a4,8(a0)
  65:src/../src/my_mem.c **** 
 142              		.loc 2 65 9 is_stmt 1
  65:src/../src/my_mem.c **** 
 143              		.loc 2 65 21 is_stmt 0
 144 00bc 2338F500 		sd	a5,16(a0)
  67:src/../src/my_mem.c ****             tmp->prev = block;
 145              		.loc 2 67 9 is_stmt 1
 146 00c0 E38207FC 		beqz	a5,.L3
  68:src/../src/my_mem.c ****     }
 147              		.loc 2 68 13
  68:src/../src/my_mem.c ****     }
 148              		.loc 2 68 23 is_stmt 0
 149 00c4 23B4A700 		sd	a0,8(a5)
 150 00c8 6FF0DFFB 		j	.L3
 151              	.LBE6:
 152              	.LBE7:
 153              	.LBE9:
 154              		.cfi_endproc
 155              	.LFE19:
 157              		.align	2
 158              		.globl	_Z11free_removeP9mem_block
 160              	_Z11free_removeP9mem_block:
 161              	.LFB20:
  71:src/../src/my_mem.c **** 
  72:src/../src/my_mem.c **** 
  73:src/../src/my_mem.c **** void
  74:src/../src/my_mem.c **** free_remove(struct mem_block* block)
  75:src/../src/my_mem.c **** {
 162              		.loc 2 75 1 is_stmt 1
 163              		.cfi_startproc
 164              	.LVL7:
 165 00cc 130101FF 		addi	sp,sp,-16
GAS LISTING /tmp/cc0HOBux.s 			page 6


 166              		.cfi_def_cfa_offset 16
 167 00d0 23348100 		sd	s0,8(sp)
 168              		.cfi_offset 8, -8
 169 00d4 13040101 		addi	s0,sp,16
 170              		.cfi_def_cfa 8, 0
  76:src/../src/my_mem.c ****     if (free_mem_head == NULL || block == NULL)
 171              		.loc 2 76 5
 172              		.loc 2 76 23 is_stmt 0
 173 00d8 97070000 		ld	a5,.LANCHOR0+8
 173      83B70700 
 174              		.loc 2 76 5
 175 00e0 63860702 		beqz	a5,.L11
 176              		.loc 2 76 31 discriminator 1
 177 00e4 63040502 		beqz	a0,.L11
  77:src/../src/my_mem.c ****         return;
  78:src/../src/my_mem.c **** 
  79:src/../src/my_mem.c ****     if (block == free_mem_head)
 178              		.loc 2 79 5 is_stmt 1
 179 00e8 6388A702 		beq	a5,a0,.L16
  80:src/../src/my_mem.c ****     {
  81:src/../src/my_mem.c ****         free_mem_head = free_mem_head->next;
  82:src/../src/my_mem.c **** 
  83:src/../src/my_mem.c ****         if (free_mem_head != NULL)
  84:src/../src/my_mem.c ****             free_mem_head->prev = NULL;
  85:src/../src/my_mem.c ****     }
  86:src/../src/my_mem.c ****     else
  87:src/../src/my_mem.c ****     {
  88:src/../src/my_mem.c ****         block->prev->next = block->next;
 180              		.loc 2 88 9
 181              		.loc 2 88 16 is_stmt 0
 182 00ec 03378500 		ld	a4,8(a0)
 183              		.loc 2 88 36
 184 00f0 83370501 		ld	a5,16(a0)
 185              		.loc 2 88 27
 186 00f4 2338F700 		sd	a5,16(a4)
  89:src/../src/my_mem.c ****         if (block->next)
 187              		.loc 2 89 9 is_stmt 1
 188 00f8 63860700 		beqz	a5,.L14
  90:src/../src/my_mem.c ****             block->next->prev = block->prev;
 189              		.loc 2 90 13
 190              		.loc 2 90 40 is_stmt 0
 191 00fc 03378500 		ld	a4,8(a0)
 192              		.loc 2 90 31
 193 0100 23B4E700 		sd	a4,8(a5)
 194              	.L14:
  91:src/../src/my_mem.c ****     }
  92:src/../src/my_mem.c **** 
  93:src/../src/my_mem.c ****     // Unlink
  94:src/../src/my_mem.c ****     block->prev = NULL;
 195              		.loc 2 94 5 is_stmt 1
 196              		.loc 2 94 17 is_stmt 0
 197 0104 23340500 		sd	zero,8(a0)
  95:src/../src/my_mem.c ****     block->next = NULL;
 198              		.loc 2 95 5 is_stmt 1
 199              		.loc 2 95 17 is_stmt 0
 200 0108 23380500 		sd	zero,16(a0)
 201              	.L11:
GAS LISTING /tmp/cc0HOBux.s 			page 7


  96:src/../src/my_mem.c **** }
 202              		.loc 2 96 1
 203 010c 03348100 		ld	s0,8(sp)
 204              		.cfi_remember_state
 205              		.cfi_restore 8
 206              		.cfi_def_cfa 2, 16
 207 0110 13010101 		addi	sp,sp,16
 208              		.cfi_def_cfa_offset 0
 209 0114 67800000 		jr	ra
 210              	.L16:
 211              		.cfi_restore_state
  81:src/../src/my_mem.c **** 
 212              		.loc 2 81 9 is_stmt 1
  81:src/../src/my_mem.c **** 
 213              		.loc 2 81 40 is_stmt 0
 214 0118 83B70701 		ld	a5,16(a5)
  81:src/../src/my_mem.c **** 
 215              		.loc 2 81 23
 216 011c 17070000 		sd	a5,.LANCHOR0+8,a4
 216      2330F700 
  83:src/../src/my_mem.c ****             free_mem_head->prev = NULL;
 217              		.loc 2 83 9 is_stmt 1
 218 0124 E38007FE 		beqz	a5,.L14
  84:src/../src/my_mem.c ****     }
 219              		.loc 2 84 13
  84:src/../src/my_mem.c ****     }
 220              		.loc 2 84 33 is_stmt 0
 221 0128 23B40700 		sd	zero,8(a5)
 222 012c 6FF09FFD 		j	.L14
 223              		.cfi_endproc
 224              	.LFE20:
 226              		.align	2
 227              		.globl	_Z11used_insertP9mem_block
 229              	_Z11used_insertP9mem_block:
 230              	.LFB21:
  97:src/../src/my_mem.c **** 
  98:src/../src/my_mem.c **** 
  99:src/../src/my_mem.c **** void
 100:src/../src/my_mem.c **** used_insert(struct mem_block* block)
 101:src/../src/my_mem.c **** {
 231              		.loc 2 101 1 is_stmt 1
 232              		.cfi_startproc
 233              	.LVL8:
 234 0130 130101FF 		addi	sp,sp,-16
 235              		.cfi_def_cfa_offset 16
 236 0134 23348100 		sd	s0,8(sp)
 237              		.cfi_offset 8, -8
 238 0138 13040101 		addi	s0,sp,16
 239              		.cfi_def_cfa 8, 0
 102:src/../src/my_mem.c ****     if ((char*)block < (char*)HEAP_START_ADDR || (char*)block >= (char*)HEAP_END_ADDR)
 240              		.loc 2 102 5
 241              		.loc 2 102 24 is_stmt 0
 242 013c 97070000 		la	a5,HEAP_START_ADDR
 242      83B70700 
 243 0144 83B70700 		ld	a5,0(a5)
 244              		.loc 2 102 5
 245 0148 636CF502 		bgtu	a5,a0,.L17
GAS LISTING /tmp/cc0HOBux.s 			page 8


 246              		.loc 2 102 66 discriminator 1
 247 014c 97070000 		la	a5,HEAP_END_ADDR
 247      83B70700 
 248 0154 83B70700 		ld	a5,0(a5)
 249              		.loc 2 102 47 discriminator 1
 250 0158 6374F502 		bleu	a5,a0,.L17
 103:src/../src/my_mem.c ****         return;
 104:src/../src/my_mem.c **** 
 105:src/../src/my_mem.c ****     if (used_mem_head == NULL)
 251              		.loc 2 105 5 is_stmt 1
 252              	.LBB10:
 253              		.loc 2 105 23 is_stmt 0
 254 015c 17070000 		ld	a4,.LANCHOR0+16
 254      03370700 
 255              		.loc 2 105 5
 256 0164 63040702 		beqz	a4,.L24
 257              	.LBE10:
 106:src/../src/my_mem.c ****     {
 107:src/../src/my_mem.c ****         used_mem_head = block;
 108:src/../src/my_mem.c ****     }
 109:src/../src/my_mem.c ****     else if (block < used_mem_head)
 258              		.loc 2 109 10 is_stmt 1
 259              	.LBB14:
 260              	.LBB11:
 261 0168 6378E502 		bleu	a4,a0,.L20
 110:src/../src/my_mem.c ****     {
 111:src/../src/my_mem.c ****         block->prev = NULL;
 262              		.loc 2 111 9
 263              		.loc 2 111 21 is_stmt 0
 264 016c 23340500 		sd	zero,8(a0)
 112:src/../src/my_mem.c ****         block->next = used_mem_head;
 265              		.loc 2 112 9 is_stmt 1
 266              		.loc 2 112 21 is_stmt 0
 267 0170 2338E500 		sd	a4,16(a0)
 113:src/../src/my_mem.c ****         used_mem_head->prev = block;
 268              		.loc 2 113 9 is_stmt 1
 269              		.loc 2 113 29 is_stmt 0
 270 0174 2334A700 		sd	a0,8(a4)
 114:src/../src/my_mem.c **** 
 115:src/../src/my_mem.c ****         used_mem_head = block;
 271              		.loc 2 115 9 is_stmt 1
 272              		.loc 2 115 23 is_stmt 0
 273 0178 97070000 		sd	a0,.LANCHOR0+16,a5
 273      23B0A700 
 274              	.L17:
 275              	.LBE11:
 276              	.LBE14:
 116:src/../src/my_mem.c ****     }
 117:src/../src/my_mem.c ****     else
 118:src/../src/my_mem.c ****     {
 119:src/../src/my_mem.c ****         struct mem_block* prev_tmp = used_mem_head;
 120:src/../src/my_mem.c ****         struct mem_block* tmp      = used_mem_head->next;
 121:src/../src/my_mem.c **** 
 122:src/../src/my_mem.c ****         while (tmp != NULL && (char*)tmp < (char*)block)
 123:src/../src/my_mem.c ****         {
 124:src/../src/my_mem.c ****             prev_tmp = tmp;
 125:src/../src/my_mem.c ****             tmp = tmp->next;
GAS LISTING /tmp/cc0HOBux.s 			page 9


 126:src/../src/my_mem.c ****         }
 127:src/../src/my_mem.c **** 
 128:src/../src/my_mem.c ****         prev_tmp->next = block;
 129:src/../src/my_mem.c ****         block->prev = prev_tmp;
 130:src/../src/my_mem.c ****         block->next = tmp;
 131:src/../src/my_mem.c **** 
 132:src/../src/my_mem.c ****         if (tmp != NULL)
 133:src/../src/my_mem.c ****             tmp->prev = block;
 134:src/../src/my_mem.c ****     }
 135:src/../src/my_mem.c **** }
 277              		.loc 2 135 1
 278 0180 03348100 		ld	s0,8(sp)
 279              		.cfi_remember_state
 280              		.cfi_restore 8
 281              		.cfi_def_cfa 2, 16
 282 0184 13010101 		addi	sp,sp,16
 283              		.cfi_def_cfa_offset 0
 284 0188 67800000 		jr	ra
 285              	.L24:
 286              		.cfi_restore_state
 287              	.LBB15:
 107:src/../src/my_mem.c ****     }
 288              		.loc 2 107 9 is_stmt 1
 107:src/../src/my_mem.c ****     }
 289              		.loc 2 107 23 is_stmt 0
 290 018c 97070000 		sd	a0,.LANCHOR0+16,a5
 290      23B0A700 
 291 0194 6FF0DFFE 		j	.L17
 292              	.L20:
 293              	.LBB13:
 294              	.LBB12:
 119:src/../src/my_mem.c ****         struct mem_block* tmp      = used_mem_head->next;
 295              		.loc 2 119 9 is_stmt 1
 296              	.LVL9:
 120:src/../src/my_mem.c **** 
 297              		.loc 2 120 9
 120:src/../src/my_mem.c **** 
 298              		.loc 2 120 27 is_stmt 0
 299 0198 83370701 		ld	a5,16(a4)
 300              	.LVL10:
 301              	.L22:
 122:src/../src/my_mem.c ****         {
 302              		.loc 2 122 9 is_stmt 1
 122:src/../src/my_mem.c ****         {
 303              		.loc 2 122 28
 304 019c 638A0700 		beqz	a5,.L21
 122:src/../src/my_mem.c ****         {
 305              		.loc 2 122 28 is_stmt 0 discriminator 1
 306 01a0 63F8A700 		bgeu	a5,a0,.L21
 124:src/../src/my_mem.c ****             tmp = tmp->next;
 307              		.loc 2 124 13 is_stmt 1
 308              	.LVL11:
 125:src/../src/my_mem.c ****         }
 309              		.loc 2 125 13
 124:src/../src/my_mem.c ****             tmp = tmp->next;
 310              		.loc 2 124 22 is_stmt 0
 311 01a4 13870700 		mv	a4,a5
GAS LISTING /tmp/cc0HOBux.s 			page 10


 125:src/../src/my_mem.c ****         }
 312              		.loc 2 125 17
 313 01a8 83B70701 		ld	a5,16(a5)
 314              	.LVL12:
 122:src/../src/my_mem.c ****         {
 315              		.loc 2 122 9
 316 01ac 6FF01FFF 		j	.L22
 317              	.L21:
 128:src/../src/my_mem.c ****         block->prev = prev_tmp;
 318              		.loc 2 128 9 is_stmt 1
 128:src/../src/my_mem.c ****         block->prev = prev_tmp;
 319              		.loc 2 128 24 is_stmt 0
 320 01b0 2338A700 		sd	a0,16(a4)
 129:src/../src/my_mem.c ****         block->next = tmp;
 321              		.loc 2 129 9 is_stmt 1
 129:src/../src/my_mem.c ****         block->next = tmp;
 322              		.loc 2 129 21 is_stmt 0
 323 01b4 2334E500 		sd	a4,8(a0)
 130:src/../src/my_mem.c **** 
 324              		.loc 2 130 9 is_stmt 1
 130:src/../src/my_mem.c **** 
 325              		.loc 2 130 21 is_stmt 0
 326 01b8 2338F500 		sd	a5,16(a0)
 132:src/../src/my_mem.c ****             tmp->prev = block;
 327              		.loc 2 132 9 is_stmt 1
 328 01bc E38207FC 		beqz	a5,.L17
 133:src/../src/my_mem.c ****     }
 329              		.loc 2 133 13
 133:src/../src/my_mem.c ****     }
 330              		.loc 2 133 23 is_stmt 0
 331 01c0 23B4A700 		sd	a0,8(a5)
 332 01c4 6FF0DFFB 		j	.L17
 333              	.LBE12:
 334              	.LBE13:
 335              	.LBE15:
 336              		.cfi_endproc
 337              	.LFE21:
 339              		.align	2
 340              		.globl	_Z11used_removeP9mem_block
 342              	_Z11used_removeP9mem_block:
 343              	.LFB22:
 136:src/../src/my_mem.c **** 
 137:src/../src/my_mem.c **** 
 138:src/../src/my_mem.c **** void
 139:src/../src/my_mem.c **** used_remove(struct mem_block* block)
 140:src/../src/my_mem.c **** {
 344              		.loc 2 140 1 is_stmt 1
 345              		.cfi_startproc
 346              	.LVL13:
 347 01c8 130101FF 		addi	sp,sp,-16
 348              		.cfi_def_cfa_offset 16
 349 01cc 23348100 		sd	s0,8(sp)
 350              		.cfi_offset 8, -8
 351 01d0 13040101 		addi	s0,sp,16
 352              		.cfi_def_cfa 8, 0
 141:src/../src/my_mem.c ****     if (used_mem_head == NULL || block == NULL)
 353              		.loc 2 141 5
GAS LISTING /tmp/cc0HOBux.s 			page 11


 354              		.loc 2 141 23 is_stmt 0
 355 01d4 97070000 		ld	a5,.LANCHOR0+16
 355      83B70700 
 356              		.loc 2 141 5
 357 01dc 63860702 		beqz	a5,.L25
 358              		.loc 2 141 31 discriminator 1
 359 01e0 63040502 		beqz	a0,.L25
 142:src/../src/my_mem.c ****         return;
 143:src/../src/my_mem.c **** 
 144:src/../src/my_mem.c ****     if (block == used_mem_head)
 360              		.loc 2 144 5 is_stmt 1
 361 01e4 6388A702 		beq	a5,a0,.L30
 145:src/../src/my_mem.c ****     {
 146:src/../src/my_mem.c ****         used_mem_head = used_mem_head->next;
 147:src/../src/my_mem.c **** 
 148:src/../src/my_mem.c ****         if (used_mem_head != NULL)
 149:src/../src/my_mem.c ****             used_mem_head->prev = NULL;
 150:src/../src/my_mem.c ****     }
 151:src/../src/my_mem.c ****     else
 152:src/../src/my_mem.c ****     {
 153:src/../src/my_mem.c ****         block->prev->next = block->next;
 362              		.loc 2 153 9
 363              		.loc 2 153 16 is_stmt 0
 364 01e8 03378500 		ld	a4,8(a0)
 365              		.loc 2 153 36
 366 01ec 83370501 		ld	a5,16(a0)
 367              		.loc 2 153 27
 368 01f0 2338F700 		sd	a5,16(a4)
 154:src/../src/my_mem.c ****         if (block->next)
 369              		.loc 2 154 9 is_stmt 1
 370 01f4 63860700 		beqz	a5,.L28
 155:src/../src/my_mem.c ****             block->next->prev = block->prev;
 371              		.loc 2 155 13
 372              		.loc 2 155 40 is_stmt 0
 373 01f8 03378500 		ld	a4,8(a0)
 374              		.loc 2 155 31
 375 01fc 23B4E700 		sd	a4,8(a5)
 376              	.L28:
 156:src/../src/my_mem.c ****     }
 157:src/../src/my_mem.c **** 
 158:src/../src/my_mem.c ****     // Unlink
 159:src/../src/my_mem.c ****     block->prev = NULL;
 377              		.loc 2 159 5 is_stmt 1
 378              		.loc 2 159 17 is_stmt 0
 379 0200 23340500 		sd	zero,8(a0)
 160:src/../src/my_mem.c ****     block->next = NULL;
 380              		.loc 2 160 5 is_stmt 1
 381              		.loc 2 160 17 is_stmt 0
 382 0204 23380500 		sd	zero,16(a0)
 383              	.L25:
 161:src/../src/my_mem.c **** }
 384              		.loc 2 161 1
 385 0208 03348100 		ld	s0,8(sp)
 386              		.cfi_remember_state
 387              		.cfi_restore 8
 388              		.cfi_def_cfa 2, 16
 389 020c 13010101 		addi	sp,sp,16
GAS LISTING /tmp/cc0HOBux.s 			page 12


 390              		.cfi_def_cfa_offset 0
 391 0210 67800000 		jr	ra
 392              	.L30:
 393              		.cfi_restore_state
 146:src/../src/my_mem.c **** 
 394              		.loc 2 146 9 is_stmt 1
 146:src/../src/my_mem.c **** 
 395              		.loc 2 146 40 is_stmt 0
 396 0214 83B70701 		ld	a5,16(a5)
 146:src/../src/my_mem.c **** 
 397              		.loc 2 146 23
 398 0218 17070000 		sd	a5,.LANCHOR0+16,a4
 398      2330F700 
 148:src/../src/my_mem.c ****             used_mem_head->prev = NULL;
 399              		.loc 2 148 9 is_stmt 1
 400 0220 E38007FE 		beqz	a5,.L28
 149:src/../src/my_mem.c ****     }
 401              		.loc 2 149 13
 149:src/../src/my_mem.c ****     }
 402              		.loc 2 149 33 is_stmt 0
 403 0224 23B40700 		sd	zero,8(a5)
 404 0228 6FF09FFD 		j	.L28
 405              		.cfi_endproc
 406              	.LFE22:
 408              		.align	2
 409              		.globl	_Z11__mem_allocm
 411              	_Z11__mem_allocm:
 412              	.LFB23:
 162:src/../src/my_mem.c **** 
 163:src/../src/my_mem.c **** 
 164:src/../src/my_mem.c **** 
 165:src/../src/my_mem.c **** 
 166:src/../src/my_mem.c **** void*
 167:src/../src/my_mem.c **** __mem_alloc(size_t bytes)
 168:src/../src/my_mem.c **** {
 413              		.loc 2 168 1 is_stmt 1
 414              		.cfi_startproc
 415              	.LVL14:
 416 022c 130101FE 		addi	sp,sp,-32
 417              		.cfi_def_cfa_offset 32
 418 0230 233C1100 		sd	ra,24(sp)
 419 0234 23388100 		sd	s0,16(sp)
 420 0238 23349100 		sd	s1,8(sp)
 421 023c 23302101 		sd	s2,0(sp)
 422              		.cfi_offset 1, -8
 423              		.cfi_offset 8, -16
 424              		.cfi_offset 9, -24
 425              		.cfi_offset 18, -32
 426 0240 13040102 		addi	s0,sp,32
 427              		.cfi_def_cfa 8, 0
 169:src/../src/my_mem.c ****     // Initialize if necessary(This is done only once)
 170:src/../src/my_mem.c ****     if (free_mem_head == NULL && beginning == 0)
 428              		.loc 2 170 5
 429              		.loc 2 170 23 is_stmt 0
 430 0244 97070000 		ld	a5,.LANCHOR0+8
 430      83B70700 
 431              		.loc 2 170 5
GAS LISTING /tmp/cc0HOBux.s 			page 13


 432 024c 63820702 		beqz	a5,.L40
 433              	.L32:
 171:src/../src/my_mem.c ****     {
 172:src/../src/my_mem.c ****         beginning = 1;
 173:src/../src/my_mem.c ****         free_mem_head = (struct mem_block*) HEAP_START_ADDR;
 174:src/../src/my_mem.c ****         free_mem_head->size = ((uint64)HEAP_END_ADDR - (uint64)HEAP_START_ADDR) - sizeof(struct mem
 175:src/../src/my_mem.c **** 
 176:src/../src/my_mem.c ****         free_mem_head->next = NULL;
 177:src/../src/my_mem.c ****         free_mem_head->prev = NULL;
 178:src/../src/my_mem.c ****     }
 179:src/../src/my_mem.c **** 
 180:src/../src/my_mem.c ****     size_t blocks = (bytes % MEM_BLOCK_SIZE > 0) ? (bytes / MEM_BLOCK_SIZE + 1) : (bytes / MEM_BLOC
 434              		.loc 2 180 5 is_stmt 1
 435              		.loc 2 180 28 is_stmt 0
 436 0250 9377F503 		andi	a5,a0,63
 437              		.loc 2 180 50
 438 0254 63860706 		beqz	a5,.L33
 439              		.loc 2 180 59 discriminator 1
 440 0258 13556500 		srli	a0,a0,6
 441              	.LVL15:
 442              		.loc 2 180 50 discriminator 1
 443 025c 13091500 		addi	s2,a0,1
 444              	.L34:
 445              	.LVL16:
 181:src/../src/my_mem.c **** 
 182:src/../src/my_mem.c ****     size_t allocate = blocks * MEM_BLOCK_SIZE; // Now this is in bytes
 446              		.loc 2 182 5 is_stmt 1 discriminator 4
 447              		.loc 2 182 12 is_stmt 0 discriminator 4
 448 0260 13196900 		slli	s2,s2,6
 449              	.LVL17:
 183:src/../src/my_mem.c **** 
 184:src/../src/my_mem.c ****     for (struct mem_block* curr = free_mem_head; curr != NULL; curr = curr->next)
 450              		.loc 2 184 5 is_stmt 1 discriminator 4
 451              	.LBB16:
 452              		.loc 2 184 28 is_stmt 0 discriminator 4
 453 0264 97040000 		ld	s1,.LANCHOR0+8
 453      83B40400 
 454              	.LVL18:
 455 026c 6F008009 		j	.L38
 456              	.LVL19:
 457              	.L40:
 458              	.LBE16:
 170:src/../src/my_mem.c ****     {
 459              		.loc 2 170 44 discriminator 1
 460 0270 97070000 		lw	a5,.LANCHOR0+24
 460      83A70700 
 170:src/../src/my_mem.c ****     {
 461              		.loc 2 170 31 discriminator 1
 462 0278 E39C07FC 		bnez	a5,.L32
 172:src/../src/my_mem.c ****         free_mem_head = (struct mem_block*) HEAP_START_ADDR;
 463              		.loc 2 172 9 is_stmt 1
 172:src/../src/my_mem.c ****         free_mem_head = (struct mem_block*) HEAP_START_ADDR;
 464              		.loc 2 172 19 is_stmt 0
 465 027c 17070000 		lla	a4,.LANCHOR0
 465      13070700 
 466 0284 93071000 		li	a5,1
 467 0288 232CF700 		sw	a5,24(a4)
GAS LISTING /tmp/cc0HOBux.s 			page 14


 173:src/../src/my_mem.c ****         free_mem_head->size = ((uint64)HEAP_END_ADDR - (uint64)HEAP_START_ADDR) - sizeof(struct mem
 468              		.loc 2 173 9 is_stmt 1
 173:src/../src/my_mem.c ****         free_mem_head->size = ((uint64)HEAP_END_ADDR - (uint64)HEAP_START_ADDR) - sizeof(struct mem
 469              		.loc 2 173 23 is_stmt 0
 470 028c 97070000 		la	a5,HEAP_START_ADDR
 470      83B70700 
 471 0294 83B70700 		ld	a5,0(a5)
 472 0298 2334F700 		sd	a5,8(a4)
 174:src/../src/my_mem.c **** 
 473              		.loc 2 174 9 is_stmt 1
 174:src/../src/my_mem.c **** 
 474              		.loc 2 174 54 is_stmt 0
 475 029c 17070000 		la	a4,HEAP_END_ADDR
 475      03370700 
 476 02a4 03370700 		ld	a4,0(a4)
 477 02a8 3307F740 		sub	a4,a4,a5
 174:src/../src/my_mem.c **** 
 478              		.loc 2 174 81
 479 02ac 130787FE 		addi	a4,a4,-24
 174:src/../src/my_mem.c **** 
 480              		.loc 2 174 29
 481 02b0 23B0E700 		sd	a4,0(a5)
 176:src/../src/my_mem.c ****         free_mem_head->prev = NULL;
 482              		.loc 2 176 9 is_stmt 1
 176:src/../src/my_mem.c ****         free_mem_head->prev = NULL;
 483              		.loc 2 176 29 is_stmt 0
 484 02b4 23B80700 		sd	zero,16(a5)
 177:src/../src/my_mem.c ****     }
 485              		.loc 2 177 9 is_stmt 1
 177:src/../src/my_mem.c ****     }
 486              		.loc 2 177 29 is_stmt 0
 487 02b8 23B40700 		sd	zero,8(a5)
 488 02bc 6FF05FF9 		j	.L32
 489              	.L33:
 180:src/../src/my_mem.c **** 
 490              		.loc 2 180 50 discriminator 2
 491 02c0 13596500 		srli	s2,a0,6
 492 02c4 6FF0DFF9 		j	.L34
 493              	.LVL20:
 494              	.L41:
 495              	.LBB26:
 496              	.LBB17:
 497              	.LBB18:
 185:src/../src/my_mem.c ****     {
 186:src/../src/my_mem.c ****         /* FIRST FIT */
 187:src/../src/my_mem.c ****         if (curr->size < allocate)
 188:src/../src/my_mem.c ****             continue;
 189:src/../src/my_mem.c ****         else if (curr->size == allocate)
 190:src/../src/my_mem.c ****         {
 191:src/../src/my_mem.c ****             free_remove(curr);
 498              		.loc 2 191 13 is_stmt 1
 499              		.loc 2 191 24 is_stmt 0
 500 02c8 13850400 		mv	a0,s1
 501 02cc 97000000 		call	_Z11free_removeP9mem_block
 501      E7800000 
 502              	.LVL21:
 192:src/../src/my_mem.c ****             used_insert(curr);
GAS LISTING /tmp/cc0HOBux.s 			page 15


 503              		.loc 2 192 13 is_stmt 1
 504              		.loc 2 192 24 is_stmt 0
 505 02d4 13850400 		mv	a0,s1
 506 02d8 97000000 		call	_Z11used_insertP9mem_block
 506      E7800000 
 507              	.LVL22:
 193:src/../src/my_mem.c **** 
 194:src/../src/my_mem.c ****             return (void*)((char*)curr + sizeof(struct mem_block));
 508              		.loc 2 194 13 is_stmt 1
 509              		.loc 2 194 66 is_stmt 0
 510 02e0 93848401 		addi	s1,s1,24
 511              	.LVL23:
 512              	.L31:
 513              	.LBE18:
 514              	.LBE17:
 515              	.LBE26:
 195:src/../src/my_mem.c ****         }
 196:src/../src/my_mem.c ****         else if (curr->size > allocate)
 197:src/../src/my_mem.c ****         {
 198:src/../src/my_mem.c ****             free_remove(curr);
 199:src/../src/my_mem.c **** 
 200:src/../src/my_mem.c ****             size_t leftover_allocatable_size = curr->size - allocate; // Leftover
 201:src/../src/my_mem.c ****             leftover_allocatable_size -= sizeof(struct mem_block);
 202:src/../src/my_mem.c **** 
 203:src/../src/my_mem.c ****             struct mem_block* leftover = (struct mem_block*) ((char*)curr + sizeof(struct mem_block
 204:src/../src/my_mem.c ****             leftover->prev = NULL;
 205:src/../src/my_mem.c ****             leftover->next = NULL;
 206:src/../src/my_mem.c ****             leftover->size = leftover_allocatable_size;
 207:src/../src/my_mem.c **** 
 208:src/../src/my_mem.c ****             curr->size = allocate;
 209:src/../src/my_mem.c **** 
 210:src/../src/my_mem.c ****             free_insert(leftover);
 211:src/../src/my_mem.c ****             used_insert(curr);
 212:src/../src/my_mem.c **** 
 213:src/../src/my_mem.c ****             return (void*)((char*)curr + sizeof(struct mem_block));
 214:src/../src/my_mem.c ****         }
 215:src/../src/my_mem.c ****     }
 216:src/../src/my_mem.c **** 
 217:src/../src/my_mem.c ****     // There is not enough space
 218:src/../src/my_mem.c ****     return NULL;
 219:src/../src/my_mem.c **** }
 516              		.loc 2 219 1
 517 02e4 13850400 		mv	a0,s1
 518 02e8 83308101 		ld	ra,24(sp)
 519              		.cfi_remember_state
 520              		.cfi_restore 1
 521 02ec 03340101 		ld	s0,16(sp)
 522              		.cfi_restore 8
 523              		.cfi_def_cfa 2, 32
 524 02f0 83348100 		ld	s1,8(sp)
 525              		.cfi_restore 9
 526 02f4 03390100 		ld	s2,0(sp)
 527              		.cfi_restore 18
 528              	.LVL24:
 529 02f8 13010102 		addi	sp,sp,32
 530              		.cfi_def_cfa_offset 0
 531 02fc 67800000 		jr	ra
GAS LISTING /tmp/cc0HOBux.s 			page 16


 532              	.LVL25:
 533              	.L36:
 534              		.cfi_restore_state
 535              	.LBB27:
 184:src/../src/my_mem.c ****     {
 536              		.loc 2 184 5 is_stmt 1 discriminator 2
 184:src/../src/my_mem.c ****     {
 537              		.loc 2 184 69 is_stmt 0 discriminator 2
 538 0300 83B40401 		ld	s1,16(s1)
 539              	.LVL26:
 540              	.L38:
 184:src/../src/my_mem.c ****     {
 541              		.loc 2 184 55 is_stmt 1 discriminator 1
 542 0304 E38004FE 		beqz	s1,.L31
 543              	.LBE27:
 187:src/../src/my_mem.c ****             continue;
 544              		.loc 2 187 9
 545              	.LBB28:
 546              	.LBB23:
 187:src/../src/my_mem.c ****             continue;
 547              		.loc 2 187 19 is_stmt 0
 548 0308 83B70400 		ld	a5,0(s1)
 187:src/../src/my_mem.c ****             continue;
 549              		.loc 2 187 9
 550 030c E3EA27FF 		bltu	a5,s2,.L36
 551              	.LBE23:
 552              	.LBE28:
 189:src/../src/my_mem.c ****         {
 553              		.loc 2 189 14 is_stmt 1
 554              	.LBB29:
 555              	.LBB24:
 556              	.LBB21:
 557 0310 E38C27FB 		beq	a5,s2,.L41
 558              	.LBE21:
 559              	.LBE24:
 560              	.LBE29:
 196:src/../src/my_mem.c ****         {
 561              		.loc 2 196 14
 562              	.LBB30:
 563              	.LBB25:
 564              	.LBB22:
 565              	.LBB19:
 566 0314 E376F9FE 		bleu	a5,s2,.L36
 567              	.LBB20:
 198:src/../src/my_mem.c **** 
 568              		.loc 2 198 13
 198:src/../src/my_mem.c **** 
 569              		.loc 2 198 24 is_stmt 0
 570 0318 13850400 		mv	a0,s1
 571 031c 97000000 		call	_Z11free_removeP9mem_block
 571      E7800000 
 572              	.LVL27:
 200:src/../src/my_mem.c ****             leftover_allocatable_size -= sizeof(struct mem_block);
 573              		.loc 2 200 13 is_stmt 1
 200:src/../src/my_mem.c ****             leftover_allocatable_size -= sizeof(struct mem_block);
 574              		.loc 2 200 54 is_stmt 0
 575 0324 83B70400 		ld	a5,0(s1)
GAS LISTING /tmp/cc0HOBux.s 			page 17


 200:src/../src/my_mem.c ****             leftover_allocatable_size -= sizeof(struct mem_block);
 576              		.loc 2 200 20
 577 0328 B3872741 		sub	a5,a5,s2
 578              	.LVL28:
 201:src/../src/my_mem.c **** 
 579              		.loc 2 201 13 is_stmt 1
 201:src/../src/my_mem.c **** 
 580              		.loc 2 201 39 is_stmt 0
 581 032c 938787FE 		addi	a5,a5,-24
 582              	.LVL29:
 203:src/../src/my_mem.c ****             leftover->prev = NULL;
 583              		.loc 2 203 13 is_stmt 1
 203:src/../src/my_mem.c ****             leftover->prev = NULL;
 584              		.loc 2 203 102 is_stmt 0
 585 0330 13058901 		addi	a0,s2,24
 203:src/../src/my_mem.c ****             leftover->prev = NULL;
 586              		.loc 2 203 31
 587 0334 3385A400 		add	a0,s1,a0
 588              	.LVL30:
 204:src/../src/my_mem.c ****             leftover->next = NULL;
 589              		.loc 2 204 13 is_stmt 1
 204:src/../src/my_mem.c ****             leftover->next = NULL;
 590              		.loc 2 204 28 is_stmt 0
 591 0338 23340500 		sd	zero,8(a0)
 205:src/../src/my_mem.c ****             leftover->size = leftover_allocatable_size;
 592              		.loc 2 205 13 is_stmt 1
 205:src/../src/my_mem.c ****             leftover->size = leftover_allocatable_size;
 593              		.loc 2 205 28 is_stmt 0
 594 033c 23380500 		sd	zero,16(a0)
 206:src/../src/my_mem.c **** 
 595              		.loc 2 206 13 is_stmt 1
 206:src/../src/my_mem.c **** 
 596              		.loc 2 206 28 is_stmt 0
 597 0340 2330F500 		sd	a5,0(a0)
 208:src/../src/my_mem.c **** 
 598              		.loc 2 208 13 is_stmt 1
 208:src/../src/my_mem.c **** 
 599              		.loc 2 208 24 is_stmt 0
 600 0344 23B02401 		sd	s2,0(s1)
 210:src/../src/my_mem.c ****             used_insert(curr);
 601              		.loc 2 210 13 is_stmt 1
 210:src/../src/my_mem.c ****             used_insert(curr);
 602              		.loc 2 210 24 is_stmt 0
 603 0348 97000000 		call	_Z11free_insertP9mem_block
 603      E7800000 
 604              	.LVL31:
 211:src/../src/my_mem.c **** 
 605              		.loc 2 211 13 is_stmt 1
 211:src/../src/my_mem.c **** 
 606              		.loc 2 211 24 is_stmt 0
 607 0350 13850400 		mv	a0,s1
 608 0354 97000000 		call	_Z11used_insertP9mem_block
 608      E7800000 
 609              	.LVL32:
 213:src/../src/my_mem.c ****         }
 610              		.loc 2 213 13 is_stmt 1
 213:src/../src/my_mem.c ****         }
GAS LISTING /tmp/cc0HOBux.s 			page 18


 611              		.loc 2 213 66 is_stmt 0
 612 035c 93848401 		addi	s1,s1,24
 613              	.LVL33:
 614 0360 6FF05FF8 		j	.L31
 615              	.LBE20:
 616              	.LBE19:
 617              	.LBE22:
 618              	.LBE25:
 619              	.LBE30:
 620              		.cfi_endproc
 621              	.LFE23:
 623              		.align	2
 624              		.globl	_Z10__mem_freePv
 626              	_Z10__mem_freePv:
 627              	.LFB24:
 220:src/../src/my_mem.c **** 
 221:src/../src/my_mem.c **** 
 222:src/../src/my_mem.c **** 
 223:src/../src/my_mem.c **** int
 224:src/../src/my_mem.c **** __mem_free(void* allocated_address)
 225:src/../src/my_mem.c **** {
 628              		.loc 2 225 1 is_stmt 1
 629              		.cfi_startproc
 630              	.LVL34:
 226:src/../src/my_mem.c ****     /* Nothing to free */
 227:src/../src/my_mem.c ****     if (allocated_address == NULL || used_mem_head == NULL)
 631              		.loc 2 227 5
 632 0364 630E0510 		beqz	a0,.L46
 225:src/../src/my_mem.c ****     /* Nothing to free */
 633              		.loc 2 225 1 is_stmt 0 discriminator 1
 634 0368 130101FE 		addi	sp,sp,-32
 635              		.cfi_def_cfa_offset 32
 636 036c 233C1100 		sd	ra,24(sp)
 637 0370 23388100 		sd	s0,16(sp)
 638 0374 23349100 		sd	s1,8(sp)
 639 0378 23302101 		sd	s2,0(sp)
 640              		.cfi_offset 1, -8
 641              		.cfi_offset 8, -16
 642              		.cfi_offset 9, -24
 643              		.cfi_offset 18, -32
 644 037c 13040102 		addi	s0,sp,32
 645              		.cfi_def_cfa 8, 0
 646 0380 93040500 		mv	s1,a0
 647              		.loc 2 227 52 discriminator 1
 648 0384 97070000 		ld	a5,.LANCHOR0+16
 648      83B70700 
 649              		.loc 2 227 35 discriminator 1
 650 038c 638E070E 		beqz	a5,.L47
 228:src/../src/my_mem.c ****         return -1;
 229:src/../src/my_mem.c **** 
 230:src/../src/my_mem.c ****     if ((char*)allocated_address < (char*)HEAP_START_ADDR || (char*)allocated_address > (char*)HEAP
 651              		.loc 2 230 5 is_stmt 1
 652              		.loc 2 230 36 is_stmt 0
 653 0390 17070000 		la	a4,HEAP_START_ADDR
 653      03370700 
 654 0398 03370700 		ld	a4,0(a4)
 655              		.loc 2 230 5
GAS LISTING /tmp/cc0HOBux.s 			page 19


 656 039c 636AE50E 		bgtu	a4,a0,.L48
 657              		.loc 2 230 89 discriminator 1
 658 03a0 17070000 		la	a4,HEAP_END_ADDR
 658      03370700 
 659 03a8 03370700 		ld	a4,0(a4)
 660              		.loc 2 230 59 discriminator 1
 661 03ac 6366A70E 		bltu	a4,a0,.L49
 231:src/../src/my_mem.c ****         return -1;
 232:src/../src/my_mem.c **** 
 233:src/../src/my_mem.c ****     // Because we keep the list sorted
 234:src/../src/my_mem.c ****     if ((char*)allocated_address < (char*)used_mem_head)
 662              		.loc 2 234 5 is_stmt 1
 663 03b0 6368F50E 		bgtu	a5,a0,.L50
 235:src/../src/my_mem.c ****         return -1;
 236:src/../src/my_mem.c **** 
 237:src/../src/my_mem.c ****     struct mem_block* block_to_free = (struct mem_block*)((char*)allocated_address - sizeof(struct 
 664              		.loc 2 237 5
 665              		.loc 2 237 23 is_stmt 0
 666 03b4 130985FE 		addi	s2,a0,-24
 667              	.LVL35:
 238:src/../src/my_mem.c **** 
 239:src/../src/my_mem.c ****     used_remove(block_to_free);
 668              		.loc 2 239 5 is_stmt 1
 669              		.loc 2 239 16 is_stmt 0
 670 03b8 13050900 		mv	a0,s2
 671              	.LVL36:
 672 03bc 97000000 		call	_Z11used_removeP9mem_block
 672      E7800000 
 673              	.LVL37:
 240:src/../src/my_mem.c ****     free_insert(block_to_free);
 674              		.loc 2 240 5 is_stmt 1
 675              		.loc 2 240 16 is_stmt 0
 676 03c4 13050900 		mv	a0,s2
 677 03c8 97000000 		call	_Z11free_insertP9mem_block
 677      E7800000 
 678              	.LVL38:
 241:src/../src/my_mem.c **** 
 242:src/../src/my_mem.c ****     /* Merge */
 243:src/../src/my_mem.c ****     struct mem_block* prev = block_to_free->prev;
 679              		.loc 2 243 5 is_stmt 1
 680              		.loc 2 243 23 is_stmt 0
 681 03d0 83B704FF 		ld	a5,-16(s1)
 682              	.LVL39:
 244:src/../src/my_mem.c ****     struct mem_block* next = block_to_free->next;
 683              		.loc 2 244 5 is_stmt 1
 684              		.loc 2 244 23 is_stmt 0
 685 03d4 03B784FF 		ld	a4,-8(s1)
 686              	.LVL40:
 245:src/../src/my_mem.c **** 
 246:src/../src/my_mem.c ****     /* Merge with Left */
 247:src/../src/my_mem.c ****     if (prev != NULL && ((char*)prev + sizeof(struct mem_block) + prev->size) >= (char*)block_to_fr
 687              		.loc 2 247 5 is_stmt 1
 688 03d8 63880706 		beqz	a5,.L44
 689              		.loc 2 247 73 is_stmt 0 discriminator 1
 690 03dc 83B60700 		ld	a3,0(a5)
 691              		.loc 2 247 65 discriminator 1
 692 03e0 13868601 		addi	a2,a3,24
GAS LISTING /tmp/cc0HOBux.s 			page 20


 693 03e4 3386C700 		add	a2,a5,a2
 694              		.loc 2 247 22 discriminator 1
 695 03e8 63602607 		bltu	a2,s2,.L44
 248:src/../src/my_mem.c ****     {
 249:src/../src/my_mem.c ****         prev->size += sizeof(struct mem_block) + block_to_free->size;
 696              		.loc 2 249 9 is_stmt 1
 697              		.loc 2 249 65 is_stmt 0
 698 03ec 03B684FE 		ld	a2,-24(s1)
 699              		.loc 2 249 20
 700 03f0 B386C600 		add	a3,a3,a2
 701 03f4 93868601 		addi	a3,a3,24
 702 03f8 23B0D700 		sd	a3,0(a5)
 250:src/../src/my_mem.c ****         prev->next = block_to_free->next;
 703              		.loc 2 250 9 is_stmt 1
 704              		.loc 2 250 37 is_stmt 0
 705 03fc 83B684FF 		ld	a3,-8(s1)
 706              		.loc 2 250 20
 707 0400 23B8D700 		sd	a3,16(a5)
 251:src/../src/my_mem.c **** 
 252:src/../src/my_mem.c ****         if (next != NULL)
 708              		.loc 2 252 9 is_stmt 1
 709 0404 63040700 		beqz	a4,.L45
 253:src/../src/my_mem.c ****             next->prev = prev;
 710              		.loc 2 253 13
 711              		.loc 2 253 24 is_stmt 0
 712 0408 2334F700 		sd	a5,8(a4)
 713              	.L45:
 254:src/../src/my_mem.c **** 
 255:src/../src/my_mem.c ****         /* Merge with Right as well */
 256:src/../src/my_mem.c ****         if (next != NULL && ((char*)prev + sizeof(struct mem_block) + prev->size) >= (char*)next)
 714              		.loc 2 256 9 is_stmt 1
 715 040c 630E0708 		beqz	a4,.L51
 716              		.loc 2 256 77 is_stmt 0 discriminator 1
 717 0410 83B60700 		ld	a3,0(a5)
 718              		.loc 2 256 69 discriminator 1
 719 0414 13868601 		addi	a2,a3,24
 720 0418 3386C700 		add	a2,a5,a2
 721              		.loc 2 256 26 discriminator 1
 722 041c 636AE608 		bltu	a2,a4,.L52
 257:src/../src/my_mem.c ****         {
 258:src/../src/my_mem.c ****             prev->size += sizeof(struct mem_block) + next->size;
 723              		.loc 2 258 13 is_stmt 1
 724              		.loc 2 258 60 is_stmt 0
 725 0420 03360700 		ld	a2,0(a4)
 726              		.loc 2 258 24
 727 0424 B386C600 		add	a3,a3,a2
 728 0428 93868601 		addi	a3,a3,24
 729 042c 23B0D700 		sd	a3,0(a5)
 259:src/../src/my_mem.c ****             prev->next = next->next;
 730              		.loc 2 259 13 is_stmt 1
 731              		.loc 2 259 32 is_stmt 0
 732 0430 03370701 		ld	a4,16(a4)
 733              	.LVL41:
 734              		.loc 2 259 24
 735 0434 23B8E700 		sd	a4,16(a5)
 260:src/../src/my_mem.c **** 
 261:src/../src/my_mem.c ****             if (next->next != NULL)
GAS LISTING /tmp/cc0HOBux.s 			page 21


 736              		.loc 2 261 13 is_stmt 1
 737 0438 63000708 		beqz	a4,.L53
 262:src/../src/my_mem.c ****                 next->next->prev = prev;
 738              		.loc 2 262 17
 739              		.loc 2 262 34 is_stmt 0
 740 043c 2334F700 		sd	a5,8(a4)
 263:src/../src/my_mem.c ****         }
 264:src/../src/my_mem.c ****     }
 265:src/../src/my_mem.c ****         /* Merge only with Right */
 266:src/../src/my_mem.c ****     else if (next != NULL && ((char*)block_to_free + sizeof(struct mem_block) + block_to_free->size
 267:src/../src/my_mem.c ****     {
 268:src/../src/my_mem.c ****         block_to_free->size += sizeof(struct mem_block) + next->size;
 269:src/../src/my_mem.c ****         block_to_free->next = next->next;
 270:src/../src/my_mem.c **** 
 271:src/../src/my_mem.c ****         if (next->next != NULL)
 272:src/../src/my_mem.c ****             next->next->prev = block_to_free;
 273:src/../src/my_mem.c ****     }
 274:src/../src/my_mem.c **** 
 275:src/../src/my_mem.c ****     return 0;
 741              		.loc 2 275 12
 742 0440 13050000 		li	a0,0
 743 0444 6F008008 		j	.L43
 744              	.LVL42:
 745              	.L44:
 266:src/../src/my_mem.c ****     {
 746              		.loc 2 266 10 is_stmt 1
 747 0448 630C0706 		beqz	a4,.L54
 266:src/../src/my_mem.c ****     {
 748              		.loc 2 266 96 is_stmt 0 discriminator 1
 749 044c 83B784FE 		ld	a5,-24(s1)
 750              	.LVL43:
 266:src/../src/my_mem.c ****     {
 751              		.loc 2 266 79 discriminator 1
 752 0450 B386F400 		add	a3,s1,a5
 266:src/../src/my_mem.c ****     {
 753              		.loc 2 266 27 discriminator 1
 754 0454 63EAE606 		bltu	a3,a4,.L55
 268:src/../src/my_mem.c ****         block_to_free->next = next->next;
 755              		.loc 2 268 9 is_stmt 1
 268:src/../src/my_mem.c ****         block_to_free->next = next->next;
 756              		.loc 2 268 65 is_stmt 0
 757 0458 83360700 		ld	a3,0(a4)
 268:src/../src/my_mem.c ****         block_to_free->next = next->next;
 758              		.loc 2 268 29
 759 045c B387D700 		add	a5,a5,a3
 760 0460 93878701 		addi	a5,a5,24
 761 0464 23B4F4FE 		sd	a5,-24(s1)
 269:src/../src/my_mem.c **** 
 762              		.loc 2 269 9 is_stmt 1
 269:src/../src/my_mem.c **** 
 763              		.loc 2 269 37 is_stmt 0
 764 0468 83370701 		ld	a5,16(a4)
 269:src/../src/my_mem.c **** 
 765              		.loc 2 269 29
 766 046c 23BCF4FE 		sd	a5,-8(s1)
 271:src/../src/my_mem.c ****             next->next->prev = block_to_free;
 767              		.loc 2 271 9 is_stmt 1
GAS LISTING /tmp/cc0HOBux.s 			page 22


 768 0470 638A0706 		beqz	a5,.L56
 272:src/../src/my_mem.c ****     }
 769              		.loc 2 272 13
 272:src/../src/my_mem.c ****     }
 770              		.loc 2 272 30 is_stmt 0
 771 0474 23B42701 		sd	s2,8(a5)
 772              	.LVL44:
 773              		.loc 2 275 12
 774 0478 13050000 		li	a0,0
 775 047c 6F000005 		j	.L43
 776              	.LVL45:
 777              	.L46:
 778              		.cfi_def_cfa_register 2
 779              		.cfi_restore 1
 780              		.cfi_restore 8
 781              		.cfi_restore 9
 782              		.cfi_restore 18
 228:src/../src/my_mem.c **** 
 783              		.loc 2 228 17
 784 0480 1305F0FF 		li	a0,-1
 785              	.LVL46:
 276:src/../src/my_mem.c **** }...
 786              		.loc 2 276 1
 787 0484 67800000 		ret
 788              	.LVL47:
 789              	.L47:
 790              		.cfi_def_cfa_register 8
 791              		.cfi_offset 1, -8
 792              		.cfi_offset 8, -16
 793              		.cfi_offset 9, -24
 794              		.cfi_offset 18, -32
 228:src/../src/my_mem.c **** 
 795              		.loc 2 228 17
 796 0488 1305F0FF 		li	a0,-1
 797 048c 6F000004 		j	.L43
 798              	.L48:
 231:src/../src/my_mem.c ****         return -1;
 799              		.loc 2 231 17
 800 0490 1305F0FF 		li	a0,-1
 801 0494 6F008003 		j	.L43
 802              	.L49:
 803 0498 1305F0FF 		li	a0,-1
 804 049c 6F000003 		j	.L43
 805              	.L50:
 235:src/../src/my_mem.c ****         return -1;
 806              		.loc 2 235 17
 807 04a0 1305F0FF 		li	a0,-1
 808 04a4 6F008002 		j	.L43
 809              	.LVL48:
 810              	.L51:
 275:src/../src/my_mem.c ****     return 0;
 811              		.loc 2 275 12
 812 04a8 13050000 		li	a0,0
 813 04ac 6F000002 		j	.L43
 814              	.L52:
 815 04b0 13050000 		li	a0,0
 816 04b4 6F008001 		j	.L43
GAS LISTING /tmp/cc0HOBux.s 			page 23


 817              	.LVL49:
 818              	.L53:
 819 04b8 13050000 		li	a0,0
 820 04bc 6F000001 		j	.L43
 821              	.LVL50:
 822              	.L54:
 823 04c0 13050000 		li	a0,0
 824 04c4 6F008000 		j	.L43
 825              	.LVL51:
 826              	.L55:
 827 04c8 13050000 		li	a0,0
 828              	.LVL52:
 829              	.L43:
 830              		.loc 2 276 1
 831 04cc 83308101 		ld	ra,24(sp)
 832              		.cfi_remember_state
 833              		.cfi_restore 1
 834 04d0 03340101 		ld	s0,16(sp)
 835              		.cfi_restore 8
 836              		.cfi_def_cfa 2, 32
 837 04d4 83348100 		ld	s1,8(sp)
 838              		.cfi_restore 9
 839              	.LVL53:
 840 04d8 03390100 		ld	s2,0(sp)
 841              		.cfi_restore 18
 842 04dc 13010102 		addi	sp,sp,32
 843              		.cfi_def_cfa_offset 0
 844 04e0 67800000 		jr	ra
 845              	.LVL54:
 846              	.L56:
 847              		.cfi_restore_state
 275:src/../src/my_mem.c ****     return 0;
 848              		.loc 2 275 12
 849 04e4 13050000 		li	a0,0
 850 04e8 6FF05FFE 		j	.L43
 851              		.cfi_endproc
 852              	.LFE24:
 854              		.section	.rodata.str1.8,"aMS",@progbits,1
 855              		.align	3
 856              	.LC0:
 857 0000 4D61696E 		.string	"Main Created\n"
 857      20437265 
 857      61746564 
 857      0A00
 858 000e 0000     		.align	3
 859              	.LC1:
 860 0010 55736572 		.string	"UserMain Created\n"
 860      4D61696E 
 860      20437265 
 860      61746564 
 860      0A00
 861 0022 00000000 		.align	3
 861      0000
 862              	.LC2:
 863 0028 0A5A6176 		.string	"\nZavrsio\n"
 863      7273696F 
 863      0A00
GAS LISTING /tmp/cc0HOBux.s 			page 24


 864              		.text
 865              		.align	2
 866              		.globl	main
 868              	main:
 869              	.LFB42:
  22:src/main.cpp  **** 
  23:src/main.cpp  **** int
  24:src/main.cpp  **** main()
  25:src/main.cpp  **** {
 870              		.loc 1 25 1 is_stmt 1
 871              		.cfi_startproc
 872 04ec 130101FE 		addi	sp,sp,-32
 873              		.cfi_def_cfa_offset 32
 874 04f0 233C1100 		sd	ra,24(sp)
 875 04f4 23388100 		sd	s0,16(sp)
 876              		.cfi_offset 1, -8
 877              		.cfi_offset 8, -16
 878 04f8 13040102 		addi	s0,sp,32
 879              		.cfi_def_cfa 8, 0
  26:src/main.cpp  ****     Riscv::w_stvec((uint64) &Riscv::supervisorTrap);
 880              		.loc 1 26 5
 881              		.loc 1 26 19 is_stmt 0
 882 04fc 97070000 		la	a5,_ZN5Riscv14supervisorTrapEv
 882      83B70700 
 883              	.LVL55:
 884              	.LBB31:
 885              	.LBB32:
 886              		.file 3 "src/../h/riscv.hpp"
   1:src/../h/riscv.hpp **** //
   2:src/../h/riscv.hpp **** // Created by marko on 20.4.22..
   3:src/../h/riscv.hpp **** //
   4:src/../h/riscv.hpp **** 
   5:src/../h/riscv.hpp **** #ifndef OS1_VEZBE07_RISCV_CONTEXT_SWITCH_1_SYNCHRONOUS_RISCV_HPP
   6:src/../h/riscv.hpp **** #define OS1_VEZBE07_RISCV_CONTEXT_SWITCH_1_SYNCHRONOUS_RISCV_HPP
   7:src/../h/riscv.hpp **** 
   8:src/../h/riscv.hpp **** #include "../lib/hw.h"
   9:src/../h/riscv.hpp **** 
  10:src/../h/riscv.hpp **** 
  11:src/../h/riscv.hpp **** class Riscv
  12:src/../h/riscv.hpp **** {
  13:src/../h/riscv.hpp **** public:
  14:src/../h/riscv.hpp ****     // pop sstatus.spp and sstatus.spie bits (has to be a non inline function)
  15:src/../h/riscv.hpp ****     static void popSppSpie();
  16:src/../h/riscv.hpp **** 
  17:src/../h/riscv.hpp ****     // push x3..x31 registers onto stack
  18:src/../h/riscv.hpp ****     static void pushRegisters();
  19:src/../h/riscv.hpp **** 
  20:src/../h/riscv.hpp ****     // pop x3..x31 registers from stack
  21:src/../h/riscv.hpp ****     static void popRegisters();
  22:src/../h/riscv.hpp **** 
  23:src/../h/riscv.hpp ****     // read register scause
  24:src/../h/riscv.hpp ****     static uint64 r_scause();
  25:src/../h/riscv.hpp **** 
  26:src/../h/riscv.hpp ****     // write register scause
  27:src/../h/riscv.hpp ****     static void w_scause(uint64 scause);
  28:src/../h/riscv.hpp **** 
  29:src/../h/riscv.hpp ****     // read register sepc
GAS LISTING /tmp/cc0HOBux.s 			page 25


  30:src/../h/riscv.hpp ****     static uint64 r_sepc();
  31:src/../h/riscv.hpp **** 
  32:src/../h/riscv.hpp ****     // write register sepc
  33:src/../h/riscv.hpp ****     static void w_sepc(uint64 sepc);
  34:src/../h/riscv.hpp **** 
  35:src/../h/riscv.hpp ****     // read register stvec
  36:src/../h/riscv.hpp ****     static uint64 r_stvec();
  37:src/../h/riscv.hpp **** 
  38:src/../h/riscv.hpp ****     // write register stvec
  39:src/../h/riscv.hpp ****     static void w_stvec(uint64 stvec);
  40:src/../h/riscv.hpp **** 
  41:src/../h/riscv.hpp ****     // read register stval
  42:src/../h/riscv.hpp ****     static uint64 r_stval();
  43:src/../h/riscv.hpp **** 
  44:src/../h/riscv.hpp ****     // write register stval
  45:src/../h/riscv.hpp ****     static void w_stval(uint64 stval);
  46:src/../h/riscv.hpp **** 
  47:src/../h/riscv.hpp ****     enum BitMaskSip
  48:src/../h/riscv.hpp ****     {
  49:src/../h/riscv.hpp ****         SIP_SSIP = (1 << 1),
  50:src/../h/riscv.hpp ****         SIP_STIP = (1 << 5),
  51:src/../h/riscv.hpp ****         SIP_SEIP = (1 << 9),
  52:src/../h/riscv.hpp ****     };
  53:src/../h/riscv.hpp **** 
  54:src/../h/riscv.hpp ****     // mask set register sip
  55:src/../h/riscv.hpp ****     static void ms_sip(uint64 mask);
  56:src/../h/riscv.hpp **** 
  57:src/../h/riscv.hpp ****     // mask clear register sip
  58:src/../h/riscv.hpp ****     static void mc_sip(uint64 mask);
  59:src/../h/riscv.hpp **** 
  60:src/../h/riscv.hpp ****     // read register sip
  61:src/../h/riscv.hpp ****     static uint64 r_sip();
  62:src/../h/riscv.hpp **** 
  63:src/../h/riscv.hpp ****     // write register sip
  64:src/../h/riscv.hpp ****     static void w_sip(uint64 sip);
  65:src/../h/riscv.hpp **** 
  66:src/../h/riscv.hpp ****     enum BitMaskSstatus
  67:src/../h/riscv.hpp ****     {
  68:src/../h/riscv.hpp ****         SSTATUS_SIE = (1 << 1),
  69:src/../h/riscv.hpp ****         SSTATUS_SPIE = (1 << 5),
  70:src/../h/riscv.hpp ****         SSTATUS_SPP = (1 << 8),
  71:src/../h/riscv.hpp ****     };
  72:src/../h/riscv.hpp **** 
  73:src/../h/riscv.hpp ****     // mask set register sstatus
  74:src/../h/riscv.hpp ****     static void ms_sstatus(uint64 mask);
  75:src/../h/riscv.hpp **** 
  76:src/../h/riscv.hpp ****     // mask clear register sstatus
  77:src/../h/riscv.hpp ****     static void mc_sstatus(uint64 mask);
  78:src/../h/riscv.hpp **** 
  79:src/../h/riscv.hpp ****     // read register sstatus
  80:src/../h/riscv.hpp ****     static uint64 r_sstatus();
  81:src/../h/riscv.hpp **** 
  82:src/../h/riscv.hpp ****     // write register sstatus
  83:src/../h/riscv.hpp ****     static void w_sstatus(uint64 sstatus);
  84:src/../h/riscv.hpp **** 
  85:src/../h/riscv.hpp ****     // supervisor trap
  86:src/../h/riscv.hpp ****     static void supervisorTrap();
GAS LISTING /tmp/cc0HOBux.s 			page 26


  87:src/../h/riscv.hpp **** 
  88:src/../h/riscv.hpp **** private:
  89:src/../h/riscv.hpp ****     // supervisor trap handler. Sve vezano za prekid radimo u ovoj funkciji
  90:src/../h/riscv.hpp ****     static void handleSupervisorTrap();
  91:src/../h/riscv.hpp **** 
  92:src/../h/riscv.hpp **** };
  93:src/../h/riscv.hpp **** 
  94:src/../h/riscv.hpp **** inline uint64 Riscv::r_scause()
  95:src/../h/riscv.hpp **** {
  96:src/../h/riscv.hpp ****     uint64 volatile scause;
  97:src/../h/riscv.hpp ****     __asm__ volatile ("csrr %[scause], scause" : [scause] "=r"(scause));
  98:src/../h/riscv.hpp ****     return scause;
  99:src/../h/riscv.hpp **** }
 100:src/../h/riscv.hpp **** 
 101:src/../h/riscv.hpp **** inline void Riscv::w_scause(uint64 scause)
 102:src/../h/riscv.hpp **** {
 103:src/../h/riscv.hpp ****     __asm__ volatile ("csrw scause, %[scause]" : : [scause] "r"(scause));
 104:src/../h/riscv.hpp **** }
 105:src/../h/riscv.hpp **** 
 106:src/../h/riscv.hpp **** inline uint64 Riscv::r_sepc()
 107:src/../h/riscv.hpp **** {
 108:src/../h/riscv.hpp ****     uint64 volatile sepc;
 109:src/../h/riscv.hpp ****     __asm__ volatile ("csrr %[sepc], sepc" : [sepc] "=r"(sepc));
 110:src/../h/riscv.hpp ****     return sepc;
 111:src/../h/riscv.hpp **** }
 112:src/../h/riscv.hpp **** 
 113:src/../h/riscv.hpp **** inline void Riscv::w_sepc(uint64 sepc)
 114:src/../h/riscv.hpp **** {
 115:src/../h/riscv.hpp ****     __asm__ volatile ("csrw sepc, %[sepc]" : : [sepc] "r"(sepc));
 116:src/../h/riscv.hpp **** }
 117:src/../h/riscv.hpp **** 
 118:src/../h/riscv.hpp **** inline uint64 Riscv::r_stvec()
 119:src/../h/riscv.hpp **** {
 120:src/../h/riscv.hpp ****     uint64 volatile stvec;
 121:src/../h/riscv.hpp ****     __asm__ volatile ("csrr %[stvec], stvec" : [stvec] "=r"(stvec));
 122:src/../h/riscv.hpp ****     return stvec;
 123:src/../h/riscv.hpp **** }
 124:src/../h/riscv.hpp **** 
 125:src/../h/riscv.hpp **** inline void Riscv::w_stvec(uint64 stvec)
 126:src/../h/riscv.hpp **** {
 127:src/../h/riscv.hpp ****     __asm__ volatile ("csrw stvec, %[stvec]" : : [stvec] "r"(stvec));
 887              		.loc 3 127 5 is_stmt 1
 888              		.loc 3 127 69 is_stmt 0
 889              	#APP
 890              	# 127 "src/../h/riscv.hpp" 1
 128              	}
 891              		csrw stvec, a5
 892              	# 0 "" 2
 893              	.LVL56:
 894              	#NO_APP
 895              	.LBE32:
 896              	.LBE31:
  27:src/main.cpp  **** 
  28:src/main.cpp  ****     thread_t main, user_main;
 897              		.loc 1 28 5 is_stmt 1
  29:src/main.cpp  **** 
  30:src/main.cpp  ****     thread_create(&main, nullptr, nullptr);
GAS LISTING /tmp/cc0HOBux.s 			page 27


 898              		.loc 1 30 5
 899              		.loc 1 30 18 is_stmt 0
 900 0508 13060000 		li	a2,0
 901 050c 93050000 		li	a1,0
 902 0510 130584FE 		addi	a0,s0,-24
 903 0514 97000000 		call	_Z13thread_createPP3TCBPFvPvES2_@plt
 903      E7800000 
 904              	.LVL57:
  31:src/main.cpp  ****     printString("Main Created\n");
 905              		.loc 1 31 5 is_stmt 1
 906              		.loc 1 31 16 is_stmt 0
 907 051c 17050000 		lla	a0,.LC0
 907      13050500 
 908 0524 97000000 		call	_Z11printStringPKc@plt
 908      E7800000 
 909              	.LVL58:
  32:src/main.cpp  ****     TCB::running = main;
 910              		.loc 1 32 5 is_stmt 1
 911              		.loc 1 32 18 is_stmt 0
 912 052c 97070000 		la	a5,_ZN3TCB7runningE
 912      83B70700 
 913 0534 033784FE 		ld	a4,-24(s0)
 914 0538 23B0E700 		sd	a4,0(a5)
  33:src/main.cpp  **** 
  34:src/main.cpp  ****     thread_create(&user_main, helper, nullptr);
 915              		.loc 1 34 5 is_stmt 1
 916              		.loc 1 34 18 is_stmt 0
 917 053c 13060000 		li	a2,0
 918 0540 97050000 		lla	a1,_Z6helperPv
 918      93850500 
 919 0548 130504FE 		addi	a0,s0,-32
 920 054c 97000000 		call	_Z13thread_createPP3TCBPFvPvES2_@plt
 920      E7800000 
 921              	.LVL59:
  35:src/main.cpp  ****     printString("UserMain Created\n");
 922              		.loc 1 35 5 is_stmt 1
 923              		.loc 1 35 16 is_stmt 0
 924 0554 17050000 		lla	a0,.LC1
 924      13050500 
 925 055c 97000000 		call	_Z11printStringPKc@plt
 925      E7800000 
 926              	.LVL60:
 927              	.L63:
  36:src/main.cpp  **** 
  37:src/main.cpp  ****     while (!done)
 928              		.loc 1 37 5 is_stmt 1
 929              		.loc 1 37 12
 930 0564 97070000 		lbu	a5,.LANCHOR0
 930      83C70700 
 931 056c 63980700 		bnez	a5,.L62
  38:src/main.cpp  ****         thread_dispatch();
 932              		.loc 1 38 9
 933              		.loc 1 38 24 is_stmt 0
 934 0570 97000000 		call	_Z15thread_dispatchv@plt
 934      E7800000 
 935              	.LVL61:
 936 0578 6FF0DFFE 		j	.L63
GAS LISTING /tmp/cc0HOBux.s 			page 28


 937              	.L62:
  39:src/main.cpp  **** 
  40:src/main.cpp  ****     printString("\nZavrsio\n");
 938              		.loc 1 40 5 is_stmt 1
 939              		.loc 1 40 16 is_stmt 0
 940 057c 17050000 		lla	a0,.LC2
 940      13050500 
 941 0584 97000000 		call	_Z11printStringPKc@plt
 941      E7800000 
 942              	.LVL62:
  41:src/main.cpp  ****     return 0;
 943              		.loc 1 41 5 is_stmt 1
  42:src/main.cpp  **** }
 944              		.loc 1 42 1 is_stmt 0
 945 058c 13050000 		li	a0,0
 946 0590 83308101 		ld	ra,24(sp)
 947              		.cfi_restore 1
 948 0594 03340101 		ld	s0,16(sp)
 949              		.cfi_restore 8
 950              		.cfi_def_cfa 2, 32
 951 0598 13010102 		addi	sp,sp,32
 952              		.cfi_def_cfa_offset 0
 953 059c 67800000 		jr	ra
 954              		.cfi_endproc
 955              	.LFE42:
 957              		.globl	done
 958              		.bss
 959              		.align	3
 960              		.set	.LANCHOR0,. + 0
 963              	done:
 964 0000 00       		.zero	1
 965 0001 00000000 		.zero	7
 965      000000
 968              	_ZL13free_mem_head:
 969 0008 00000000 		.zero	8
 969      00000000 
 972              	_ZL13used_mem_head:
 973 0010 00000000 		.zero	8
 973      00000000 
 976              	_ZL9beginning:
 977 0018 00000000 		.zero	4
 978              		.text
 979              	.Letext0:
 980              		.file 4 "src/../h/../lib/hw.h"
 981              		.file 5 "src/../h/tcb.hpp"
 982              		.file 6 "src/../test/../h/syscall_c.h"
 983              		.file 7 "src/../test/printing.hpp"
GAS LISTING /tmp/cc0HOBux.s 			page 29


DEFINED SYMBOLS
                            *ABS*:0000000000000000 main.cpp
     /tmp/cc0HOBux.s:9      .text:0000000000000000 _Z6helperPv
     /tmp/cc0HOBux.s:13     .text:0000000000000000 .L0 
     /tmp/cc0HOBux.s:15     .text:0000000000000000 .L0 
     /tmp/cc0HOBux.s:16     .text:0000000000000004 .L0 
     /tmp/cc0HOBux.s:19     .text:000000000000000c .L0 
     /tmp/cc0HOBux.s:20     .text:000000000000000c .L0 
     /tmp/cc0HOBux.s:22     .text:0000000000000010 .L0 
     /tmp/cc0HOBux.s:24     .text:0000000000000010 .L0 
     /tmp/cc0HOBux.s:25     .text:0000000000000010 .L0 
     /tmp/cc0HOBux.s:28     .text:0000000000000018 .L0 
     /tmp/cc0HOBux.s:29     .text:0000000000000018 .L0 
     /tmp/cc0HOBux.s:32     .text:0000000000000024 .L0 
     /tmp/cc0HOBux.s:33     .text:0000000000000028 .L0 
     /tmp/cc0HOBux.s:35     .text:000000000000002c .L0 
     /tmp/cc0HOBux.s:36     .text:000000000000002c .L0 
     /tmp/cc0HOBux.s:38     .text:0000000000000030 .L0 
     /tmp/cc0HOBux.s:40     .text:0000000000000034 .L0 
     /tmp/cc0HOBux.s:46     .text:0000000000000034 _Z11free_insertP9mem_block
     /tmp/cc0HOBux.s:50     .text:0000000000000034 .L0 
     /tmp/cc0HOBux.s:52     .text:0000000000000034 .L0 
     /tmp/cc0HOBux.s:53     .text:0000000000000038 .L0 
     /tmp/cc0HOBux.s:55     .text:000000000000003c .L0 
     /tmp/cc0HOBux.s:57     .text:0000000000000040 .L0 
     /tmp/cc0HOBux.s:59     .text:0000000000000040 .L0 
     /tmp/cc0HOBux.s:60     .text:0000000000000040 .L0 
     /tmp/cc0HOBux.s:63     .text:000000000000004c .L0 
     /tmp/cc0HOBux.s:65     .text:0000000000000050 .L0 
     /tmp/cc0HOBux.s:68     .text:000000000000005c .L0 
     /tmp/cc0HOBux.s:71     .text:0000000000000060 .L0 
     /tmp/cc0HOBux.s:72     .text:0000000000000060 .L0 
     /tmp/cc0HOBux.s:74     .text:0000000000000068 .L0 
     /tmp/cc0HOBux.s:79     .text:000000000000006c .L0 
     /tmp/cc0HOBux.s:81     .text:0000000000000070 .L0 
     /tmp/cc0HOBux.s:82     .text:0000000000000070 .L0 
     /tmp/cc0HOBux.s:84     .text:0000000000000074 .L0 
     /tmp/cc0HOBux.s:85     .text:0000000000000074 .L0 
     /tmp/cc0HOBux.s:87     .text:0000000000000078 .L0 
     /tmp/cc0HOBux.s:88     .text:0000000000000078 .L0 
     /tmp/cc0HOBux.s:90     .text:000000000000007c .L0 
     /tmp/cc0HOBux.s:91     .text:000000000000007c .L0 
     /tmp/cc0HOBux.s:96     .text:0000000000000084 .L0 
     /tmp/cc0HOBux.s:97     .text:0000000000000088 .L0 
     /tmp/cc0HOBux.s:98     .text:0000000000000088 .L0 
     /tmp/cc0HOBux.s:99     .text:0000000000000088 .L0 
     /tmp/cc0HOBux.s:101    .text:000000000000008c .L0 
     /tmp/cc0HOBux.s:104    .text:0000000000000090 .L0 
     /tmp/cc0HOBux.s:107    .text:0000000000000090 .L0 
     /tmp/cc0HOBux.s:108    .text:0000000000000090 .L0 
     /tmp/cc0HOBux.s:115    .text:000000000000009c .L0 
     /tmp/cc0HOBux.s:116    .text:000000000000009c .L0 
     /tmp/cc0HOBux.s:117    .text:000000000000009c .L0 
     /tmp/cc0HOBux.s:121    .text:00000000000000a0 .L0 
     /tmp/cc0HOBux.s:122    .text:00000000000000a0 .L0 
     /tmp/cc0HOBux.s:124    .text:00000000000000a4 .L0 
     /tmp/cc0HOBux.s:127    .text:00000000000000a8 .L0 
GAS LISTING /tmp/cc0HOBux.s 			page 30


     /tmp/cc0HOBux.s:128    .text:00000000000000a8 .L0 
     /tmp/cc0HOBux.s:129    .text:00000000000000a8 .L0 
     /tmp/cc0HOBux.s:131    .text:00000000000000ac .L0 
     /tmp/cc0HOBux.s:134    .text:00000000000000b0 .L0 
     /tmp/cc0HOBux.s:137    .text:00000000000000b4 .L0 
     /tmp/cc0HOBux.s:138    .text:00000000000000b4 .L0 
     /tmp/cc0HOBux.s:140    .text:00000000000000b8 .L0 
     /tmp/cc0HOBux.s:141    .text:00000000000000b8 .L0 
     /tmp/cc0HOBux.s:143    .text:00000000000000bc .L0 
     /tmp/cc0HOBux.s:144    .text:00000000000000bc .L0 
     /tmp/cc0HOBux.s:146    .text:00000000000000c0 .L0 
     /tmp/cc0HOBux.s:148    .text:00000000000000c4 .L0 
     /tmp/cc0HOBux.s:149    .text:00000000000000c4 .L0 
     /tmp/cc0HOBux.s:154    .text:00000000000000cc .L0 
     /tmp/cc0HOBux.s:160    .text:00000000000000cc _Z11free_removeP9mem_block
     /tmp/cc0HOBux.s:163    .text:00000000000000cc .L0 
     /tmp/cc0HOBux.s:165    .text:00000000000000cc .L0 
     /tmp/cc0HOBux.s:166    .text:00000000000000d0 .L0 
     /tmp/cc0HOBux.s:168    .text:00000000000000d4 .L0 
     /tmp/cc0HOBux.s:170    .text:00000000000000d8 .L0 
     /tmp/cc0HOBux.s:172    .text:00000000000000d8 .L0 
     /tmp/cc0HOBux.s:173    .text:00000000000000d8 .L0 
     /tmp/cc0HOBux.s:175    .text:00000000000000e0 .L0 
     /tmp/cc0HOBux.s:177    .text:00000000000000e4 .L0 
     /tmp/cc0HOBux.s:179    .text:00000000000000e8 .L0 
     /tmp/cc0HOBux.s:181    .text:00000000000000ec .L0 
     /tmp/cc0HOBux.s:182    .text:00000000000000ec .L0 
     /tmp/cc0HOBux.s:184    .text:00000000000000f0 .L0 
     /tmp/cc0HOBux.s:186    .text:00000000000000f4 .L0 
     /tmp/cc0HOBux.s:188    .text:00000000000000f8 .L0 
     /tmp/cc0HOBux.s:190    .text:00000000000000fc .L0 
     /tmp/cc0HOBux.s:191    .text:00000000000000fc .L0 
     /tmp/cc0HOBux.s:193    .text:0000000000000100 .L0 
     /tmp/cc0HOBux.s:196    .text:0000000000000104 .L0 
     /tmp/cc0HOBux.s:197    .text:0000000000000104 .L0 
     /tmp/cc0HOBux.s:199    .text:0000000000000108 .L0 
     /tmp/cc0HOBux.s:200    .text:0000000000000108 .L0 
     /tmp/cc0HOBux.s:203    .text:000000000000010c .L0 
     /tmp/cc0HOBux.s:204    .text:0000000000000110 .L0 
     /tmp/cc0HOBux.s:205    .text:0000000000000110 .L0 
     /tmp/cc0HOBux.s:206    .text:0000000000000110 .L0 
     /tmp/cc0HOBux.s:208    .text:0000000000000114 .L0 
     /tmp/cc0HOBux.s:211    .text:0000000000000118 .L0 
     /tmp/cc0HOBux.s:213    .text:0000000000000118 .L0 
     /tmp/cc0HOBux.s:214    .text:0000000000000118 .L0 
     /tmp/cc0HOBux.s:216    .text:000000000000011c .L0 
     /tmp/cc0HOBux.s:218    .text:0000000000000124 .L0 
     /tmp/cc0HOBux.s:220    .text:0000000000000128 .L0 
     /tmp/cc0HOBux.s:221    .text:0000000000000128 .L0 
     /tmp/cc0HOBux.s:223    .text:0000000000000130 .L0 
     /tmp/cc0HOBux.s:229    .text:0000000000000130 _Z11used_insertP9mem_block
     /tmp/cc0HOBux.s:232    .text:0000000000000130 .L0 
     /tmp/cc0HOBux.s:234    .text:0000000000000130 .L0 
     /tmp/cc0HOBux.s:235    .text:0000000000000134 .L0 
     /tmp/cc0HOBux.s:237    .text:0000000000000138 .L0 
     /tmp/cc0HOBux.s:239    .text:000000000000013c .L0 
     /tmp/cc0HOBux.s:241    .text:000000000000013c .L0 
GAS LISTING /tmp/cc0HOBux.s 			page 31


     /tmp/cc0HOBux.s:242    .text:000000000000013c .L0 
     /tmp/cc0HOBux.s:245    .text:0000000000000148 .L0 
     /tmp/cc0HOBux.s:247    .text:000000000000014c .L0 
     /tmp/cc0HOBux.s:250    .text:0000000000000158 .L0 
     /tmp/cc0HOBux.s:253    .text:000000000000015c .L0 
     /tmp/cc0HOBux.s:254    .text:000000000000015c .L0 
     /tmp/cc0HOBux.s:256    .text:0000000000000164 .L0 
     /tmp/cc0HOBux.s:261    .text:0000000000000168 .L0 
     /tmp/cc0HOBux.s:263    .text:000000000000016c .L0 
     /tmp/cc0HOBux.s:264    .text:000000000000016c .L0 
     /tmp/cc0HOBux.s:266    .text:0000000000000170 .L0 
     /tmp/cc0HOBux.s:267    .text:0000000000000170 .L0 
     /tmp/cc0HOBux.s:269    .text:0000000000000174 .L0 
     /tmp/cc0HOBux.s:270    .text:0000000000000174 .L0 
     /tmp/cc0HOBux.s:272    .text:0000000000000178 .L0 
     /tmp/cc0HOBux.s:273    .text:0000000000000178 .L0 
     /tmp/cc0HOBux.s:278    .text:0000000000000180 .L0 
     /tmp/cc0HOBux.s:279    .text:0000000000000184 .L0 
     /tmp/cc0HOBux.s:280    .text:0000000000000184 .L0 
     /tmp/cc0HOBux.s:281    .text:0000000000000184 .L0 
     /tmp/cc0HOBux.s:283    .text:0000000000000188 .L0 
     /tmp/cc0HOBux.s:286    .text:000000000000018c .L0 
     /tmp/cc0HOBux.s:289    .text:000000000000018c .L0 
     /tmp/cc0HOBux.s:290    .text:000000000000018c .L0 
     /tmp/cc0HOBux.s:297    .text:0000000000000198 .L0 
     /tmp/cc0HOBux.s:298    .text:0000000000000198 .L0 
     /tmp/cc0HOBux.s:299    .text:0000000000000198 .L0 
     /tmp/cc0HOBux.s:303    .text:000000000000019c .L0 
     /tmp/cc0HOBux.s:304    .text:000000000000019c .L0 
     /tmp/cc0HOBux.s:306    .text:00000000000001a0 .L0 
     /tmp/cc0HOBux.s:309    .text:00000000000001a4 .L0 
     /tmp/cc0HOBux.s:310    .text:00000000000001a4 .L0 
     /tmp/cc0HOBux.s:311    .text:00000000000001a4 .L0 
     /tmp/cc0HOBux.s:313    .text:00000000000001a8 .L0 
     /tmp/cc0HOBux.s:316    .text:00000000000001ac .L0 
     /tmp/cc0HOBux.s:319    .text:00000000000001b0 .L0 
     /tmp/cc0HOBux.s:320    .text:00000000000001b0 .L0 
     /tmp/cc0HOBux.s:322    .text:00000000000001b4 .L0 
     /tmp/cc0HOBux.s:323    .text:00000000000001b4 .L0 
     /tmp/cc0HOBux.s:325    .text:00000000000001b8 .L0 
     /tmp/cc0HOBux.s:326    .text:00000000000001b8 .L0 
     /tmp/cc0HOBux.s:328    .text:00000000000001bc .L0 
     /tmp/cc0HOBux.s:330    .text:00000000000001c0 .L0 
     /tmp/cc0HOBux.s:331    .text:00000000000001c0 .L0 
     /tmp/cc0HOBux.s:336    .text:00000000000001c8 .L0 
     /tmp/cc0HOBux.s:342    .text:00000000000001c8 _Z11used_removeP9mem_block
     /tmp/cc0HOBux.s:345    .text:00000000000001c8 .L0 
     /tmp/cc0HOBux.s:347    .text:00000000000001c8 .L0 
     /tmp/cc0HOBux.s:348    .text:00000000000001cc .L0 
     /tmp/cc0HOBux.s:350    .text:00000000000001d0 .L0 
     /tmp/cc0HOBux.s:352    .text:00000000000001d4 .L0 
     /tmp/cc0HOBux.s:354    .text:00000000000001d4 .L0 
     /tmp/cc0HOBux.s:355    .text:00000000000001d4 .L0 
     /tmp/cc0HOBux.s:357    .text:00000000000001dc .L0 
     /tmp/cc0HOBux.s:359    .text:00000000000001e0 .L0 
     /tmp/cc0HOBux.s:361    .text:00000000000001e4 .L0 
     /tmp/cc0HOBux.s:363    .text:00000000000001e8 .L0 
GAS LISTING /tmp/cc0HOBux.s 			page 32


     /tmp/cc0HOBux.s:364    .text:00000000000001e8 .L0 
     /tmp/cc0HOBux.s:366    .text:00000000000001ec .L0 
     /tmp/cc0HOBux.s:368    .text:00000000000001f0 .L0 
     /tmp/cc0HOBux.s:370    .text:00000000000001f4 .L0 
     /tmp/cc0HOBux.s:372    .text:00000000000001f8 .L0 
     /tmp/cc0HOBux.s:373    .text:00000000000001f8 .L0 
     /tmp/cc0HOBux.s:375    .text:00000000000001fc .L0 
     /tmp/cc0HOBux.s:378    .text:0000000000000200 .L0 
     /tmp/cc0HOBux.s:379    .text:0000000000000200 .L0 
     /tmp/cc0HOBux.s:381    .text:0000000000000204 .L0 
     /tmp/cc0HOBux.s:382    .text:0000000000000204 .L0 
     /tmp/cc0HOBux.s:385    .text:0000000000000208 .L0 
     /tmp/cc0HOBux.s:386    .text:000000000000020c .L0 
     /tmp/cc0HOBux.s:387    .text:000000000000020c .L0 
     /tmp/cc0HOBux.s:388    .text:000000000000020c .L0 
     /tmp/cc0HOBux.s:390    .text:0000000000000210 .L0 
     /tmp/cc0HOBux.s:393    .text:0000000000000214 .L0 
     /tmp/cc0HOBux.s:395    .text:0000000000000214 .L0 
     /tmp/cc0HOBux.s:396    .text:0000000000000214 .L0 
     /tmp/cc0HOBux.s:398    .text:0000000000000218 .L0 
     /tmp/cc0HOBux.s:400    .text:0000000000000220 .L0 
     /tmp/cc0HOBux.s:402    .text:0000000000000224 .L0 
     /tmp/cc0HOBux.s:403    .text:0000000000000224 .L0 
     /tmp/cc0HOBux.s:405    .text:000000000000022c .L0 
     /tmp/cc0HOBux.s:411    .text:000000000000022c _Z11__mem_allocm
     /tmp/cc0HOBux.s:414    .text:000000000000022c .L0 
     /tmp/cc0HOBux.s:416    .text:000000000000022c .L0 
     /tmp/cc0HOBux.s:417    .text:0000000000000230 .L0 
     /tmp/cc0HOBux.s:422    .text:0000000000000240 .L0 
     /tmp/cc0HOBux.s:423    .text:0000000000000240 .L0 
     /tmp/cc0HOBux.s:424    .text:0000000000000240 .L0 
     /tmp/cc0HOBux.s:425    .text:0000000000000240 .L0 
     /tmp/cc0HOBux.s:427    .text:0000000000000244 .L0 
     /tmp/cc0HOBux.s:429    .text:0000000000000244 .L0 
     /tmp/cc0HOBux.s:430    .text:0000000000000244 .L0 
     /tmp/cc0HOBux.s:432    .text:000000000000024c .L0 
     /tmp/cc0HOBux.s:435    .text:0000000000000250 .L0 
     /tmp/cc0HOBux.s:436    .text:0000000000000250 .L0 
     /tmp/cc0HOBux.s:438    .text:0000000000000254 .L0 
     /tmp/cc0HOBux.s:440    .text:0000000000000258 .L0 
     /tmp/cc0HOBux.s:443    .text:000000000000025c .L0 
     /tmp/cc0HOBux.s:447    .text:0000000000000260 .L0 
     /tmp/cc0HOBux.s:448    .text:0000000000000260 .L0 
     /tmp/cc0HOBux.s:452    .text:0000000000000264 .L0 
     /tmp/cc0HOBux.s:453    .text:0000000000000264 .L0 
     /tmp/cc0HOBux.s:460    .text:0000000000000270 .L0 
     /tmp/cc0HOBux.s:462    .text:0000000000000278 .L0 
     /tmp/cc0HOBux.s:464    .text:000000000000027c .L0 
     /tmp/cc0HOBux.s:465    .text:000000000000027c .L0 
     /tmp/cc0HOBux.s:469    .text:000000000000028c .L0 
     /tmp/cc0HOBux.s:470    .text:000000000000028c .L0 
     /tmp/cc0HOBux.s:474    .text:000000000000029c .L0 
     /tmp/cc0HOBux.s:475    .text:000000000000029c .L0 
     /tmp/cc0HOBux.s:479    .text:00000000000002ac .L0 
     /tmp/cc0HOBux.s:481    .text:00000000000002b0 .L0 
     /tmp/cc0HOBux.s:483    .text:00000000000002b4 .L0 
     /tmp/cc0HOBux.s:484    .text:00000000000002b4 .L0 
GAS LISTING /tmp/cc0HOBux.s 			page 33


     /tmp/cc0HOBux.s:486    .text:00000000000002b8 .L0 
     /tmp/cc0HOBux.s:487    .text:00000000000002b8 .L0 
     /tmp/cc0HOBux.s:491    .text:00000000000002c0 .L0 
     /tmp/cc0HOBux.s:499    .text:00000000000002c8 .L0 
     /tmp/cc0HOBux.s:500    .text:00000000000002c8 .L0 
     /tmp/cc0HOBux.s:504    .text:00000000000002d4 .L0 
     /tmp/cc0HOBux.s:505    .text:00000000000002d4 .L0 
     /tmp/cc0HOBux.s:509    .text:00000000000002e0 .L0 
     /tmp/cc0HOBux.s:510    .text:00000000000002e0 .L0 
     /tmp/cc0HOBux.s:517    .text:00000000000002e4 .L0 
     /tmp/cc0HOBux.s:519    .text:00000000000002ec .L0 
     /tmp/cc0HOBux.s:520    .text:00000000000002ec .L0 
     /tmp/cc0HOBux.s:522    .text:00000000000002f0 .L0 
     /tmp/cc0HOBux.s:523    .text:00000000000002f0 .L0 
     /tmp/cc0HOBux.s:525    .text:00000000000002f4 .L0 
     /tmp/cc0HOBux.s:527    .text:00000000000002f8 .L0 
     /tmp/cc0HOBux.s:530    .text:00000000000002fc .L0 
     /tmp/cc0HOBux.s:534    .text:0000000000000300 .L0 
     /tmp/cc0HOBux.s:537    .text:0000000000000300 .L0 
     /tmp/cc0HOBux.s:538    .text:0000000000000300 .L0 
     /tmp/cc0HOBux.s:542    .text:0000000000000304 .L0 
     /tmp/cc0HOBux.s:547    .text:0000000000000308 .L0 
     /tmp/cc0HOBux.s:548    .text:0000000000000308 .L0 
     /tmp/cc0HOBux.s:550    .text:000000000000030c .L0 
     /tmp/cc0HOBux.s:557    .text:0000000000000310 .L0 
     /tmp/cc0HOBux.s:566    .text:0000000000000314 .L0 
     /tmp/cc0HOBux.s:569    .text:0000000000000318 .L0 
     /tmp/cc0HOBux.s:570    .text:0000000000000318 .L0 
     /tmp/cc0HOBux.s:574    .text:0000000000000324 .L0 
     /tmp/cc0HOBux.s:575    .text:0000000000000324 .L0 
     /tmp/cc0HOBux.s:577    .text:0000000000000328 .L0 
     /tmp/cc0HOBux.s:580    .text:000000000000032c .L0 
     /tmp/cc0HOBux.s:581    .text:000000000000032c .L0 
     /tmp/cc0HOBux.s:584    .text:0000000000000330 .L0 
     /tmp/cc0HOBux.s:585    .text:0000000000000330 .L0 
     /tmp/cc0HOBux.s:587    .text:0000000000000334 .L0 
     /tmp/cc0HOBux.s:590    .text:0000000000000338 .L0 
     /tmp/cc0HOBux.s:591    .text:0000000000000338 .L0 
     /tmp/cc0HOBux.s:593    .text:000000000000033c .L0 
     /tmp/cc0HOBux.s:594    .text:000000000000033c .L0 
     /tmp/cc0HOBux.s:596    .text:0000000000000340 .L0 
     /tmp/cc0HOBux.s:597    .text:0000000000000340 .L0 
     /tmp/cc0HOBux.s:599    .text:0000000000000344 .L0 
     /tmp/cc0HOBux.s:600    .text:0000000000000344 .L0 
     /tmp/cc0HOBux.s:602    .text:0000000000000348 .L0 
     /tmp/cc0HOBux.s:603    .text:0000000000000348 .L0 
     /tmp/cc0HOBux.s:606    .text:0000000000000350 .L0 
     /tmp/cc0HOBux.s:607    .text:0000000000000350 .L0 
     /tmp/cc0HOBux.s:611    .text:000000000000035c .L0 
     /tmp/cc0HOBux.s:612    .text:000000000000035c .L0 
     /tmp/cc0HOBux.s:620    .text:0000000000000364 .L0 
     /tmp/cc0HOBux.s:626    .text:0000000000000364 _Z10__mem_freePv
     /tmp/cc0HOBux.s:629    .text:0000000000000364 .L0 
     /tmp/cc0HOBux.s:631    .text:0000000000000364 .L0 
     /tmp/cc0HOBux.s:632    .text:0000000000000364 .L0 
     /tmp/cc0HOBux.s:634    .text:0000000000000368 .L0 
     /tmp/cc0HOBux.s:635    .text:000000000000036c .L0 
GAS LISTING /tmp/cc0HOBux.s 			page 34


     /tmp/cc0HOBux.s:640    .text:000000000000037c .L0 
     /tmp/cc0HOBux.s:641    .text:000000000000037c .L0 
     /tmp/cc0HOBux.s:642    .text:000000000000037c .L0 
     /tmp/cc0HOBux.s:643    .text:000000000000037c .L0 
     /tmp/cc0HOBux.s:645    .text:0000000000000380 .L0 
     /tmp/cc0HOBux.s:648    .text:0000000000000384 .L0 
     /tmp/cc0HOBux.s:650    .text:000000000000038c .L0 
     /tmp/cc0HOBux.s:652    .text:0000000000000390 .L0 
     /tmp/cc0HOBux.s:653    .text:0000000000000390 .L0 
     /tmp/cc0HOBux.s:656    .text:000000000000039c .L0 
     /tmp/cc0HOBux.s:658    .text:00000000000003a0 .L0 
     /tmp/cc0HOBux.s:661    .text:00000000000003ac .L0 
     /tmp/cc0HOBux.s:663    .text:00000000000003b0 .L0 
     /tmp/cc0HOBux.s:665    .text:00000000000003b4 .L0 
     /tmp/cc0HOBux.s:666    .text:00000000000003b4 .L0 
     /tmp/cc0HOBux.s:669    .text:00000000000003b8 .L0 
     /tmp/cc0HOBux.s:670    .text:00000000000003b8 .L0 
     /tmp/cc0HOBux.s:675    .text:00000000000003c4 .L0 
     /tmp/cc0HOBux.s:676    .text:00000000000003c4 .L0 
     /tmp/cc0HOBux.s:680    .text:00000000000003d0 .L0 
     /tmp/cc0HOBux.s:681    .text:00000000000003d0 .L0 
     /tmp/cc0HOBux.s:684    .text:00000000000003d4 .L0 
     /tmp/cc0HOBux.s:685    .text:00000000000003d4 .L0 
     /tmp/cc0HOBux.s:688    .text:00000000000003d8 .L0 
     /tmp/cc0HOBux.s:690    .text:00000000000003dc .L0 
     /tmp/cc0HOBux.s:692    .text:00000000000003e0 .L0 
     /tmp/cc0HOBux.s:695    .text:00000000000003e8 .L0 
     /tmp/cc0HOBux.s:697    .text:00000000000003ec .L0 
     /tmp/cc0HOBux.s:698    .text:00000000000003ec .L0 
     /tmp/cc0HOBux.s:700    .text:00000000000003f0 .L0 
     /tmp/cc0HOBux.s:704    .text:00000000000003fc .L0 
     /tmp/cc0HOBux.s:705    .text:00000000000003fc .L0 
     /tmp/cc0HOBux.s:707    .text:0000000000000400 .L0 
     /tmp/cc0HOBux.s:709    .text:0000000000000404 .L0 
     /tmp/cc0HOBux.s:711    .text:0000000000000408 .L0 
     /tmp/cc0HOBux.s:712    .text:0000000000000408 .L0 
     /tmp/cc0HOBux.s:715    .text:000000000000040c .L0 
     /tmp/cc0HOBux.s:717    .text:0000000000000410 .L0 
     /tmp/cc0HOBux.s:719    .text:0000000000000414 .L0 
     /tmp/cc0HOBux.s:722    .text:000000000000041c .L0 
     /tmp/cc0HOBux.s:724    .text:0000000000000420 .L0 
     /tmp/cc0HOBux.s:725    .text:0000000000000420 .L0 
     /tmp/cc0HOBux.s:727    .text:0000000000000424 .L0 
     /tmp/cc0HOBux.s:731    .text:0000000000000430 .L0 
     /tmp/cc0HOBux.s:732    .text:0000000000000430 .L0 
     /tmp/cc0HOBux.s:735    .text:0000000000000434 .L0 
     /tmp/cc0HOBux.s:737    .text:0000000000000438 .L0 
     /tmp/cc0HOBux.s:739    .text:000000000000043c .L0 
     /tmp/cc0HOBux.s:740    .text:000000000000043c .L0 
     /tmp/cc0HOBux.s:742    .text:0000000000000440 .L0 
     /tmp/cc0HOBux.s:747    .text:0000000000000448 .L0 
     /tmp/cc0HOBux.s:749    .text:000000000000044c .L0 
     /tmp/cc0HOBux.s:752    .text:0000000000000450 .L0 
     /tmp/cc0HOBux.s:754    .text:0000000000000454 .L0 
     /tmp/cc0HOBux.s:756    .text:0000000000000458 .L0 
     /tmp/cc0HOBux.s:757    .text:0000000000000458 .L0 
     /tmp/cc0HOBux.s:759    .text:000000000000045c .L0 
GAS LISTING /tmp/cc0HOBux.s 			page 35


     /tmp/cc0HOBux.s:763    .text:0000000000000468 .L0 
     /tmp/cc0HOBux.s:764    .text:0000000000000468 .L0 
     /tmp/cc0HOBux.s:766    .text:000000000000046c .L0 
     /tmp/cc0HOBux.s:768    .text:0000000000000470 .L0 
     /tmp/cc0HOBux.s:770    .text:0000000000000474 .L0 
     /tmp/cc0HOBux.s:771    .text:0000000000000474 .L0 
     /tmp/cc0HOBux.s:774    .text:0000000000000478 .L0 
     /tmp/cc0HOBux.s:778    .text:0000000000000480 .L0 
     /tmp/cc0HOBux.s:779    .text:0000000000000480 .L0 
     /tmp/cc0HOBux.s:780    .text:0000000000000480 .L0 
     /tmp/cc0HOBux.s:781    .text:0000000000000480 .L0 
     /tmp/cc0HOBux.s:782    .text:0000000000000480 .L0 
     /tmp/cc0HOBux.s:784    .text:0000000000000480 .L0 
     /tmp/cc0HOBux.s:787    .text:0000000000000484 .L0 
     /tmp/cc0HOBux.s:790    .text:0000000000000488 .L0 
     /tmp/cc0HOBux.s:791    .text:0000000000000488 .L0 
     /tmp/cc0HOBux.s:792    .text:0000000000000488 .L0 
     /tmp/cc0HOBux.s:793    .text:0000000000000488 .L0 
     /tmp/cc0HOBux.s:794    .text:0000000000000488 .L0 
     /tmp/cc0HOBux.s:796    .text:0000000000000488 .L0 
     /tmp/cc0HOBux.s:800    .text:0000000000000490 .L0 
     /tmp/cc0HOBux.s:807    .text:00000000000004a0 .L0 
     /tmp/cc0HOBux.s:812    .text:00000000000004a8 .L0 
     /tmp/cc0HOBux.s:831    .text:00000000000004cc .L0 
     /tmp/cc0HOBux.s:832    .text:00000000000004d0 .L0 
     /tmp/cc0HOBux.s:833    .text:00000000000004d0 .L0 
     /tmp/cc0HOBux.s:835    .text:00000000000004d4 .L0 
     /tmp/cc0HOBux.s:836    .text:00000000000004d4 .L0 
     /tmp/cc0HOBux.s:838    .text:00000000000004d8 .L0 
     /tmp/cc0HOBux.s:841    .text:00000000000004dc .L0 
     /tmp/cc0HOBux.s:843    .text:00000000000004e0 .L0 
     /tmp/cc0HOBux.s:847    .text:00000000000004e4 .L0 
     /tmp/cc0HOBux.s:849    .text:00000000000004e4 .L0 
     /tmp/cc0HOBux.s:851    .text:00000000000004ec .L0 
     /tmp/cc0HOBux.s:868    .text:00000000000004ec main
     /tmp/cc0HOBux.s:871    .text:00000000000004ec .L0 
     /tmp/cc0HOBux.s:872    .text:00000000000004ec .L0 
     /tmp/cc0HOBux.s:873    .text:00000000000004f0 .L0 
     /tmp/cc0HOBux.s:876    .text:00000000000004f8 .L0 
     /tmp/cc0HOBux.s:877    .text:00000000000004f8 .L0 
     /tmp/cc0HOBux.s:879    .text:00000000000004fc .L0 
     /tmp/cc0HOBux.s:881    .text:00000000000004fc .L0 
     /tmp/cc0HOBux.s:882    .text:00000000000004fc .L0 
     /tmp/cc0HOBux.s:888    .text:0000000000000504 .L0 
  src/../h/riscv.hpp:127    .text:0000000000000504 .L0 
     /tmp/cc0HOBux.s:898    .text:0000000000000508 .L0 
     /tmp/cc0HOBux.s:899    .text:0000000000000508 .L0 
     /tmp/cc0HOBux.s:900    .text:0000000000000508 .L0 
     /tmp/cc0HOBux.s:906    .text:000000000000051c .L0 
     /tmp/cc0HOBux.s:907    .text:000000000000051c .L0 
     /tmp/cc0HOBux.s:911    .text:000000000000052c .L0 
     /tmp/cc0HOBux.s:912    .text:000000000000052c .L0 
     /tmp/cc0HOBux.s:916    .text:000000000000053c .L0 
     /tmp/cc0HOBux.s:917    .text:000000000000053c .L0 
     /tmp/cc0HOBux.s:923    .text:0000000000000554 .L0 
     /tmp/cc0HOBux.s:924    .text:0000000000000554 .L0 
     /tmp/cc0HOBux.s:929    .text:0000000000000564 .L0 
GAS LISTING /tmp/cc0HOBux.s 			page 36


     /tmp/cc0HOBux.s:930    .text:0000000000000564 .L0 
     /tmp/cc0HOBux.s:933    .text:0000000000000570 .L0 
     /tmp/cc0HOBux.s:934    .text:0000000000000570 .L0 
     /tmp/cc0HOBux.s:939    .text:000000000000057c .L0 
     /tmp/cc0HOBux.s:940    .text:000000000000057c .L0 
     /tmp/cc0HOBux.s:944    .text:000000000000058c .L0 
     /tmp/cc0HOBux.s:945    .text:000000000000058c .L0 
     /tmp/cc0HOBux.s:947    .text:0000000000000594 .L0 
     /tmp/cc0HOBux.s:949    .text:0000000000000598 .L0 
     /tmp/cc0HOBux.s:950    .text:0000000000000598 .L0 
     /tmp/cc0HOBux.s:952    .text:000000000000059c .L0 
     /tmp/cc0HOBux.s:954    .text:00000000000005a0 .L0 
     /tmp/cc0HOBux.s:963    .bss:0000000000000000 done
     /tmp/cc0HOBux.s:960    .bss:0000000000000000 .LANCHOR0
     /tmp/cc0HOBux.s:968    .bss:0000000000000008 _ZL13free_mem_head
     /tmp/cc0HOBux.s:972    .bss:0000000000000010 _ZL13used_mem_head
     /tmp/cc0HOBux.s:976    .bss:0000000000000018 _ZL9beginning
     /tmp/cc0HOBux.s:984    .text:00000000000005a0 .L0 
     /tmp/cc0HOBux.s:30     .text:000000000000001c .L0 
     /tmp/cc0HOBux.s:60     .text:0000000000000040 .L0 
     /tmp/cc0HOBux.s:65     .text:0000000000000050 .L0 
     /tmp/cc0HOBux.s:72     .text:0000000000000060 .L0 
     /tmp/cc0HOBux.s:91     .text:000000000000007c .L0 
     /tmp/cc0HOBux.s:108    .text:0000000000000090 .L0 
     /tmp/cc0HOBux.s:173    .text:00000000000000d8 .L0 
     /tmp/cc0HOBux.s:216    .text:000000000000011c .L0 
     /tmp/cc0HOBux.s:242    .text:000000000000013c .L0 
     /tmp/cc0HOBux.s:247    .text:000000000000014c .L0 
     /tmp/cc0HOBux.s:254    .text:000000000000015c .L0 
     /tmp/cc0HOBux.s:273    .text:0000000000000178 .L0 
     /tmp/cc0HOBux.s:290    .text:000000000000018c .L0 
     /tmp/cc0HOBux.s:355    .text:00000000000001d4 .L0 
     /tmp/cc0HOBux.s:398    .text:0000000000000218 .L0 
     /tmp/cc0HOBux.s:430    .text:0000000000000244 .L0 
     /tmp/cc0HOBux.s:453    .text:0000000000000264 .L0 
     /tmp/cc0HOBux.s:460    .text:0000000000000270 .L0 
     /tmp/cc0HOBux.s:465    .text:000000000000027c .L0 
     /tmp/cc0HOBux.s:470    .text:000000000000028c .L0 
     /tmp/cc0HOBux.s:475    .text:000000000000029c .L0 
     /tmp/cc0HOBux.s:648    .text:0000000000000384 .L0 
     /tmp/cc0HOBux.s:653    .text:0000000000000390 .L0 
     /tmp/cc0HOBux.s:658    .text:00000000000003a0 .L0 
     /tmp/cc0HOBux.s:882    .text:00000000000004fc .L0 
     /tmp/cc0HOBux.s:856    .rodata.str1.8:0000000000000000 .LC0
     /tmp/cc0HOBux.s:907    .text:000000000000051c .L0 
     /tmp/cc0HOBux.s:912    .text:000000000000052c .L0 
     /tmp/cc0HOBux.s:918    .text:0000000000000540 .L0 
     /tmp/cc0HOBux.s:859    .rodata.str1.8:0000000000000010 .LC1
     /tmp/cc0HOBux.s:924    .text:0000000000000554 .L0 
     /tmp/cc0HOBux.s:930    .text:0000000000000564 .L0 
     /tmp/cc0HOBux.s:862    .rodata.str1.8:0000000000000028 .LC2
     /tmp/cc0HOBux.s:940    .text:000000000000057c .L0 
     /tmp/cc0HOBux.s:92     .text:0000000000000084 .L3
     /tmp/cc0HOBux.s:103    .text:0000000000000090 .L10
     /tmp/cc0HOBux.s:110    .text:000000000000009c .L6
     /tmp/cc0HOBux.s:135    .text:00000000000000b4 .L7
     /tmp/cc0HOBux.s:119    .text:00000000000000a0 .L8
GAS LISTING /tmp/cc0HOBux.s 			page 37


     /tmp/cc0HOBux.s:201    .text:000000000000010c .L11
     /tmp/cc0HOBux.s:210    .text:0000000000000118 .L16
     /tmp/cc0HOBux.s:194    .text:0000000000000104 .L14
     /tmp/cc0HOBux.s:274    .text:0000000000000180 .L17
     /tmp/cc0HOBux.s:285    .text:000000000000018c .L24
     /tmp/cc0HOBux.s:292    .text:0000000000000198 .L20
     /tmp/cc0HOBux.s:317    .text:00000000000001b0 .L21
     /tmp/cc0HOBux.s:301    .text:000000000000019c .L22
     /tmp/cc0HOBux.s:383    .text:0000000000000208 .L25
     /tmp/cc0HOBux.s:392    .text:0000000000000214 .L30
     /tmp/cc0HOBux.s:376    .text:0000000000000200 .L28
     /tmp/cc0HOBux.s:457    .text:0000000000000270 .L40
     /tmp/cc0HOBux.s:489    .text:00000000000002c0 .L33
     /tmp/cc0HOBux.s:540    .text:0000000000000304 .L38
     /tmp/cc0HOBux.s:433    .text:0000000000000250 .L32
     /tmp/cc0HOBux.s:444    .text:0000000000000260 .L34
     /tmp/cc0HOBux.s:512    .text:00000000000002e4 .L31
     /tmp/cc0HOBux.s:533    .text:0000000000000300 .L36
     /tmp/cc0HOBux.s:494    .text:00000000000002c8 .L41
     /tmp/cc0HOBux.s:777    .text:0000000000000480 .L46
     /tmp/cc0HOBux.s:789    .text:0000000000000488 .L47
     /tmp/cc0HOBux.s:798    .text:0000000000000490 .L48
     /tmp/cc0HOBux.s:802    .text:0000000000000498 .L49
     /tmp/cc0HOBux.s:805    .text:00000000000004a0 .L50
     /tmp/cc0HOBux.s:745    .text:0000000000000448 .L44
     /tmp/cc0HOBux.s:713    .text:000000000000040c .L45
     /tmp/cc0HOBux.s:810    .text:00000000000004a8 .L51
     /tmp/cc0HOBux.s:814    .text:00000000000004b0 .L52
     /tmp/cc0HOBux.s:818    .text:00000000000004b8 .L53
     /tmp/cc0HOBux.s:829    .text:00000000000004cc .L43
     /tmp/cc0HOBux.s:822    .text:00000000000004c0 .L54
     /tmp/cc0HOBux.s:826    .text:00000000000004c8 .L55
     /tmp/cc0HOBux.s:846    .text:00000000000004e4 .L56
     /tmp/cc0HOBux.s:937    .text:000000000000057c .L62
     /tmp/cc0HOBux.s:927    .text:0000000000000564 .L63
     /tmp/cc0HOBux.s:2212   .debug_abbrev:0000000000000000 .Ldebug_abbrev0
     /tmp/cc0HOBux.s:3779   .debug_str:0000000000000713 .LASF141
     /tmp/cc0HOBux.s:3659   .debug_str:00000000000003fb .LASF142
     /tmp/cc0HOBux.s:3609   .debug_str:000000000000025e .LASF143
     /tmp/cc0HOBux.s:5      .text:0000000000000000 .Ltext0
     /tmp/cc0HOBux.s:979    .text:00000000000005a0 .Letext0
     /tmp/cc0HOBux.s:3525   .debug_line:0000000000000000 .Ldebug_line0
     /tmp/cc0HOBux.s:3693   .debug_str:00000000000004dc .LASF0
     /tmp/cc0HOBux.s:3707   .debug_str:000000000000052d .LASF1
     /tmp/cc0HOBux.s:3679   .debug_str:0000000000000485 .LASF2
     /tmp/cc0HOBux.s:3641   .debug_str:000000000000039c .LASF4
     /tmp/cc0HOBux.s:3751   .debug_str:000000000000064a .LASF3
     /tmp/cc0HOBux.s:3553   .debug_str:00000000000000ac .LASF5
     /tmp/cc0HOBux.s:3711   .debug_str:0000000000000561 .LASF6
     /tmp/cc0HOBux.s:3691   .debug_str:00000000000004c9 .LASF7
     /tmp/cc0HOBux.s:3795   .debug_str:0000000000000825 .LASF8
     /tmp/cc0HOBux.s:3621   .debug_str:00000000000002c7 .LASF9
     /tmp/cc0HOBux.s:3727   .debug_str:00000000000005b9 .LASF10
     /tmp/cc0HOBux.s:3783   .debug_str:00000000000007e3 .LASF11
     /tmp/cc0HOBux.s:3555   .debug_str:00000000000000b3 .LASF12
     /tmp/cc0HOBux.s:3535   .debug_str:0000000000000031 .LASF13
     /tmp/cc0HOBux.s:3567   .debug_str:0000000000000130 .LASF14
GAS LISTING /tmp/cc0HOBux.s 			page 38


     /tmp/cc0HOBux.s:3743   .debug_str:000000000000061b .LASF15
     /tmp/cc0HOBux.s:3577   .debug_str:0000000000000170 .LASF16
     /tmp/cc0HOBux.s:3541   .debug_str:0000000000000056 .LASF50
     /tmp/cc0HOBux.s:3591   .debug_str:00000000000001f3 .LASF17
     /tmp/cc0HOBux.s:3735   .debug_str:00000000000005f5 .LASF19
     /tmp/cc0HOBux.s:3713   .debug_str:0000000000000574 .LASF21
     /tmp/cc0HOBux.s:3619   .debug_str:00000000000002b0 .LASF23
     /tmp/cc0HOBux.s:3681   .debug_str:0000000000000493 .LASF18
     /tmp/cc0HOBux.s:3637   .debug_str:000000000000035d .LASF20
     /tmp/cc0HOBux.s:3669   .debug_str:0000000000000443 .LASF22
     /tmp/cc0HOBux.s:3551   .debug_str:0000000000000093 .LASF24
     /tmp/cc0HOBux.s:3697   .debug_str:00000000000004f0 .LASF38
     /tmp/cc0HOBux.s:3605   .debug_str:0000000000000246 .LASF40
     /tmp/cc0HOBux.s:3655   .debug_str:00000000000003e5 .LASF25
     /tmp/cc0HOBux.s:3611   .debug_str:000000000000027c .LASF26
     /tmp/cc0HOBux.s:3687   .debug_str:00000000000004b5 .LASF27
     /tmp/cc0HOBux.s:3805   .debug_str:0000000000000872 .LASF28
     /tmp/cc0HOBux.s:3657   .debug_str:00000000000003ee .LASF29
     /tmp/cc0HOBux.s:3825   .debug_str:000000000000090a .LASF30
     /tmp/cc0HOBux.s:3737   .debug_str:0000000000000601 .LASF144
     /tmp/cc0HOBux.s:3599   .debug_str:0000000000000222 .LASF145
     /tmp/cc0HOBux.s:3625   .debug_str:00000000000002eb .LASF146
     /tmp/cc0HOBux.s:3649   .debug_str:00000000000003cd .LASF31
     /tmp/cc0HOBux.s:3571   .debug_str:0000000000000145 .LASF32
     /tmp/cc0HOBux.s:3653   .debug_str:00000000000003dd .LASF33
     /tmp/cc0HOBux.s:3701   .debug_str:0000000000000513 .LASF34
     /tmp/cc0HOBux.s:3547   .debug_str:000000000000007f .LASF35
     /tmp/cc0HOBux.s:3647   .debug_str:00000000000003c4 .LASF36
     /tmp/cc0HOBux.s:3671   .debug_str:0000000000000450 .LASF37
     /tmp/cc0HOBux.s:3673   .debug_str:0000000000000462 .LASF102
     /tmp/cc0HOBux.s:3629   .debug_str:0000000000000319 .LASF104
     /tmp/cc0HOBux.s:3803   .debug_str:0000000000000864 .LASF147
     /tmp/cc0HOBux.s:3639   .debug_str:0000000000000374 .LASF148
     /tmp/cc0HOBux.s:3811   .debug_str:0000000000000896 .LASF39
     /tmp/cc0HOBux.s:3623   .debug_str:00000000000002d5 .LASF41
     /tmp/cc0HOBux.s:3771   .debug_str:00000000000006e2 .LASF66
     /tmp/cc0HOBux.s:3645   .debug_str:00000000000003ab .LASF68
     /tmp/cc0HOBux.s:3753   .debug_str:000000000000065c .LASF149
     /tmp/cc0HOBux.s:3663   .debug_str:0000000000000414 .LASF42
     /tmp/cc0HOBux.s:3633   .debug_str:0000000000000340 .LASF43
     /tmp/cc0HOBux.s:3749   .debug_str:0000000000000644 .LASF48
     /tmp/cc0HOBux.s:3807   .debug_str:000000000000088a .LASF44
     /tmp/cc0HOBux.s:3725   .debug_str:00000000000005b3 .LASF45
     /tmp/cc0HOBux.s:3643   .debug_str:00000000000003a3 .LASF46
     /tmp/cc0HOBux.s:3761   .debug_str:0000000000000697 .LASF47
     /tmp/cc0HOBux.s:3607   .debug_str:0000000000000259 .LASF49
     /tmp/cc0HOBux.s:3703   .debug_str:000000000000051d .LASF51
     /tmp/cc0HOBux.s:3769   .debug_str:00000000000006dd .LASF52
     /tmp/cc0HOBux.s:3809   .debug_str:0000000000000891 .LASF53
     /tmp/cc0HOBux.s:3823   .debug_str:0000000000000905 .LASF54
     /tmp/cc0HOBux.s:3631   .debug_str:0000000000000332 .LASF55
     /tmp/cc0HOBux.s:3677   .debug_str:0000000000000477 .LASF56
     /tmp/cc0HOBux.s:3739   .debug_str:0000000000000606 .LASF57
     /tmp/cc0HOBux.s:3527   .debug_str:0000000000000000 .LASF58
     /tmp/cc0HOBux.s:3705   .debug_str:0000000000000527 .LASF59
     /tmp/cc0HOBux.s:3741   .debug_str:0000000000000610 .LASF60
     /tmp/cc0HOBux.s:3815   .debug_str:00000000000008bc .LASF61
GAS LISTING /tmp/cc0HOBux.s 			page 39


     /tmp/cc0HOBux.s:3549   .debug_str:0000000000000085 .LASF62
     /tmp/cc0HOBux.s:3597   .debug_str:0000000000000207 .LASF63
     /tmp/cc0HOBux.s:3767   .debug_str:00000000000006d0 .LASF64
     /tmp/cc0HOBux.s:3533   .debug_str:0000000000000017 .LASF65
     /tmp/cc0HOBux.s:3537   .debug_str:0000000000000041 .LASF70
     /tmp/cc0HOBux.s:3765   .debug_str:00000000000006bb .LASF72
     /tmp/cc0HOBux.s:3593   .debug_str:00000000000001f8 .LASF67
     /tmp/cc0HOBux.s:3575   .debug_str:000000000000015b .LASF69
     /tmp/cc0HOBux.s:3755   .debug_str:000000000000066d .LASF71
     /tmp/cc0HOBux.s:3733   .debug_str:00000000000005e2 .LASF73
     /tmp/cc0HOBux.s:3777   .debug_str:000000000000070c .LASF74
     /tmp/cc0HOBux.s:3789   .debug_str:0000000000000802 .LASF75
     /tmp/cc0HOBux.s:3615   .debug_str:00000000000002a2 .LASF76
     /tmp/cc0HOBux.s:3579   .debug_str:0000000000000186 .LASF77
     /tmp/cc0HOBux.s:3531   .debug_str:000000000000000f .LASF78
     /tmp/cc0HOBux.s:3757   .debug_str:0000000000000674 .LASF79
     /tmp/cc0HOBux.s:3601   .debug_str:000000000000022a .LASF80
     /tmp/cc0HOBux.s:3561   .debug_str:00000000000000f6 .LASF81
     /tmp/cc0HOBux.s:3747   .debug_str:000000000000063c .LASF82
     /tmp/cc0HOBux.s:3603   .debug_str:0000000000000232 .LASF83
     /tmp/cc0HOBux.s:3695   .debug_str:00000000000004e9 .LASF84
     /tmp/cc0HOBux.s:3821   .debug_str:00000000000008f2 .LASF85
     /tmp/cc0HOBux.s:3791   .debug_str:0000000000000815 .LASF86
     /tmp/cc0HOBux.s:3613   .debug_str:000000000000028f .LASF87
     /tmp/cc0HOBux.s:3617   .debug_str:00000000000002aa .LASF88
     /tmp/cc0HOBux.s:3775   .debug_str:00000000000006fa .LASF89
     /tmp/cc0HOBux.s:3545   .debug_str:0000000000000079 .LASF90
     /tmp/cc0HOBux.s:3827   .debug_str:000000000000092e .LASF91
     /tmp/cc0HOBux.s:3689   .debug_str:00000000000004be .LASF92
     /tmp/cc0HOBux.s:3557   .debug_str:00000000000000c3 .LASF93
     /tmp/cc0HOBux.s:3651   .debug_str:00000000000003d2 .LASF94
     /tmp/cc0HOBux.s:3665   .debug_str:000000000000041f .LASF95
     /tmp/cc0HOBux.s:3565   .debug_str:0000000000000126 .LASF96
     /tmp/cc0HOBux.s:3721   .debug_str:0000000000000593 .LASF97
     /tmp/cc0HOBux.s:3685   .debug_str:00000000000004ab .LASF98
     /tmp/cc0HOBux.s:3627   .debug_str:0000000000000303 .LASF99
     /tmp/cc0HOBux.s:3759   .debug_str:0000000000000688 .LASF100
     /tmp/cc0HOBux.s:3563   .debug_str:000000000000010a .LASF101
     /tmp/cc0HOBux.s:3801   .debug_str:000000000000084f .LASF103
     /tmp/cc0HOBux.s:3583   .debug_str:00000000000001ab .LASF105
     /tmp/cc0HOBux.s:3589   .debug_str:00000000000001ee .LASF106
     /tmp/cc0HOBux.s:3719   .debug_str:000000000000058e .LASF107
     /tmp/cc0HOBux.s:869    .text:00000000000004ec .LFB42
     /tmp/cc0HOBux.s:955    .text:00000000000005a0 .LFE42
     /tmp/cc0HOBux.s:3723   .debug_str:00000000000005a9 .LASF108
     /tmp/cc0HOBux.s:884    .text:0000000000000504 .LBB31
     /tmp/cc0HOBux.s:896    .text:0000000000000508 .LBE31
     /tmp/cc0HOBux.s:904    .text:000000000000051c .LVL57
     /tmp/cc0HOBux.s:909    .text:000000000000052c .LVL58
     /tmp/cc0HOBux.s:921    .text:0000000000000554 .LVL59
     /tmp/cc0HOBux.s:926    .text:0000000000000564 .LVL60
     /tmp/cc0HOBux.s:935    .text:0000000000000578 .LVL61
     /tmp/cc0HOBux.s:942    .text:000000000000058c .LVL62
     /tmp/cc0HOBux.s:3675   .debug_str:0000000000000470 .LASF109
     /tmp/cc0HOBux.s:3667   .debug_str:0000000000000437 .LASF110
     /tmp/cc0HOBux.s:10     .text:0000000000000000 .LFB41
     /tmp/cc0HOBux.s:41     .text:0000000000000034 .LFE41
GAS LISTING /tmp/cc0HOBux.s 			page 40


     /tmp/cc0HOBux.s:3217   .debug_loc:0000000000000000 .LLST0
     /tmp/cc0HOBux.s:26     .text:0000000000000018 .LVL1
     /tmp/cc0HOBux.s:3715   .debug_str:000000000000057f .LASF150
     /tmp/cc0HOBux.s:3745   .debug_str:0000000000000631 .LASF113
     /tmp/cc0HOBux.s:3581   .debug_str:000000000000019a .LASF115
     /tmp/cc0HOBux.s:627    .text:0000000000000364 .LFB24
     /tmp/cc0HOBux.s:852    .text:00000000000004ec .LFE24
     /tmp/cc0HOBux.s:3635   .debug_str:000000000000034b .LASF111
     /tmp/cc0HOBux.s:3231   .debug_loc:0000000000000039 .LLST11
     /tmp/cc0HOBux.s:3799   .debug_str:0000000000000841 .LASF112
     /tmp/cc0HOBux.s:3268   .debug_loc:00000000000000d4 .LLST12
     /tmp/cc0HOBux.s:3283   .debug_loc:000000000000011d .LLST13
     /tmp/cc0HOBux.s:3309   .debug_loc:000000000000018f .LLST14
     /tmp/cc0HOBux.s:673    .text:00000000000003c4 .LVL37
     /tmp/cc0HOBux.s:678    .text:00000000000003d0 .LVL38
     /tmp/cc0HOBux.s:3797   .debug_str:0000000000000835 .LASF114
     /tmp/cc0HOBux.s:3819   .debug_str:00000000000008e1 .LASF116
     /tmp/cc0HOBux.s:412    .text:000000000000022c .LFB23
     /tmp/cc0HOBux.s:621    .text:0000000000000364 .LFE23
     /tmp/cc0HOBux.s:3529   .debug_str:0000000000000009 .LASF117
     /tmp/cc0HOBux.s:3332   .debug_loc:00000000000001fe .LLST5
     /tmp/cc0HOBux.s:3787   .debug_str:00000000000007fb .LASF118
     /tmp/cc0HOBux.s:3357   .debug_loc:0000000000000260 .LLST6
     /tmp/cc0HOBux.s:3785   .debug_str:00000000000007f2 .LASF119
     /tmp/cc0HOBux.s:3364   .debug_loc:0000000000000283 .LLST7
     /tmp/cc0HOBux.s:3509   .debug_ranges:0000000000000000 .Ldebug_ranges0
     /tmp/cc0HOBux.s:3729   .debug_str:00000000000005c8 .LASF120
     /tmp/cc0HOBux.s:3379   .debug_loc:00000000000002cc .LLST8
     /tmp/cc0HOBux.s:567    .text:0000000000000318 .LBB20
     /tmp/cc0HOBux.s:615    .text:0000000000000364 .LBE20
     /tmp/cc0HOBux.s:3699   .debug_str:00000000000004f9 .LASF121
     /tmp/cc0HOBux.s:3400   .debug_loc:000000000000032a .LLST9
     /tmp/cc0HOBux.s:3569   .debug_str:000000000000013c .LASF122
     /tmp/cc0HOBux.s:3407   .debug_loc:000000000000034d .LLST10
     /tmp/cc0HOBux.s:572    .text:0000000000000324 .LVL27
     /tmp/cc0HOBux.s:604    .text:0000000000000350 .LVL31
     /tmp/cc0HOBux.s:609    .text:000000000000035c .LVL32
     /tmp/cc0HOBux.s:502    .text:00000000000002d4 .LVL21
     /tmp/cc0HOBux.s:507    .text:00000000000002e0 .LVL22
     /tmp/cc0HOBux.s:3683   .debug_str:000000000000049f .LASF123
     /tmp/cc0HOBux.s:3813   .debug_str:00000000000008a1 .LASF124
     /tmp/cc0HOBux.s:343    .text:00000000000001c8 .LFB22
     /tmp/cc0HOBux.s:406    .text:000000000000022c .LFE22
     /tmp/cc0HOBux.s:3595   .debug_str:0000000000000201 .LASF125
     /tmp/cc0HOBux.s:3661   .debug_str:0000000000000408 .LASF126
     /tmp/cc0HOBux.s:3543   .debug_str:000000000000005e .LASF127
     /tmp/cc0HOBux.s:230    .text:0000000000000130 .LFB21
     /tmp/cc0HOBux.s:337    .text:00000000000001c8 .LFE21
     /tmp/cc0HOBux.s:294    .text:0000000000000198 .LBB12
     /tmp/cc0HOBux.s:333    .text:00000000000001c8 .LBE12
     /tmp/cc0HOBux.s:3717   .debug_str:0000000000000585 .LASF128
     /tmp/cc0HOBux.s:3434   .debug_loc:00000000000003a2 .LLST3
     /tmp/cc0HOBux.s:3449   .debug_loc:00000000000003eb .LLST4
     /tmp/cc0HOBux.s:3773   .debug_str:00000000000006ee .LASF129
     /tmp/cc0HOBux.s:3763   .debug_str:00000000000006a0 .LASF130
     /tmp/cc0HOBux.s:161    .text:00000000000000cc .LFB20
     /tmp/cc0HOBux.s:224    .text:0000000000000130 .LFE20
GAS LISTING /tmp/cc0HOBux.s 			page 41


     /tmp/cc0HOBux.s:3781   .debug_str:00000000000007d7 .LASF131
     /tmp/cc0HOBux.s:3559   .debug_str:00000000000000db .LASF132
     /tmp/cc0HOBux.s:47     .text:0000000000000034 .LFB19
     /tmp/cc0HOBux.s:155    .text:00000000000000cc .LFE19
     /tmp/cc0HOBux.s:112    .text:000000000000009c .LBB6
     /tmp/cc0HOBux.s:151    .text:00000000000000cc .LBE6
     /tmp/cc0HOBux.s:3465   .debug_loc:0000000000000435 .LLST1
     /tmp/cc0HOBux.s:3480   .debug_loc:000000000000047e .LLST2
     /tmp/cc0HOBux.s:3709   .debug_str:0000000000000540 .LASF133
     /tmp/cc0HOBux.s:3587   .debug_str:00000000000001e0 .LASF135
     /tmp/cc0HOBux.s:3585   .debug_str:00000000000001cd .LASF134
     /tmp/cc0HOBux.s:3539   .debug_str:000000000000004a .LASF136
     /tmp/cc0HOBux.s:3731   .debug_str:00000000000005cd .LASF137
     /tmp/cc0HOBux.s:3573   .debug_str:000000000000014b .LASF138
     /tmp/cc0HOBux.s:3817   .debug_str:00000000000008d4 .LASF139
     /tmp/cc0HOBux.s:3793   .debug_str:000000000000081c .LASF140
     /tmp/cc0HOBux.s:14     .text:0000000000000000 .LVL0
     /tmp/cc0HOBux.s:630    .text:0000000000000364 .LVL34
     /tmp/cc0HOBux.s:671    .text:00000000000003bc .LVL36
     /tmp/cc0HOBux.s:776    .text:0000000000000480 .LVL45
     /tmp/cc0HOBux.s:785    .text:0000000000000484 .LVL46
     /tmp/cc0HOBux.s:788    .text:0000000000000488 .LVL47
     /tmp/cc0HOBux.s:839    .text:00000000000004d8 .LVL53
     /tmp/cc0HOBux.s:845    .text:00000000000004e4 .LVL54
     /tmp/cc0HOBux.s:667    .text:00000000000003b8 .LVL35
     /tmp/cc0HOBux.s:809    .text:00000000000004a8 .LVL48
     /tmp/cc0HOBux.s:828    .text:00000000000004cc .LVL52
     /tmp/cc0HOBux.s:682    .text:00000000000003d4 .LVL39
     /tmp/cc0HOBux.s:750    .text:0000000000000450 .LVL43
     /tmp/cc0HOBux.s:772    .text:0000000000000478 .LVL44
     /tmp/cc0HOBux.s:825    .text:00000000000004c8 .LVL51
     /tmp/cc0HOBux.s:686    .text:00000000000003d8 .LVL40
     /tmp/cc0HOBux.s:733    .text:0000000000000434 .LVL41
     /tmp/cc0HOBux.s:744    .text:0000000000000448 .LVL42
     /tmp/cc0HOBux.s:817    .text:00000000000004b8 .LVL49
     /tmp/cc0HOBux.s:821    .text:00000000000004c0 .LVL50
     /tmp/cc0HOBux.s:415    .text:000000000000022c .LVL14
     /tmp/cc0HOBux.s:441    .text:000000000000025c .LVL15
     /tmp/cc0HOBux.s:456    .text:0000000000000270 .LVL19
     /tmp/cc0HOBux.s:493    .text:00000000000002c8 .LVL20
     /tmp/cc0HOBux.s:445    .text:0000000000000260 .LVL16
     /tmp/cc0HOBux.s:449    .text:0000000000000264 .LVL17
     /tmp/cc0HOBux.s:528    .text:00000000000002f8 .LVL24
     /tmp/cc0HOBux.s:532    .text:0000000000000300 .LVL25
     /tmp/cc0HOBux.s:454    .text:000000000000026c .LVL18
     /tmp/cc0HOBux.s:511    .text:00000000000002e4 .LVL23
     /tmp/cc0HOBux.s:613    .text:0000000000000360 .LVL33
     /tmp/cc0HOBux.s:578    .text:000000000000032c .LVL28
     /tmp/cc0HOBux.s:588    .text:0000000000000338 .LVL30
     /tmp/cc0HOBux.s:296    .text:0000000000000198 .LVL9
     /tmp/cc0HOBux.s:308    .text:00000000000001a4 .LVL11
     /tmp/cc0HOBux.s:314    .text:00000000000001ac .LVL12
     /tmp/cc0HOBux.s:300    .text:000000000000019c .LVL10
     /tmp/cc0HOBux.s:114    .text:000000000000009c .LVL3
     /tmp/cc0HOBux.s:126    .text:00000000000000a8 .LVL5
     /tmp/cc0HOBux.s:132    .text:00000000000000b0 .LVL6
     /tmp/cc0HOBux.s:118    .text:00000000000000a0 .LVL4
GAS LISTING /tmp/cc0HOBux.s 			page 42


     /tmp/cc0HOBux.s:985    .debug_info:0000000000000000 .Ldebug_info0
     /tmp/cc0HOBux.s:451    .text:0000000000000264 .LBB16
     /tmp/cc0HOBux.s:458    .text:0000000000000270 .LBE16
     /tmp/cc0HOBux.s:495    .text:00000000000002c8 .LBB26
     /tmp/cc0HOBux.s:515    .text:00000000000002e4 .LBE26
     /tmp/cc0HOBux.s:535    .text:0000000000000300 .LBB27
     /tmp/cc0HOBux.s:543    .text:0000000000000308 .LBE27
     /tmp/cc0HOBux.s:545    .text:0000000000000308 .LBB28
     /tmp/cc0HOBux.s:552    .text:0000000000000310 .LBE28
     /tmp/cc0HOBux.s:554    .text:0000000000000310 .LBB29
     /tmp/cc0HOBux.s:560    .text:0000000000000314 .LBE29
     /tmp/cc0HOBux.s:562    .text:0000000000000314 .LBB30
     /tmp/cc0HOBux.s:619    .text:0000000000000364 .LBE30

UNDEFINED SYMBOLS
_Z8userMainv
HEAP_START_ADDR
HEAP_END_ADDR
_ZN5Riscv14supervisorTrapEv
_Z13thread_createPP3TCBPFvPvES2_
_Z11printStringPKc
_ZN3TCB7runningE
_Z15thread_dispatchv
