GAS LISTING /tmp/ccT3GgbJ.s 			page 1


   1              		.file	"my_mem.c"
   2              		.option nopic
   3              		.option norelax
   4              		.text
   5              	.Ltext0:
   6              		.cfi_sections	.debug_frame
   7              		.align	2
   8              		.globl	free_insert
  10              	free_insert:
  11              	.LFB0:
  12              		.file 1 "src/my_mem.c"
   1:src/my_mem.c  **** #ifndef MY_MEM
   2:src/my_mem.c  **** #define MY_MEM
   3:src/my_mem.c  **** 
   4:src/my_mem.c  **** #include "../lib/hw.h"
   5:src/my_mem.c  **** 
   6:src/my_mem.c  **** 
   7:src/my_mem.c  **** struct mem_block{
   8:src/my_mem.c  ****     size_t size;
   9:src/my_mem.c  ****     struct mem_block* prev;
  10:src/my_mem.c  ****     struct mem_block* next;
  11:src/my_mem.c  **** };
  12:src/my_mem.c  **** 
  13:src/my_mem.c  **** void* __mem_alloc(size_t bytes);
  14:src/my_mem.c  **** 
  15:src/my_mem.c  **** int __mem_free(void* allocated_address);
  16:src/my_mem.c  **** 
  17:src/my_mem.c  **** 
  18:src/my_mem.c  **** #endif // MY_MEM
  19:src/my_mem.c  **** 
  20:src/my_mem.c  **** #define NULL 0
  21:src/my_mem.c  **** 
  22:src/my_mem.c  **** 
  23:src/my_mem.c  **** static struct mem_block* free_mem_head = NULL;
  24:src/my_mem.c  **** static struct mem_block* used_mem_head = NULL;
  25:src/my_mem.c  **** static int beginning = 0;
  26:src/my_mem.c  **** 
  27:src/my_mem.c  **** void free_insert(struct mem_block* block);
  28:src/my_mem.c  **** void free_remove(struct mem_block* block);
  29:src/my_mem.c  **** 
  30:src/my_mem.c  **** void used_insert(struct mem_block* block);
  31:src/my_mem.c  **** void used_remove(struct mem_block* block);
  32:src/my_mem.c  **** 
  33:src/my_mem.c  **** 
  34:src/my_mem.c  **** void
  35:src/my_mem.c  **** free_insert(struct mem_block* block)
  36:src/my_mem.c  **** {
  13              		.loc 1 36 1
  14              		.cfi_startproc
  15              	.LVL0:
  16 0000 130101FF 		addi	sp,sp,-16
  17              		.cfi_def_cfa_offset 16
  18 0004 23348100 		sd	s0,8(sp)
  19              		.cfi_offset 8, -8
  20 0008 13040101 		addi	s0,sp,16
  21              		.cfi_def_cfa 8, 0
  37:src/my_mem.c  ****     if ((char*)block < (char*)HEAP_START_ADDR || (char*)block >= (char*)HEAP_END_ADDR)
GAS LISTING /tmp/ccT3GgbJ.s 			page 2


  22              		.loc 1 37 5
  23              		.loc 1 37 24 is_stmt 0
  24 000c 97070000 		ld	a5,HEAP_START_ADDR
  24      83B70700 
  25              		.loc 1 37 8
  26 0014 636AF502 		bgtu	a5,a0,.L1
  27              		.loc 1 37 66 discriminator 1
  28 0018 97070000 		ld	a5,HEAP_END_ADDR
  28      83B70700 
  29              		.loc 1 37 47 discriminator 1
  30 0020 6374F502 		bleu	a5,a0,.L1
  38:src/my_mem.c  ****         return;
  39:src/my_mem.c  **** 
  40:src/my_mem.c  ****     if (free_mem_head == NULL)
  31              		.loc 1 40 5 is_stmt 1
  32              		.loc 1 40 23 is_stmt 0
  33 0024 17070000 		ld	a4,free_mem_head
  33      03370700 
  34              		.loc 1 40 8
  35 002c 63040702 		beqz	a4,.L9
  41:src/my_mem.c  ****     {
  42:src/my_mem.c  ****         free_mem_head = block;
  43:src/my_mem.c  ****     }
  44:src/my_mem.c  ****     else if (block < free_mem_head)
  36              		.loc 1 44 10 is_stmt 1
  37              		.loc 1 44 13 is_stmt 0
  38 0030 6378E502 		bleu	a4,a0,.L4
  45:src/my_mem.c  ****     {
  46:src/my_mem.c  ****         block->prev = NULL;
  39              		.loc 1 46 9 is_stmt 1
  40              		.loc 1 46 21 is_stmt 0
  41 0034 23340500 		sd	zero,8(a0)
  47:src/my_mem.c  ****         block->next = free_mem_head;
  42              		.loc 1 47 9 is_stmt 1
  43              		.loc 1 47 21 is_stmt 0
  44 0038 2338E500 		sd	a4,16(a0)
  48:src/my_mem.c  ****         free_mem_head->prev = block;
  45              		.loc 1 48 9 is_stmt 1
  46              		.loc 1 48 29 is_stmt 0
  47 003c 2334A700 		sd	a0,8(a4)
  49:src/my_mem.c  **** 
  50:src/my_mem.c  ****         free_mem_head = block;
  48              		.loc 1 50 9 is_stmt 1
  49              		.loc 1 50 23 is_stmt 0
  50 0040 97070000 		sd	a0,free_mem_head,a5
  50      23B0A700 
  51              	.L1:
  51:src/my_mem.c  ****     }
  52:src/my_mem.c  ****     else
  53:src/my_mem.c  ****     {
  54:src/my_mem.c  ****         struct mem_block* prev_tmp = free_mem_head;
  55:src/my_mem.c  ****         struct mem_block* tmp      = free_mem_head->next;
  56:src/my_mem.c  **** 
  57:src/my_mem.c  ****         while (tmp != NULL && (char*)tmp < (char*)block)
  58:src/my_mem.c  ****         {
  59:src/my_mem.c  ****             prev_tmp = tmp;
  60:src/my_mem.c  ****             tmp = tmp->next;
GAS LISTING /tmp/ccT3GgbJ.s 			page 3


  61:src/my_mem.c  ****         }
  62:src/my_mem.c  **** 
  63:src/my_mem.c  ****         prev_tmp->next = block;
  64:src/my_mem.c  ****         block->prev = prev_tmp;
  65:src/my_mem.c  ****         block->next = tmp;
  66:src/my_mem.c  **** 
  67:src/my_mem.c  ****         if (tmp != NULL)
  68:src/my_mem.c  ****             tmp->prev = block;
  69:src/my_mem.c  ****     }
  70:src/my_mem.c  **** }
  52              		.loc 1 70 1
  53 0048 03348100 		ld	s0,8(sp)
  54              		.cfi_remember_state
  55              		.cfi_restore 8
  56              		.cfi_def_cfa 2, 16
  57 004c 13010101 		addi	sp,sp,16
  58              		.cfi_def_cfa_offset 0
  59 0050 67800000 		jr	ra
  60              	.L9:
  61              		.cfi_restore_state
  42:src/my_mem.c  ****     }
  62              		.loc 1 42 9 is_stmt 1
  42:src/my_mem.c  ****     }
  63              		.loc 1 42 23 is_stmt 0
  64 0054 97070000 		sd	a0,free_mem_head,a5
  64      23B0A700 
  65 005c 6FF0DFFE 		j	.L1
  66              	.L4:
  67              	.LBB2:
  54:src/my_mem.c  ****         struct mem_block* tmp      = free_mem_head->next;
  68              		.loc 1 54 9 is_stmt 1
  69              	.LVL1:
  55:src/my_mem.c  **** 
  70              		.loc 1 55 9
  55:src/my_mem.c  **** 
  71              		.loc 1 55 27 is_stmt 0
  72 0060 83370701 		ld	a5,16(a4)
  73              	.LVL2:
  57:src/my_mem.c  ****         {
  74              		.loc 1 57 9 is_stmt 1
  75              	.L5:
  57:src/my_mem.c  ****         {
  76              		.loc 1 57 15
  77 0064 638A0700 		beqz	a5,.L6
  57:src/my_mem.c  ****         {
  78              		.loc 1 57 28 is_stmt 0 discriminator 1
  79 0068 63F8A700 		bgeu	a5,a0,.L6
  59:src/my_mem.c  ****             tmp = tmp->next;
  80              		.loc 1 59 13 is_stmt 1
  81              	.LVL3:
  60:src/my_mem.c  ****         }
  82              		.loc 1 60 13
  59:src/my_mem.c  ****             tmp = tmp->next;
  83              		.loc 1 59 22 is_stmt 0
  84 006c 13870700 		mv	a4,a5
  60:src/my_mem.c  ****         }
  85              		.loc 1 60 17
GAS LISTING /tmp/ccT3GgbJ.s 			page 4


  86 0070 83B70701 		ld	a5,16(a5)
  87              	.LVL4:
  88 0074 6FF01FFF 		j	.L5
  89              	.L6:
  63:src/my_mem.c  ****         block->prev = prev_tmp;
  90              		.loc 1 63 9 is_stmt 1
  63:src/my_mem.c  ****         block->prev = prev_tmp;
  91              		.loc 1 63 24 is_stmt 0
  92 0078 2338A700 		sd	a0,16(a4)
  64:src/my_mem.c  ****         block->next = tmp;
  93              		.loc 1 64 9 is_stmt 1
  64:src/my_mem.c  ****         block->next = tmp;
  94              		.loc 1 64 21 is_stmt 0
  95 007c 2334E500 		sd	a4,8(a0)
  65:src/my_mem.c  **** 
  96              		.loc 1 65 9 is_stmt 1
  65:src/my_mem.c  **** 
  97              		.loc 1 65 21 is_stmt 0
  98 0080 2338F500 		sd	a5,16(a0)
  67:src/my_mem.c  ****             tmp->prev = block;
  99              		.loc 1 67 9 is_stmt 1
  67:src/my_mem.c  ****             tmp->prev = block;
 100              		.loc 1 67 12 is_stmt 0
 101 0084 E38207FC 		beqz	a5,.L1
  68:src/my_mem.c  ****     }
 102              		.loc 1 68 13 is_stmt 1
  68:src/my_mem.c  ****     }
 103              		.loc 1 68 23 is_stmt 0
 104 0088 23B4A700 		sd	a0,8(a5)
 105 008c 6FF0DFFB 		j	.L1
 106              	.LBE2:
 107              		.cfi_endproc
 108              	.LFE0:
 110              		.align	2
 111              		.globl	free_remove
 113              	free_remove:
 114              	.LFB1:
  71:src/my_mem.c  **** 
  72:src/my_mem.c  **** 
  73:src/my_mem.c  **** void
  74:src/my_mem.c  **** free_remove(struct mem_block* block)
  75:src/my_mem.c  **** {
 115              		.loc 1 75 1 is_stmt 1
 116              		.cfi_startproc
 117              	.LVL5:
 118 0090 130101FF 		addi	sp,sp,-16
 119              		.cfi_def_cfa_offset 16
 120 0094 23348100 		sd	s0,8(sp)
 121              		.cfi_offset 8, -8
 122 0098 13040101 		addi	s0,sp,16
 123              		.cfi_def_cfa 8, 0
  76:src/my_mem.c  ****     if (free_mem_head == NULL || block == NULL)
 124              		.loc 1 76 5
 125              		.loc 1 76 23 is_stmt 0
 126 009c 97070000 		ld	a5,free_mem_head
 126      83B70700 
 127              		.loc 1 76 8
GAS LISTING /tmp/ccT3GgbJ.s 			page 5


 128 00a4 63860702 		beqz	a5,.L10
 129              		.loc 1 76 31 discriminator 1
 130 00a8 63040502 		beqz	a0,.L10
  77:src/my_mem.c  ****         return;
  78:src/my_mem.c  **** 
  79:src/my_mem.c  ****     if (block == free_mem_head)
 131              		.loc 1 79 5 is_stmt 1
 132              		.loc 1 79 8 is_stmt 0
 133 00ac 6388A702 		beq	a5,a0,.L15
  80:src/my_mem.c  ****     {
  81:src/my_mem.c  ****         free_mem_head = free_mem_head->next;
  82:src/my_mem.c  **** 
  83:src/my_mem.c  ****         if (free_mem_head != NULL)
  84:src/my_mem.c  ****             free_mem_head->prev = NULL;
  85:src/my_mem.c  ****     }
  86:src/my_mem.c  ****     else
  87:src/my_mem.c  ****     {
  88:src/my_mem.c  ****         block->prev->next = block->next;
 134              		.loc 1 88 9 is_stmt 1
 135              		.loc 1 88 14 is_stmt 0
 136 00b0 03378500 		ld	a4,8(a0)
 137              		.loc 1 88 34
 138 00b4 83370501 		ld	a5,16(a0)
 139              		.loc 1 88 27
 140 00b8 2338F700 		sd	a5,16(a4)
  89:src/my_mem.c  ****         if (block->next)
 141              		.loc 1 89 9 is_stmt 1
 142              		.loc 1 89 12 is_stmt 0
 143 00bc 63860700 		beqz	a5,.L13
  90:src/my_mem.c  ****             block->next->prev = block->prev;
 144              		.loc 1 90 13 is_stmt 1
 145              		.loc 1 90 38 is_stmt 0
 146 00c0 03378500 		ld	a4,8(a0)
 147              		.loc 1 90 31
 148 00c4 23B4E700 		sd	a4,8(a5)
 149              	.L13:
  91:src/my_mem.c  ****     }
  92:src/my_mem.c  **** 
  93:src/my_mem.c  ****     // Unlink
  94:src/my_mem.c  ****     block->prev = NULL;
 150              		.loc 1 94 5 is_stmt 1
 151              		.loc 1 94 17 is_stmt 0
 152 00c8 23340500 		sd	zero,8(a0)
  95:src/my_mem.c  ****     block->next = NULL;
 153              		.loc 1 95 5 is_stmt 1
 154              		.loc 1 95 17 is_stmt 0
 155 00cc 23380500 		sd	zero,16(a0)
 156              	.L10:
  96:src/my_mem.c  **** }
 157              		.loc 1 96 1
 158 00d0 03348100 		ld	s0,8(sp)
 159              		.cfi_remember_state
 160              		.cfi_restore 8
 161              		.cfi_def_cfa 2, 16
 162 00d4 13010101 		addi	sp,sp,16
 163              		.cfi_def_cfa_offset 0
 164 00d8 67800000 		jr	ra
GAS LISTING /tmp/ccT3GgbJ.s 			page 6


 165              	.L15:
 166              		.cfi_restore_state
  81:src/my_mem.c  **** 
 167              		.loc 1 81 9 is_stmt 1
  81:src/my_mem.c  **** 
 168              		.loc 1 81 38 is_stmt 0
 169 00dc 83B70701 		ld	a5,16(a5)
  81:src/my_mem.c  **** 
 170              		.loc 1 81 23
 171 00e0 17070000 		sd	a5,free_mem_head,a4
 171      2330F700 
  83:src/my_mem.c  ****             free_mem_head->prev = NULL;
 172              		.loc 1 83 9 is_stmt 1
  83:src/my_mem.c  ****             free_mem_head->prev = NULL;
 173              		.loc 1 83 12 is_stmt 0
 174 00e8 E38007FE 		beqz	a5,.L13
  84:src/my_mem.c  ****     }
 175              		.loc 1 84 13 is_stmt 1
  84:src/my_mem.c  ****     }
 176              		.loc 1 84 33 is_stmt 0
 177 00ec 23B40700 		sd	zero,8(a5)
 178 00f0 6FF09FFD 		j	.L13
 179              		.cfi_endproc
 180              	.LFE1:
 182              		.align	2
 183              		.globl	used_insert
 185              	used_insert:
 186              	.LFB2:
  97:src/my_mem.c  **** 
  98:src/my_mem.c  **** 
  99:src/my_mem.c  **** void
 100:src/my_mem.c  **** used_insert(struct mem_block* block)
 101:src/my_mem.c  **** {
 187              		.loc 1 101 1 is_stmt 1
 188              		.cfi_startproc
 189              	.LVL6:
 190 00f4 130101FF 		addi	sp,sp,-16
 191              		.cfi_def_cfa_offset 16
 192 00f8 23348100 		sd	s0,8(sp)
 193              		.cfi_offset 8, -8
 194 00fc 13040101 		addi	s0,sp,16
 195              		.cfi_def_cfa 8, 0
 102:src/my_mem.c  ****     if ((char*)block < (char*)HEAP_START_ADDR || (char*)block >= (char*)HEAP_END_ADDR)
 196              		.loc 1 102 5
 197              		.loc 1 102 24 is_stmt 0
 198 0100 97070000 		ld	a5,HEAP_START_ADDR
 198      83B70700 
 199              		.loc 1 102 8
 200 0108 636AF502 		bgtu	a5,a0,.L16
 201              		.loc 1 102 66 discriminator 1
 202 010c 97070000 		ld	a5,HEAP_END_ADDR
 202      83B70700 
 203              		.loc 1 102 47 discriminator 1
 204 0114 6374F502 		bleu	a5,a0,.L16
 103:src/my_mem.c  ****         return;
 104:src/my_mem.c  **** 
 105:src/my_mem.c  ****     if (used_mem_head == NULL)
GAS LISTING /tmp/ccT3GgbJ.s 			page 7


 205              		.loc 1 105 5 is_stmt 1
 206              		.loc 1 105 23 is_stmt 0
 207 0118 17070000 		ld	a4,used_mem_head
 207      03370700 
 208              		.loc 1 105 8
 209 0120 63040702 		beqz	a4,.L24
 106:src/my_mem.c  ****     {
 107:src/my_mem.c  ****         used_mem_head = block;
 108:src/my_mem.c  ****     }
 109:src/my_mem.c  ****     else if (block < used_mem_head)
 210              		.loc 1 109 10 is_stmt 1
 211              		.loc 1 109 13 is_stmt 0
 212 0124 6378E502 		bleu	a4,a0,.L19
 110:src/my_mem.c  ****     {
 111:src/my_mem.c  ****         block->prev = NULL;
 213              		.loc 1 111 9 is_stmt 1
 214              		.loc 1 111 21 is_stmt 0
 215 0128 23340500 		sd	zero,8(a0)
 112:src/my_mem.c  ****         block->next = used_mem_head;
 216              		.loc 1 112 9 is_stmt 1
 217              		.loc 1 112 21 is_stmt 0
 218 012c 2338E500 		sd	a4,16(a0)
 113:src/my_mem.c  ****         used_mem_head->prev = block;
 219              		.loc 1 113 9 is_stmt 1
 220              		.loc 1 113 29 is_stmt 0
 221 0130 2334A700 		sd	a0,8(a4)
 114:src/my_mem.c  **** 
 115:src/my_mem.c  ****         used_mem_head = block;
 222              		.loc 1 115 9 is_stmt 1
 223              		.loc 1 115 23 is_stmt 0
 224 0134 97070000 		sd	a0,used_mem_head,a5
 224      23B0A700 
 225              	.L16:
 116:src/my_mem.c  ****     }
 117:src/my_mem.c  ****     else
 118:src/my_mem.c  ****     {
 119:src/my_mem.c  ****         struct mem_block* prev_tmp = used_mem_head;
 120:src/my_mem.c  ****         struct mem_block* tmp      = used_mem_head->next;
 121:src/my_mem.c  **** 
 122:src/my_mem.c  ****         while (tmp != NULL && (char*)tmp < (char*)block)
 123:src/my_mem.c  ****         {
 124:src/my_mem.c  ****             prev_tmp = tmp;
 125:src/my_mem.c  ****             tmp = tmp->next;
 126:src/my_mem.c  ****         }
 127:src/my_mem.c  **** 
 128:src/my_mem.c  ****         prev_tmp->next = block;
 129:src/my_mem.c  ****         block->prev = prev_tmp;
 130:src/my_mem.c  ****         block->next = tmp;
 131:src/my_mem.c  **** 
 132:src/my_mem.c  ****         if (tmp != NULL)
 133:src/my_mem.c  ****             tmp->prev = block;
 134:src/my_mem.c  ****     }
 135:src/my_mem.c  **** }
 226              		.loc 1 135 1
 227 013c 03348100 		ld	s0,8(sp)
 228              		.cfi_remember_state
 229              		.cfi_restore 8
GAS LISTING /tmp/ccT3GgbJ.s 			page 8


 230              		.cfi_def_cfa 2, 16
 231 0140 13010101 		addi	sp,sp,16
 232              		.cfi_def_cfa_offset 0
 233 0144 67800000 		jr	ra
 234              	.L24:
 235              		.cfi_restore_state
 107:src/my_mem.c  ****     }
 236              		.loc 1 107 9 is_stmt 1
 107:src/my_mem.c  ****     }
 237              		.loc 1 107 23 is_stmt 0
 238 0148 97070000 		sd	a0,used_mem_head,a5
 238      23B0A700 
 239 0150 6FF0DFFE 		j	.L16
 240              	.L19:
 241              	.LBB3:
 119:src/my_mem.c  ****         struct mem_block* tmp      = used_mem_head->next;
 242              		.loc 1 119 9 is_stmt 1
 243              	.LVL7:
 120:src/my_mem.c  **** 
 244              		.loc 1 120 9
 120:src/my_mem.c  **** 
 245              		.loc 1 120 27 is_stmt 0
 246 0154 83370701 		ld	a5,16(a4)
 247              	.LVL8:
 122:src/my_mem.c  ****         {
 248              		.loc 1 122 9 is_stmt 1
 249              	.L20:
 122:src/my_mem.c  ****         {
 250              		.loc 1 122 15
 251 0158 638A0700 		beqz	a5,.L21
 122:src/my_mem.c  ****         {
 252              		.loc 1 122 28 is_stmt 0 discriminator 1
 253 015c 63F8A700 		bgeu	a5,a0,.L21
 124:src/my_mem.c  ****             tmp = tmp->next;
 254              		.loc 1 124 13 is_stmt 1
 255              	.LVL9:
 125:src/my_mem.c  ****         }
 256              		.loc 1 125 13
 124:src/my_mem.c  ****             tmp = tmp->next;
 257              		.loc 1 124 22 is_stmt 0
 258 0160 13870700 		mv	a4,a5
 125:src/my_mem.c  ****         }
 259              		.loc 1 125 17
 260 0164 83B70701 		ld	a5,16(a5)
 261              	.LVL10:
 262 0168 6FF01FFF 		j	.L20
 263              	.L21:
 128:src/my_mem.c  ****         block->prev = prev_tmp;
 264              		.loc 1 128 9 is_stmt 1
 128:src/my_mem.c  ****         block->prev = prev_tmp;
 265              		.loc 1 128 24 is_stmt 0
 266 016c 2338A700 		sd	a0,16(a4)
 129:src/my_mem.c  ****         block->next = tmp;
 267              		.loc 1 129 9 is_stmt 1
 129:src/my_mem.c  ****         block->next = tmp;
 268              		.loc 1 129 21 is_stmt 0
 269 0170 2334E500 		sd	a4,8(a0)
GAS LISTING /tmp/ccT3GgbJ.s 			page 9


 130:src/my_mem.c  **** 
 270              		.loc 1 130 9 is_stmt 1
 130:src/my_mem.c  **** 
 271              		.loc 1 130 21 is_stmt 0
 272 0174 2338F500 		sd	a5,16(a0)
 132:src/my_mem.c  ****             tmp->prev = block;
 273              		.loc 1 132 9 is_stmt 1
 132:src/my_mem.c  ****             tmp->prev = block;
 274              		.loc 1 132 12 is_stmt 0
 275 0178 E38207FC 		beqz	a5,.L16
 133:src/my_mem.c  ****     }
 276              		.loc 1 133 13 is_stmt 1
 133:src/my_mem.c  ****     }
 277              		.loc 1 133 23 is_stmt 0
 278 017c 23B4A700 		sd	a0,8(a5)
 279 0180 6FF0DFFB 		j	.L16
 280              	.LBE3:
 281              		.cfi_endproc
 282              	.LFE2:
 284              		.align	2
 285              		.globl	used_remove
 287              	used_remove:
 288              	.LFB3:
 136:src/my_mem.c  **** 
 137:src/my_mem.c  **** 
 138:src/my_mem.c  **** void
 139:src/my_mem.c  **** used_remove(struct mem_block* block)
 140:src/my_mem.c  **** {
 289              		.loc 1 140 1 is_stmt 1
 290              		.cfi_startproc
 291              	.LVL11:
 292 0184 130101FF 		addi	sp,sp,-16
 293              		.cfi_def_cfa_offset 16
 294 0188 23348100 		sd	s0,8(sp)
 295              		.cfi_offset 8, -8
 296 018c 13040101 		addi	s0,sp,16
 297              		.cfi_def_cfa 8, 0
 141:src/my_mem.c  ****     if (used_mem_head == NULL || block == NULL)
 298              		.loc 1 141 5
 299              		.loc 1 141 23 is_stmt 0
 300 0190 97070000 		ld	a5,used_mem_head
 300      83B70700 
 301              		.loc 1 141 8
 302 0198 63860702 		beqz	a5,.L25
 303              		.loc 1 141 31 discriminator 1
 304 019c 63040502 		beqz	a0,.L25
 142:src/my_mem.c  ****         return;
 143:src/my_mem.c  **** 
 144:src/my_mem.c  ****     if (block == used_mem_head)
 305              		.loc 1 144 5 is_stmt 1
 306              		.loc 1 144 8 is_stmt 0
 307 01a0 6388A702 		beq	a5,a0,.L30
 145:src/my_mem.c  ****     {
 146:src/my_mem.c  ****         used_mem_head = used_mem_head->next;
 147:src/my_mem.c  **** 
 148:src/my_mem.c  ****         if (used_mem_head != NULL)
 149:src/my_mem.c  ****             used_mem_head->prev = NULL;
GAS LISTING /tmp/ccT3GgbJ.s 			page 10


 150:src/my_mem.c  ****     }
 151:src/my_mem.c  ****     else
 152:src/my_mem.c  ****     {
 153:src/my_mem.c  ****         block->prev->next = block->next;
 308              		.loc 1 153 9 is_stmt 1
 309              		.loc 1 153 14 is_stmt 0
 310 01a4 03378500 		ld	a4,8(a0)
 311              		.loc 1 153 34
 312 01a8 83370501 		ld	a5,16(a0)
 313              		.loc 1 153 27
 314 01ac 2338F700 		sd	a5,16(a4)
 154:src/my_mem.c  ****         if (block->next)
 315              		.loc 1 154 9 is_stmt 1
 316              		.loc 1 154 12 is_stmt 0
 317 01b0 63860700 		beqz	a5,.L28
 155:src/my_mem.c  ****             block->next->prev = block->prev;
 318              		.loc 1 155 13 is_stmt 1
 319              		.loc 1 155 38 is_stmt 0
 320 01b4 03378500 		ld	a4,8(a0)
 321              		.loc 1 155 31
 322 01b8 23B4E700 		sd	a4,8(a5)
 323              	.L28:
 156:src/my_mem.c  ****     }
 157:src/my_mem.c  **** 
 158:src/my_mem.c  ****     // Unlink
 159:src/my_mem.c  ****     block->prev = NULL;
 324              		.loc 1 159 5 is_stmt 1
 325              		.loc 1 159 17 is_stmt 0
 326 01bc 23340500 		sd	zero,8(a0)
 160:src/my_mem.c  ****     block->next = NULL;
 327              		.loc 1 160 5 is_stmt 1
 328              		.loc 1 160 17 is_stmt 0
 329 01c0 23380500 		sd	zero,16(a0)
 330              	.L25:
 161:src/my_mem.c  **** }
 331              		.loc 1 161 1
 332 01c4 03348100 		ld	s0,8(sp)
 333              		.cfi_remember_state
 334              		.cfi_restore 8
 335              		.cfi_def_cfa 2, 16
 336 01c8 13010101 		addi	sp,sp,16
 337              		.cfi_def_cfa_offset 0
 338 01cc 67800000 		jr	ra
 339              	.L30:
 340              		.cfi_restore_state
 146:src/my_mem.c  **** 
 341              		.loc 1 146 9 is_stmt 1
 146:src/my_mem.c  **** 
 342              		.loc 1 146 38 is_stmt 0
 343 01d0 83B70701 		ld	a5,16(a5)
 146:src/my_mem.c  **** 
 344              		.loc 1 146 23
 345 01d4 17070000 		sd	a5,used_mem_head,a4
 345      2330F700 
 148:src/my_mem.c  ****             used_mem_head->prev = NULL;
 346              		.loc 1 148 9 is_stmt 1
 148:src/my_mem.c  ****             used_mem_head->prev = NULL;
GAS LISTING /tmp/ccT3GgbJ.s 			page 11


 347              		.loc 1 148 12 is_stmt 0
 348 01dc E38007FE 		beqz	a5,.L28
 149:src/my_mem.c  ****     }
 349              		.loc 1 149 13 is_stmt 1
 149:src/my_mem.c  ****     }
 350              		.loc 1 149 33 is_stmt 0
 351 01e0 23B40700 		sd	zero,8(a5)
 352 01e4 6FF09FFD 		j	.L28
 353              		.cfi_endproc
 354              	.LFE3:
 356              		.align	2
 357              		.globl	__mem_alloc
 359              	__mem_alloc:
 360              	.LFB4:
 162:src/my_mem.c  **** 
 163:src/my_mem.c  **** 
 164:src/my_mem.c  **** 
 165:src/my_mem.c  **** 
 166:src/my_mem.c  **** void*
 167:src/my_mem.c  **** __mem_alloc(size_t bytes)
 168:src/my_mem.c  **** {
 361              		.loc 1 168 1 is_stmt 1
 362              		.cfi_startproc
 363              	.LVL12:
 364 01e8 130101FE 		addi	sp,sp,-32
 365              		.cfi_def_cfa_offset 32
 366 01ec 233C1100 		sd	ra,24(sp)
 367 01f0 23388100 		sd	s0,16(sp)
 368 01f4 23349100 		sd	s1,8(sp)
 369 01f8 23302101 		sd	s2,0(sp)
 370              		.cfi_offset 1, -8
 371              		.cfi_offset 8, -16
 372              		.cfi_offset 9, -24
 373              		.cfi_offset 18, -32
 374 01fc 13040102 		addi	s0,sp,32
 375              		.cfi_def_cfa 8, 0
 169:src/my_mem.c  ****     // Initialize if necessary(This is done only once)
 170:src/my_mem.c  ****     if (free_mem_head == NULL && beginning == 0)
 376              		.loc 1 170 5
 377              		.loc 1 170 23 is_stmt 0
 378 0200 97070000 		ld	a5,free_mem_head
 378      83B70700 
 379              		.loc 1 170 8
 380 0208 63820702 		beqz	a5,.L41
 381              	.L32:
 171:src/my_mem.c  ****     {
 172:src/my_mem.c  ****         beginning = 1;
 173:src/my_mem.c  ****         free_mem_head = (struct mem_block*) HEAP_START_ADDR;
 174:src/my_mem.c  ****         free_mem_head->size = ((uint64)HEAP_END_ADDR - (uint64)HEAP_START_ADDR) - sizeof(struct mem
 175:src/my_mem.c  **** 
 176:src/my_mem.c  ****         free_mem_head->next = NULL;
 177:src/my_mem.c  ****         free_mem_head->prev = NULL;
 178:src/my_mem.c  ****     }
 179:src/my_mem.c  **** 
 180:src/my_mem.c  ****     size_t blocks = (bytes % MEM_BLOCK_SIZE > 0) ? (bytes / MEM_BLOCK_SIZE + 1) : (bytes / MEM_BLOC
 382              		.loc 1 180 5 is_stmt 1
 383              		.loc 1 180 28 is_stmt 0
GAS LISTING /tmp/ccT3GgbJ.s 			page 12


 384 020c 9377F503 		andi	a5,a0,63
 385              		.loc 1 180 81
 386 0210 63820706 		beqz	a5,.L33
 387              		.loc 1 180 59 discriminator 1
 388 0214 13556500 		srli	a0,a0,6
 389              	.LVL13:
 390              		.loc 1 180 81 discriminator 1
 391 0218 13091500 		addi	s2,a0,1
 392              	.L34:
 393              	.LVL14:
 181:src/my_mem.c  **** 
 182:src/my_mem.c  ****     size_t allocate = blocks * MEM_BLOCK_SIZE; // Now this is in bytes
 394              		.loc 1 182 5 is_stmt 1 discriminator 4
 395              		.loc 1 182 12 is_stmt 0 discriminator 4
 396 021c 13196900 		slli	s2,s2,6
 397              	.LVL15:
 183:src/my_mem.c  **** 
 184:src/my_mem.c  ****     for (struct mem_block* curr = free_mem_head; curr != NULL; curr = curr->next)
 398              		.loc 1 184 5 is_stmt 1 discriminator 4
 399              	.LBB4:
 400              		.loc 1 184 10 discriminator 4
 401              		.loc 1 184 28 is_stmt 0 discriminator 4
 402 0220 97040000 		ld	s1,free_mem_head
 402      83B40400 
 403              	.LVL16:
 404              		.loc 1 184 5 discriminator 4
 405 0228 6F000009 		j	.L35
 406              	.LVL17:
 407              	.L41:
 408              	.LBE4:
 170:src/my_mem.c  ****     {
 409              		.loc 1 170 44 discriminator 1
 410 022c 97070000 		lw	a5,beginning
 410      83A70700 
 170:src/my_mem.c  ****     {
 411              		.loc 1 170 31 discriminator 1
 412 0234 E39C07FC 		bnez	a5,.L32
 172:src/my_mem.c  ****         free_mem_head = (struct mem_block*) HEAP_START_ADDR;
 413              		.loc 1 172 9 is_stmt 1
 172:src/my_mem.c  ****         free_mem_head = (struct mem_block*) HEAP_START_ADDR;
 414              		.loc 1 172 19 is_stmt 0
 415 0238 93071000 		li	a5,1
 416 023c 17070000 		sw	a5,beginning,a4
 416      2320F700 
 173:src/my_mem.c  ****         free_mem_head->size = ((uint64)HEAP_END_ADDR - (uint64)HEAP_START_ADDR) - sizeof(struct mem
 417              		.loc 1 173 9 is_stmt 1
 173:src/my_mem.c  ****         free_mem_head->size = ((uint64)HEAP_END_ADDR - (uint64)HEAP_START_ADDR) - sizeof(struct mem
 418              		.loc 1 173 23 is_stmt 0
 419 0244 97070000 		ld	a5,HEAP_START_ADDR
 419      83B70700 
 420 024c 17070000 		sd	a5,free_mem_head,a4
 420      2330F700 
 174:src/my_mem.c  **** 
 421              		.loc 1 174 9 is_stmt 1
 174:src/my_mem.c  **** 
 422              		.loc 1 174 32 is_stmt 0
 423 0254 17070000 		ld	a4,HEAP_END_ADDR
GAS LISTING /tmp/ccT3GgbJ.s 			page 13


 423      03370700 
 174:src/my_mem.c  **** 
 424              		.loc 1 174 54
 425 025c 3307F740 		sub	a4,a4,a5
 174:src/my_mem.c  **** 
 426              		.loc 1 174 81
 427 0260 130787FE 		addi	a4,a4,-24
 174:src/my_mem.c  **** 
 428              		.loc 1 174 29
 429 0264 23B0E700 		sd	a4,0(a5)
 176:src/my_mem.c  ****         free_mem_head->prev = NULL;
 430              		.loc 1 176 9 is_stmt 1
 176:src/my_mem.c  ****         free_mem_head->prev = NULL;
 431              		.loc 1 176 29 is_stmt 0
 432 0268 23B80700 		sd	zero,16(a5)
 177:src/my_mem.c  ****     }
 433              		.loc 1 177 9 is_stmt 1
 177:src/my_mem.c  ****     }
 434              		.loc 1 177 29 is_stmt 0
 435 026c 23B40700 		sd	zero,8(a5)
 436 0270 6FF0DFF9 		j	.L32
 437              	.L33:
 180:src/my_mem.c  **** 
 438              		.loc 1 180 81 discriminator 2
 439 0274 13596500 		srli	s2,a0,6
 440 0278 6FF05FFA 		j	.L34
 441              	.LVL18:
 442              	.L42:
 443              	.LBB6:
 185:src/my_mem.c  ****     {
 186:src/my_mem.c  ****         /* FIRST FIT */
 187:src/my_mem.c  ****         if (curr->size < allocate)
 188:src/my_mem.c  ****             continue;
 189:src/my_mem.c  ****         else if (curr->size == allocate)
 190:src/my_mem.c  ****         {
 191:src/my_mem.c  ****             free_remove(curr);
 444              		.loc 1 191 13 is_stmt 1
 445 027c 13850400 		mv	a0,s1
 446 0280 97000000 		call	free_remove
 446      E7800000 
 447              	.LVL19:
 192:src/my_mem.c  ****             used_insert(curr);
 448              		.loc 1 192 13
 449 0288 13850400 		mv	a0,s1
 450 028c 97000000 		call	used_insert
 450      E7800000 
 451              	.LVL20:
 193:src/my_mem.c  **** 
 194:src/my_mem.c  ****             return (void*)((char*)curr + sizeof(struct mem_block));
 452              		.loc 1 194 13
 453              		.loc 1 194 20 is_stmt 0
 454 0294 93848401 		addi	s1,s1,24
 455              	.LVL21:
 456              	.L31:
 457              	.LBE6:
 195:src/my_mem.c  ****         }
 196:src/my_mem.c  ****         else if (curr->size > allocate)
GAS LISTING /tmp/ccT3GgbJ.s 			page 14


 197:src/my_mem.c  ****         {
 198:src/my_mem.c  ****             free_remove(curr);
 199:src/my_mem.c  **** 
 200:src/my_mem.c  ****             size_t leftover_allocatable_size = curr->size - allocate; // Leftover
 201:src/my_mem.c  ****             leftover_allocatable_size -= sizeof(struct mem_block);
 202:src/my_mem.c  **** 
 203:src/my_mem.c  ****             struct mem_block* leftover = (struct mem_block*) ((char*)curr + sizeof(struct mem_block
 204:src/my_mem.c  ****             leftover->prev = NULL;
 205:src/my_mem.c  ****             leftover->next = NULL;
 206:src/my_mem.c  ****             leftover->size = leftover_allocatable_size;
 207:src/my_mem.c  **** 
 208:src/my_mem.c  ****             curr->size = allocate;
 209:src/my_mem.c  **** 
 210:src/my_mem.c  ****             free_insert(leftover);
 211:src/my_mem.c  ****             used_insert(curr);
 212:src/my_mem.c  **** 
 213:src/my_mem.c  ****             return (void*)((char*)curr + sizeof(struct mem_block));
 214:src/my_mem.c  ****         }
 215:src/my_mem.c  ****     }
 216:src/my_mem.c  **** 
 217:src/my_mem.c  ****     // There is not enough space
 218:src/my_mem.c  ****     return NULL;
 219:src/my_mem.c  **** }
 458              		.loc 1 219 1
 459 0298 13850400 		mv	a0,s1
 460 029c 83308101 		ld	ra,24(sp)
 461              		.cfi_remember_state
 462              		.cfi_restore 1
 463 02a0 03340101 		ld	s0,16(sp)
 464              		.cfi_restore 8
 465              		.cfi_def_cfa 2, 32
 466 02a4 83348100 		ld	s1,8(sp)
 467              		.cfi_restore 9
 468 02a8 03390100 		ld	s2,0(sp)
 469              		.cfi_restore 18
 470              	.LVL22:
 471 02ac 13010102 		addi	sp,sp,32
 472              		.cfi_def_cfa_offset 0
 473 02b0 67800000 		jr	ra
 474              	.LVL23:
 475              	.L36:
 476              		.cfi_restore_state
 477              	.LBB7:
 184:src/my_mem.c  ****     {
 478              		.loc 1 184 64 is_stmt 1 discriminator 2
 184:src/my_mem.c  ****     {
 479              		.loc 1 184 69 is_stmt 0 discriminator 2
 480 02b4 83B40401 		ld	s1,16(s1)
 481              	.LVL24:
 482              	.L35:
 184:src/my_mem.c  ****     {
 483              		.loc 1 184 50 is_stmt 1 discriminator 1
 184:src/my_mem.c  ****     {
 484              		.loc 1 184 5 is_stmt 0 discriminator 1
 485 02b8 E38004FE 		beqz	s1,.L31
 187:src/my_mem.c  ****             continue;
 486              		.loc 1 187 9 is_stmt 1
GAS LISTING /tmp/ccT3GgbJ.s 			page 15


 187:src/my_mem.c  ****             continue;
 487              		.loc 1 187 17 is_stmt 0
 488 02bc 83B70400 		ld	a5,0(s1)
 187:src/my_mem.c  ****             continue;
 489              		.loc 1 187 12
 490 02c0 E3EA27FF 		bltu	a5,s2,.L36
 189:src/my_mem.c  ****         {
 491              		.loc 1 189 14 is_stmt 1
 189:src/my_mem.c  ****         {
 492              		.loc 1 189 17 is_stmt 0
 493 02c4 E38C27FB 		beq	a5,s2,.L42
 196:src/my_mem.c  ****         {
 494              		.loc 1 196 14 is_stmt 1
 196:src/my_mem.c  ****         {
 495              		.loc 1 196 17 is_stmt 0
 496 02c8 E376F9FE 		bleu	a5,s2,.L36
 497              	.LBB5:
 198:src/my_mem.c  **** 
 498              		.loc 1 198 13 is_stmt 1
 499 02cc 13850400 		mv	a0,s1
 500 02d0 97000000 		call	free_remove
 500      E7800000 
 501              	.LVL25:
 200:src/my_mem.c  ****             leftover_allocatable_size -= sizeof(struct mem_block);
 502              		.loc 1 200 13
 200:src/my_mem.c  ****             leftover_allocatable_size -= sizeof(struct mem_block);
 503              		.loc 1 200 52 is_stmt 0
 504 02d8 83B70400 		ld	a5,0(s1)
 200:src/my_mem.c  ****             leftover_allocatable_size -= sizeof(struct mem_block);
 505              		.loc 1 200 20
 506 02dc B3872741 		sub	a5,a5,s2
 507              	.LVL26:
 201:src/my_mem.c  **** 
 508              		.loc 1 201 13 is_stmt 1
 201:src/my_mem.c  **** 
 509              		.loc 1 201 39 is_stmt 0
 510 02e0 938787FE 		addi	a5,a5,-24
 511              	.LVL27:
 203:src/my_mem.c  ****             leftover->prev = NULL;
 512              		.loc 1 203 13 is_stmt 1
 203:src/my_mem.c  ****             leftover->prev = NULL;
 513              		.loc 1 203 102 is_stmt 0
 514 02e4 13058901 		addi	a0,s2,24
 203:src/my_mem.c  ****             leftover->prev = NULL;
 515              		.loc 1 203 31
 516 02e8 3385A400 		add	a0,s1,a0
 517              	.LVL28:
 204:src/my_mem.c  ****             leftover->next = NULL;
 518              		.loc 1 204 13 is_stmt 1
 204:src/my_mem.c  ****             leftover->next = NULL;
 519              		.loc 1 204 28 is_stmt 0
 520 02ec 23340500 		sd	zero,8(a0)
 205:src/my_mem.c  ****             leftover->size = leftover_allocatable_size;
 521              		.loc 1 205 13 is_stmt 1
 205:src/my_mem.c  ****             leftover->size = leftover_allocatable_size;
 522              		.loc 1 205 28 is_stmt 0
 523 02f0 23380500 		sd	zero,16(a0)
GAS LISTING /tmp/ccT3GgbJ.s 			page 16


 206:src/my_mem.c  **** 
 524              		.loc 1 206 13 is_stmt 1
 206:src/my_mem.c  **** 
 525              		.loc 1 206 28 is_stmt 0
 526 02f4 2330F500 		sd	a5,0(a0)
 208:src/my_mem.c  **** 
 527              		.loc 1 208 13 is_stmt 1
 208:src/my_mem.c  **** 
 528              		.loc 1 208 24 is_stmt 0
 529 02f8 23B02401 		sd	s2,0(s1)
 210:src/my_mem.c  ****             used_insert(curr);
 530              		.loc 1 210 13 is_stmt 1
 531 02fc 97000000 		call	free_insert
 531      E7800000 
 532              	.LVL29:
 211:src/my_mem.c  **** 
 533              		.loc 1 211 13
 534 0304 13850400 		mv	a0,s1
 535 0308 97000000 		call	used_insert
 535      E7800000 
 536              	.LVL30:
 213:src/my_mem.c  ****         }
 537              		.loc 1 213 13
 213:src/my_mem.c  ****         }
 538              		.loc 1 213 20 is_stmt 0
 539 0310 93848401 		addi	s1,s1,24
 540              	.LVL31:
 541 0314 6FF05FF8 		j	.L31
 542              	.LBE5:
 543              	.LBE7:
 544              		.cfi_endproc
 545              	.LFE4:
 547              		.align	2
 548              		.globl	__mem_free
 550              	__mem_free:
 551              	.LFB5:
 220:src/my_mem.c  **** 
 221:src/my_mem.c  **** 
 222:src/my_mem.c  **** 
 223:src/my_mem.c  **** int
 224:src/my_mem.c  **** __mem_free(void* allocated_address)
 225:src/my_mem.c  **** {
 552              		.loc 1 225 1 is_stmt 1
 553              		.cfi_startproc
 554              	.LVL32:
 226:src/my_mem.c  ****     /* Nothing to free */
 227:src/my_mem.c  ****     if (allocated_address == NULL || used_mem_head == NULL)
 555              		.loc 1 227 5
 556              		.loc 1 227 8 is_stmt 0
 557 0318 630A0510 		beqz	a0,.L47
 225:src/my_mem.c  ****     /* Nothing to free */
 558              		.loc 1 225 1 discriminator 1
 559 031c 130101FE 		addi	sp,sp,-32
 560              		.cfi_def_cfa_offset 32
 561 0320 233C1100 		sd	ra,24(sp)
 562 0324 23388100 		sd	s0,16(sp)
 563 0328 23349100 		sd	s1,8(sp)
GAS LISTING /tmp/ccT3GgbJ.s 			page 17


 564 032c 23302101 		sd	s2,0(sp)
 565              		.cfi_offset 1, -8
 566              		.cfi_offset 8, -16
 567              		.cfi_offset 9, -24
 568              		.cfi_offset 18, -32
 569 0330 13040102 		addi	s0,sp,32
 570              		.cfi_def_cfa 8, 0
 571 0334 93040500 		mv	s1,a0
 572              		.loc 1 227 52 discriminator 1
 573 0338 97070000 		ld	a5,used_mem_head
 573      83B70700 
 574              		.loc 1 227 35 discriminator 1
 575 0340 638A070E 		beqz	a5,.L48
 228:src/my_mem.c  ****         return -1;
 229:src/my_mem.c  **** 
 230:src/my_mem.c  ****     if ((char*)allocated_address < (char*)HEAP_START_ADDR || (char*)allocated_address > (char*)HEAP
 576              		.loc 1 230 5 is_stmt 1
 577              		.loc 1 230 36 is_stmt 0
 578 0344 17070000 		ld	a4,HEAP_START_ADDR
 578      03370700 
 579              		.loc 1 230 8
 580 034c 6368E50E 		bgtu	a4,a0,.L49
 581              		.loc 1 230 89 discriminator 1
 582 0350 17070000 		ld	a4,HEAP_END_ADDR
 582      03370700 
 583              		.loc 1 230 59 discriminator 1
 584 0358 6366A70E 		bltu	a4,a0,.L50
 231:src/my_mem.c  ****         return -1;
 232:src/my_mem.c  **** 
 233:src/my_mem.c  ****     // Because we keep the list sorted
 234:src/my_mem.c  ****     if ((char*)allocated_address < (char*)used_mem_head)
 585              		.loc 1 234 5 is_stmt 1
 586              		.loc 1 234 8 is_stmt 0
 587 035c 6368F50E 		bgtu	a5,a0,.L51
 235:src/my_mem.c  ****         return -1;
 236:src/my_mem.c  **** 
 237:src/my_mem.c  ****     struct mem_block* block_to_free = (struct mem_block*)((char*)allocated_address - sizeof(struct 
 588              		.loc 1 237 5 is_stmt 1
 589              		.loc 1 237 23 is_stmt 0
 590 0360 130985FE 		addi	s2,a0,-24
 591              	.LVL33:
 238:src/my_mem.c  **** 
 239:src/my_mem.c  ****     used_remove(block_to_free);
 592              		.loc 1 239 5 is_stmt 1
 593 0364 13050900 		mv	a0,s2
 594              	.LVL34:
 595 0368 97000000 		call	used_remove
 595      E7800000 
 596              	.LVL35:
 240:src/my_mem.c  ****     free_insert(block_to_free);
 597              		.loc 1 240 5
 598 0370 13050900 		mv	a0,s2
 599 0374 97000000 		call	free_insert
 599      E7800000 
 600              	.LVL36:
 241:src/my_mem.c  **** 
 242:src/my_mem.c  ****     /* Merge */
GAS LISTING /tmp/ccT3GgbJ.s 			page 18


 243:src/my_mem.c  ****     struct mem_block* prev = block_to_free->prev;
 601              		.loc 1 243 5
 602              		.loc 1 243 23 is_stmt 0
 603 037c 83B704FF 		ld	a5,-16(s1)
 604              	.LVL37:
 244:src/my_mem.c  ****     struct mem_block* next = block_to_free->next;
 605              		.loc 1 244 5 is_stmt 1
 606              		.loc 1 244 23 is_stmt 0
 607 0380 03B784FF 		ld	a4,-8(s1)
 608              	.LVL38:
 245:src/my_mem.c  **** 
 246:src/my_mem.c  ****     /* Merge with Left */
 247:src/my_mem.c  ****     if (prev != NULL && ((char*)prev + sizeof(struct mem_block) + prev->size) >= (char*)block_to_fr
 609              		.loc 1 247 5 is_stmt 1
 610              		.loc 1 247 8 is_stmt 0
 611 0384 63880706 		beqz	a5,.L45
 612              		.loc 1 247 71 discriminator 1
 613 0388 83B60700 		ld	a3,0(a5)
 614              		.loc 1 247 65 discriminator 1
 615 038c 13868601 		addi	a2,a3,24
 616 0390 3386C700 		add	a2,a5,a2
 617              		.loc 1 247 22 discriminator 1
 618 0394 63602607 		bltu	a2,s2,.L45
 248:src/my_mem.c  ****     {
 249:src/my_mem.c  ****         prev->size += sizeof(struct mem_block) + block_to_free->size;
 619              		.loc 1 249 9 is_stmt 1
 620              		.loc 1 249 63 is_stmt 0
 621 0398 03B684FE 		ld	a2,-24(s1)
 622              		.loc 1 249 20
 623 039c B386C600 		add	a3,a3,a2
 624 03a0 93868601 		addi	a3,a3,24
 625 03a4 23B0D700 		sd	a3,0(a5)
 250:src/my_mem.c  ****         prev->next = block_to_free->next;
 626              		.loc 1 250 9 is_stmt 1
 627              		.loc 1 250 35 is_stmt 0
 628 03a8 83B684FF 		ld	a3,-8(s1)
 629              		.loc 1 250 20
 630 03ac 23B8D700 		sd	a3,16(a5)
 251:src/my_mem.c  **** 
 252:src/my_mem.c  ****         if (next != NULL)
 631              		.loc 1 252 9 is_stmt 1
 632              		.loc 1 252 12 is_stmt 0
 633 03b0 63040700 		beqz	a4,.L46
 253:src/my_mem.c  ****             next->prev = prev;
 634              		.loc 1 253 13 is_stmt 1
 635              		.loc 1 253 24 is_stmt 0
 636 03b4 2334F700 		sd	a5,8(a4)
 637              	.L46:
 254:src/my_mem.c  **** 
 255:src/my_mem.c  ****         /* Merge with Right as well */
 256:src/my_mem.c  ****         if (next != NULL && ((char*)prev + sizeof(struct mem_block) + prev->size) >= (char*)next)
 638              		.loc 1 256 9 is_stmt 1
 639              		.loc 1 256 12 is_stmt 0
 640 03b8 630E0708 		beqz	a4,.L52
 641              		.loc 1 256 75 discriminator 1
 642 03bc 83B60700 		ld	a3,0(a5)
 643              		.loc 1 256 69 discriminator 1
GAS LISTING /tmp/ccT3GgbJ.s 			page 19


 644 03c0 13868601 		addi	a2,a3,24
 645 03c4 3386C700 		add	a2,a5,a2
 646              		.loc 1 256 26 discriminator 1
 647 03c8 636AE608 		bltu	a2,a4,.L53
 257:src/my_mem.c  ****         {
 258:src/my_mem.c  ****             prev->size += sizeof(struct mem_block) + next->size;
 648              		.loc 1 258 13 is_stmt 1
 649              		.loc 1 258 58 is_stmt 0
 650 03cc 03360700 		ld	a2,0(a4)
 651              		.loc 1 258 24
 652 03d0 B386C600 		add	a3,a3,a2
 653 03d4 93868601 		addi	a3,a3,24
 654 03d8 23B0D700 		sd	a3,0(a5)
 259:src/my_mem.c  ****             prev->next = next->next;
 655              		.loc 1 259 13 is_stmt 1
 656              		.loc 1 259 30 is_stmt 0
 657 03dc 03370701 		ld	a4,16(a4)
 658              	.LVL39:
 659              		.loc 1 259 24
 660 03e0 23B8E700 		sd	a4,16(a5)
 260:src/my_mem.c  **** 
 261:src/my_mem.c  ****             if (next->next != NULL)
 661              		.loc 1 261 13 is_stmt 1
 662              		.loc 1 261 16 is_stmt 0
 663 03e4 63000708 		beqz	a4,.L54
 262:src/my_mem.c  ****                 next->next->prev = prev;
 664              		.loc 1 262 17 is_stmt 1
 665              		.loc 1 262 34 is_stmt 0
 666 03e8 2334F700 		sd	a5,8(a4)
 263:src/my_mem.c  ****         }
 264:src/my_mem.c  ****     }
 265:src/my_mem.c  ****         /* Merge only with Right */
 266:src/my_mem.c  ****     else if (next != NULL && ((char*)block_to_free + sizeof(struct mem_block) + block_to_free->size
 267:src/my_mem.c  ****     {
 268:src/my_mem.c  ****         block_to_free->size += sizeof(struct mem_block) + next->size;
 269:src/my_mem.c  ****         block_to_free->next = next->next;
 270:src/my_mem.c  **** 
 271:src/my_mem.c  ****         if (next->next != NULL)
 272:src/my_mem.c  ****             next->next->prev = block_to_free;
 273:src/my_mem.c  ****     }
 274:src/my_mem.c  **** 
 275:src/my_mem.c  ****     return 0;
 667              		.loc 1 275 12
 668 03ec 13050000 		li	a0,0
 669 03f0 6F008008 		j	.L44
 670              	.LVL40:
 671              	.L45:
 266:src/my_mem.c  ****     {
 672              		.loc 1 266 10 is_stmt 1
 266:src/my_mem.c  ****     {
 673              		.loc 1 266 13 is_stmt 0
 674 03f4 630C0706 		beqz	a4,.L55
 266:src/my_mem.c  ****     {
 675              		.loc 1 266 94 discriminator 1
 676 03f8 83B784FE 		ld	a5,-24(s1)
 677              	.LVL41:
 266:src/my_mem.c  ****     {
GAS LISTING /tmp/ccT3GgbJ.s 			page 20


 678              		.loc 1 266 79 discriminator 1
 679 03fc B386F400 		add	a3,s1,a5
 266:src/my_mem.c  ****     {
 680              		.loc 1 266 27 discriminator 1
 681 0400 63EAE606 		bltu	a3,a4,.L56
 268:src/my_mem.c  ****         block_to_free->next = next->next;
 682              		.loc 1 268 9 is_stmt 1
 268:src/my_mem.c  ****         block_to_free->next = next->next;
 683              		.loc 1 268 63 is_stmt 0
 684 0404 83360700 		ld	a3,0(a4)
 268:src/my_mem.c  ****         block_to_free->next = next->next;
 685              		.loc 1 268 29
 686 0408 B387D700 		add	a5,a5,a3
 687 040c 93878701 		addi	a5,a5,24
 688 0410 23B4F4FE 		sd	a5,-24(s1)
 269:src/my_mem.c  **** 
 689              		.loc 1 269 9 is_stmt 1
 269:src/my_mem.c  **** 
 690              		.loc 1 269 35 is_stmt 0
 691 0414 83370701 		ld	a5,16(a4)
 269:src/my_mem.c  **** 
 692              		.loc 1 269 29
 693 0418 23BCF4FE 		sd	a5,-8(s1)
 271:src/my_mem.c  ****             next->next->prev = block_to_free;
 694              		.loc 1 271 9 is_stmt 1
 271:src/my_mem.c  ****             next->next->prev = block_to_free;
 695              		.loc 1 271 12 is_stmt 0
 696 041c 638A0706 		beqz	a5,.L57
 272:src/my_mem.c  ****     }
 697              		.loc 1 272 13 is_stmt 1
 272:src/my_mem.c  ****     }
 698              		.loc 1 272 30 is_stmt 0
 699 0420 23B42701 		sd	s2,8(a5)
 700              	.LVL42:
 701              		.loc 1 275 12
 702 0424 13050000 		li	a0,0
 703 0428 6F000005 		j	.L44
 704              	.LVL43:
 705              	.L47:
 706              		.cfi_def_cfa_register 2
 707              		.cfi_restore 1
 708              		.cfi_restore 8
 709              		.cfi_restore 9
 710              		.cfi_restore 18
 228:src/my_mem.c  **** 
 711              		.loc 1 228 16
 712 042c 1305F0FF 		li	a0,-1
 713              	.LVL44:
 276:src/my_mem.c  **** }...
 714              		.loc 1 276 1
 715 0430 67800000 		ret
 716              	.LVL45:
 717              	.L48:
 718              		.cfi_def_cfa_register 8
 719              		.cfi_offset 1, -8
 720              		.cfi_offset 8, -16
 721              		.cfi_offset 9, -24
GAS LISTING /tmp/ccT3GgbJ.s 			page 21


 722              		.cfi_offset 18, -32
 228:src/my_mem.c  **** 
 723              		.loc 1 228 16
 724 0434 1305F0FF 		li	a0,-1
 725 0438 6F000004 		j	.L44
 726              	.L49:
 231:src/my_mem.c  ****         return -1;
 727              		.loc 1 231 16
 728 043c 1305F0FF 		li	a0,-1
 729 0440 6F008003 		j	.L44
 730              	.L50:
 731 0444 1305F0FF 		li	a0,-1
 732 0448 6F000003 		j	.L44
 733              	.L51:
 235:src/my_mem.c  ****         return -1;
 734              		.loc 1 235 16
 735 044c 1305F0FF 		li	a0,-1
 736 0450 6F008002 		j	.L44
 737              	.LVL46:
 738              	.L52:
 275:src/my_mem.c  ****     return 0;
 739              		.loc 1 275 12
 740 0454 13050000 		li	a0,0
 741 0458 6F000002 		j	.L44
 742              	.L53:
 743 045c 13050000 		li	a0,0
 744 0460 6F008001 		j	.L44
 745              	.LVL47:
 746              	.L54:
 747 0464 13050000 		li	a0,0
 748 0468 6F000001 		j	.L44
 749              	.LVL48:
 750              	.L55:
 751 046c 13050000 		li	a0,0
 752 0470 6F008000 		j	.L44
 753              	.LVL49:
 754              	.L56:
 755 0474 13050000 		li	a0,0
 756              	.LVL50:
 757              	.L44:
 758              		.loc 1 276 1
 759 0478 83308101 		ld	ra,24(sp)
 760              		.cfi_remember_state
 761              		.cfi_restore 1
 762 047c 03340101 		ld	s0,16(sp)
 763              		.cfi_restore 8
 764              		.cfi_def_cfa 2, 32
 765 0480 83348100 		ld	s1,8(sp)
 766              		.cfi_restore 9
 767              	.LVL51:
 768 0484 03390100 		ld	s2,0(sp)
 769              		.cfi_restore 18
 770 0488 13010102 		addi	sp,sp,32
 771              		.cfi_def_cfa_offset 0
 772 048c 67800000 		jr	ra
 773              	.LVL52:
 774              	.L57:
GAS LISTING /tmp/ccT3GgbJ.s 			page 22


 775              		.cfi_restore_state
 275:src/my_mem.c  ****     return 0;
 776              		.loc 1 275 12
 777 0490 13050000 		li	a0,0
 778 0494 6FF05FFE 		j	.L44
 779              		.cfi_endproc
 780              	.LFE5:
 782              		.section	.sbss,"aw",@nobits
 783              		.align	3
 786              	beginning:
 787 0000 00000000 		.zero	4
 788 0004 00000000 		.zero	4
 791              	used_mem_head:
 792 0008 00000000 		.zero	8
 792      00000000 
 795              	free_mem_head:
 796 0010 00000000 		.zero	8
 796      00000000 
 797              		.text
 798              	.Letext0:
 799              		.file 2 "src/../lib/hw.h"
GAS LISTING /tmp/ccT3GgbJ.s 			page 23


DEFINED SYMBOLS
                            *ABS*:0000000000000000 my_mem.c
     /tmp/ccT3GgbJ.s:10     .text:0000000000000000 free_insert
     /tmp/ccT3GgbJ.s:14     .text:0000000000000000 .L0 
     /tmp/ccT3GgbJ.s:16     .text:0000000000000000 .L0 
     /tmp/ccT3GgbJ.s:17     .text:0000000000000004 .L0 
     /tmp/ccT3GgbJ.s:19     .text:0000000000000008 .L0 
     /tmp/ccT3GgbJ.s:21     .text:000000000000000c .L0 
     /tmp/ccT3GgbJ.s:23     .text:000000000000000c .L0 
     /tmp/ccT3GgbJ.s:24     .text:000000000000000c .L0 
     /tmp/ccT3GgbJ.s:26     .text:0000000000000014 .L0 
     /tmp/ccT3GgbJ.s:28     .text:0000000000000018 .L0 
     /tmp/ccT3GgbJ.s:30     .text:0000000000000020 .L0 
     /tmp/ccT3GgbJ.s:32     .text:0000000000000024 .L0 
     /tmp/ccT3GgbJ.s:795    .sbss:0000000000000010 free_mem_head
     /tmp/ccT3GgbJ.s:33     .text:0000000000000024 .L0 
     /tmp/ccT3GgbJ.s:35     .text:000000000000002c .L0 
     /tmp/ccT3GgbJ.s:37     .text:0000000000000030 .L0 
     /tmp/ccT3GgbJ.s:38     .text:0000000000000030 .L0 
     /tmp/ccT3GgbJ.s:40     .text:0000000000000034 .L0 
     /tmp/ccT3GgbJ.s:41     .text:0000000000000034 .L0 
     /tmp/ccT3GgbJ.s:43     .text:0000000000000038 .L0 
     /tmp/ccT3GgbJ.s:44     .text:0000000000000038 .L0 
     /tmp/ccT3GgbJ.s:46     .text:000000000000003c .L0 
     /tmp/ccT3GgbJ.s:47     .text:000000000000003c .L0 
     /tmp/ccT3GgbJ.s:49     .text:0000000000000040 .L0 
     /tmp/ccT3GgbJ.s:50     .text:0000000000000040 .L0 
     /tmp/ccT3GgbJ.s:53     .text:0000000000000048 .L0 
     /tmp/ccT3GgbJ.s:54     .text:000000000000004c .L0 
     /tmp/ccT3GgbJ.s:55     .text:000000000000004c .L0 
     /tmp/ccT3GgbJ.s:56     .text:000000000000004c .L0 
     /tmp/ccT3GgbJ.s:58     .text:0000000000000050 .L0 
     /tmp/ccT3GgbJ.s:61     .text:0000000000000054 .L0 
     /tmp/ccT3GgbJ.s:63     .text:0000000000000054 .L0 
     /tmp/ccT3GgbJ.s:64     .text:0000000000000054 .L0 
     /tmp/ccT3GgbJ.s:70     .text:0000000000000060 .L0 
     /tmp/ccT3GgbJ.s:71     .text:0000000000000060 .L0 
     /tmp/ccT3GgbJ.s:72     .text:0000000000000060 .L0 
     /tmp/ccT3GgbJ.s:76     .text:0000000000000064 .L0 
     /tmp/ccT3GgbJ.s:77     .text:0000000000000064 .L0 
     /tmp/ccT3GgbJ.s:79     .text:0000000000000068 .L0 
     /tmp/ccT3GgbJ.s:82     .text:000000000000006c .L0 
     /tmp/ccT3GgbJ.s:83     .text:000000000000006c .L0 
     /tmp/ccT3GgbJ.s:84     .text:000000000000006c .L0 
     /tmp/ccT3GgbJ.s:86     .text:0000000000000070 .L0 
     /tmp/ccT3GgbJ.s:91     .text:0000000000000078 .L0 
     /tmp/ccT3GgbJ.s:92     .text:0000000000000078 .L0 
     /tmp/ccT3GgbJ.s:94     .text:000000000000007c .L0 
     /tmp/ccT3GgbJ.s:95     .text:000000000000007c .L0 
     /tmp/ccT3GgbJ.s:97     .text:0000000000000080 .L0 
     /tmp/ccT3GgbJ.s:98     .text:0000000000000080 .L0 
     /tmp/ccT3GgbJ.s:100    .text:0000000000000084 .L0 
     /tmp/ccT3GgbJ.s:101    .text:0000000000000084 .L0 
     /tmp/ccT3GgbJ.s:103    .text:0000000000000088 .L0 
     /tmp/ccT3GgbJ.s:104    .text:0000000000000088 .L0 
     /tmp/ccT3GgbJ.s:107    .text:0000000000000090 .L0 
     /tmp/ccT3GgbJ.s:113    .text:0000000000000090 free_remove
GAS LISTING /tmp/ccT3GgbJ.s 			page 24


     /tmp/ccT3GgbJ.s:116    .text:0000000000000090 .L0 
     /tmp/ccT3GgbJ.s:118    .text:0000000000000090 .L0 
     /tmp/ccT3GgbJ.s:119    .text:0000000000000094 .L0 
     /tmp/ccT3GgbJ.s:121    .text:0000000000000098 .L0 
     /tmp/ccT3GgbJ.s:123    .text:000000000000009c .L0 
     /tmp/ccT3GgbJ.s:125    .text:000000000000009c .L0 
     /tmp/ccT3GgbJ.s:126    .text:000000000000009c .L0 
     /tmp/ccT3GgbJ.s:128    .text:00000000000000a4 .L0 
     /tmp/ccT3GgbJ.s:130    .text:00000000000000a8 .L0 
     /tmp/ccT3GgbJ.s:132    .text:00000000000000ac .L0 
     /tmp/ccT3GgbJ.s:133    .text:00000000000000ac .L0 
     /tmp/ccT3GgbJ.s:135    .text:00000000000000b0 .L0 
     /tmp/ccT3GgbJ.s:136    .text:00000000000000b0 .L0 
     /tmp/ccT3GgbJ.s:138    .text:00000000000000b4 .L0 
     /tmp/ccT3GgbJ.s:140    .text:00000000000000b8 .L0 
     /tmp/ccT3GgbJ.s:142    .text:00000000000000bc .L0 
     /tmp/ccT3GgbJ.s:143    .text:00000000000000bc .L0 
     /tmp/ccT3GgbJ.s:145    .text:00000000000000c0 .L0 
     /tmp/ccT3GgbJ.s:146    .text:00000000000000c0 .L0 
     /tmp/ccT3GgbJ.s:148    .text:00000000000000c4 .L0 
     /tmp/ccT3GgbJ.s:151    .text:00000000000000c8 .L0 
     /tmp/ccT3GgbJ.s:152    .text:00000000000000c8 .L0 
     /tmp/ccT3GgbJ.s:154    .text:00000000000000cc .L0 
     /tmp/ccT3GgbJ.s:155    .text:00000000000000cc .L0 
     /tmp/ccT3GgbJ.s:158    .text:00000000000000d0 .L0 
     /tmp/ccT3GgbJ.s:159    .text:00000000000000d4 .L0 
     /tmp/ccT3GgbJ.s:160    .text:00000000000000d4 .L0 
     /tmp/ccT3GgbJ.s:161    .text:00000000000000d4 .L0 
     /tmp/ccT3GgbJ.s:163    .text:00000000000000d8 .L0 
     /tmp/ccT3GgbJ.s:166    .text:00000000000000dc .L0 
     /tmp/ccT3GgbJ.s:168    .text:00000000000000dc .L0 
     /tmp/ccT3GgbJ.s:169    .text:00000000000000dc .L0 
     /tmp/ccT3GgbJ.s:171    .text:00000000000000e0 .L0 
     /tmp/ccT3GgbJ.s:173    .text:00000000000000e8 .L0 
     /tmp/ccT3GgbJ.s:174    .text:00000000000000e8 .L0 
     /tmp/ccT3GgbJ.s:176    .text:00000000000000ec .L0 
     /tmp/ccT3GgbJ.s:177    .text:00000000000000ec .L0 
     /tmp/ccT3GgbJ.s:179    .text:00000000000000f4 .L0 
     /tmp/ccT3GgbJ.s:185    .text:00000000000000f4 used_insert
     /tmp/ccT3GgbJ.s:188    .text:00000000000000f4 .L0 
     /tmp/ccT3GgbJ.s:190    .text:00000000000000f4 .L0 
     /tmp/ccT3GgbJ.s:191    .text:00000000000000f8 .L0 
     /tmp/ccT3GgbJ.s:193    .text:00000000000000fc .L0 
     /tmp/ccT3GgbJ.s:195    .text:0000000000000100 .L0 
     /tmp/ccT3GgbJ.s:197    .text:0000000000000100 .L0 
     /tmp/ccT3GgbJ.s:198    .text:0000000000000100 .L0 
     /tmp/ccT3GgbJ.s:200    .text:0000000000000108 .L0 
     /tmp/ccT3GgbJ.s:202    .text:000000000000010c .L0 
     /tmp/ccT3GgbJ.s:204    .text:0000000000000114 .L0 
     /tmp/ccT3GgbJ.s:206    .text:0000000000000118 .L0 
     /tmp/ccT3GgbJ.s:791    .sbss:0000000000000008 used_mem_head
     /tmp/ccT3GgbJ.s:207    .text:0000000000000118 .L0 
     /tmp/ccT3GgbJ.s:209    .text:0000000000000120 .L0 
     /tmp/ccT3GgbJ.s:211    .text:0000000000000124 .L0 
     /tmp/ccT3GgbJ.s:212    .text:0000000000000124 .L0 
     /tmp/ccT3GgbJ.s:214    .text:0000000000000128 .L0 
     /tmp/ccT3GgbJ.s:215    .text:0000000000000128 .L0 
GAS LISTING /tmp/ccT3GgbJ.s 			page 25


     /tmp/ccT3GgbJ.s:217    .text:000000000000012c .L0 
     /tmp/ccT3GgbJ.s:218    .text:000000000000012c .L0 
     /tmp/ccT3GgbJ.s:220    .text:0000000000000130 .L0 
     /tmp/ccT3GgbJ.s:221    .text:0000000000000130 .L0 
     /tmp/ccT3GgbJ.s:223    .text:0000000000000134 .L0 
     /tmp/ccT3GgbJ.s:224    .text:0000000000000134 .L0 
     /tmp/ccT3GgbJ.s:227    .text:000000000000013c .L0 
     /tmp/ccT3GgbJ.s:228    .text:0000000000000140 .L0 
     /tmp/ccT3GgbJ.s:229    .text:0000000000000140 .L0 
     /tmp/ccT3GgbJ.s:230    .text:0000000000000140 .L0 
     /tmp/ccT3GgbJ.s:232    .text:0000000000000144 .L0 
     /tmp/ccT3GgbJ.s:235    .text:0000000000000148 .L0 
     /tmp/ccT3GgbJ.s:237    .text:0000000000000148 .L0 
     /tmp/ccT3GgbJ.s:238    .text:0000000000000148 .L0 
     /tmp/ccT3GgbJ.s:244    .text:0000000000000154 .L0 
     /tmp/ccT3GgbJ.s:245    .text:0000000000000154 .L0 
     /tmp/ccT3GgbJ.s:246    .text:0000000000000154 .L0 
     /tmp/ccT3GgbJ.s:250    .text:0000000000000158 .L0 
     /tmp/ccT3GgbJ.s:251    .text:0000000000000158 .L0 
     /tmp/ccT3GgbJ.s:253    .text:000000000000015c .L0 
     /tmp/ccT3GgbJ.s:256    .text:0000000000000160 .L0 
     /tmp/ccT3GgbJ.s:257    .text:0000000000000160 .L0 
     /tmp/ccT3GgbJ.s:258    .text:0000000000000160 .L0 
     /tmp/ccT3GgbJ.s:260    .text:0000000000000164 .L0 
     /tmp/ccT3GgbJ.s:265    .text:000000000000016c .L0 
     /tmp/ccT3GgbJ.s:266    .text:000000000000016c .L0 
     /tmp/ccT3GgbJ.s:268    .text:0000000000000170 .L0 
     /tmp/ccT3GgbJ.s:269    .text:0000000000000170 .L0 
     /tmp/ccT3GgbJ.s:271    .text:0000000000000174 .L0 
     /tmp/ccT3GgbJ.s:272    .text:0000000000000174 .L0 
     /tmp/ccT3GgbJ.s:274    .text:0000000000000178 .L0 
     /tmp/ccT3GgbJ.s:275    .text:0000000000000178 .L0 
     /tmp/ccT3GgbJ.s:277    .text:000000000000017c .L0 
     /tmp/ccT3GgbJ.s:278    .text:000000000000017c .L0 
     /tmp/ccT3GgbJ.s:281    .text:0000000000000184 .L0 
     /tmp/ccT3GgbJ.s:287    .text:0000000000000184 used_remove
     /tmp/ccT3GgbJ.s:290    .text:0000000000000184 .L0 
     /tmp/ccT3GgbJ.s:292    .text:0000000000000184 .L0 
     /tmp/ccT3GgbJ.s:293    .text:0000000000000188 .L0 
     /tmp/ccT3GgbJ.s:295    .text:000000000000018c .L0 
     /tmp/ccT3GgbJ.s:297    .text:0000000000000190 .L0 
     /tmp/ccT3GgbJ.s:299    .text:0000000000000190 .L0 
     /tmp/ccT3GgbJ.s:300    .text:0000000000000190 .L0 
     /tmp/ccT3GgbJ.s:302    .text:0000000000000198 .L0 
     /tmp/ccT3GgbJ.s:304    .text:000000000000019c .L0 
     /tmp/ccT3GgbJ.s:306    .text:00000000000001a0 .L0 
     /tmp/ccT3GgbJ.s:307    .text:00000000000001a0 .L0 
     /tmp/ccT3GgbJ.s:309    .text:00000000000001a4 .L0 
     /tmp/ccT3GgbJ.s:310    .text:00000000000001a4 .L0 
     /tmp/ccT3GgbJ.s:312    .text:00000000000001a8 .L0 
     /tmp/ccT3GgbJ.s:314    .text:00000000000001ac .L0 
     /tmp/ccT3GgbJ.s:316    .text:00000000000001b0 .L0 
     /tmp/ccT3GgbJ.s:317    .text:00000000000001b0 .L0 
     /tmp/ccT3GgbJ.s:319    .text:00000000000001b4 .L0 
     /tmp/ccT3GgbJ.s:320    .text:00000000000001b4 .L0 
     /tmp/ccT3GgbJ.s:322    .text:00000000000001b8 .L0 
     /tmp/ccT3GgbJ.s:325    .text:00000000000001bc .L0 
GAS LISTING /tmp/ccT3GgbJ.s 			page 26


     /tmp/ccT3GgbJ.s:326    .text:00000000000001bc .L0 
     /tmp/ccT3GgbJ.s:328    .text:00000000000001c0 .L0 
     /tmp/ccT3GgbJ.s:329    .text:00000000000001c0 .L0 
     /tmp/ccT3GgbJ.s:332    .text:00000000000001c4 .L0 
     /tmp/ccT3GgbJ.s:333    .text:00000000000001c8 .L0 
     /tmp/ccT3GgbJ.s:334    .text:00000000000001c8 .L0 
     /tmp/ccT3GgbJ.s:335    .text:00000000000001c8 .L0 
     /tmp/ccT3GgbJ.s:337    .text:00000000000001cc .L0 
     /tmp/ccT3GgbJ.s:340    .text:00000000000001d0 .L0 
     /tmp/ccT3GgbJ.s:342    .text:00000000000001d0 .L0 
     /tmp/ccT3GgbJ.s:343    .text:00000000000001d0 .L0 
     /tmp/ccT3GgbJ.s:345    .text:00000000000001d4 .L0 
     /tmp/ccT3GgbJ.s:347    .text:00000000000001dc .L0 
     /tmp/ccT3GgbJ.s:348    .text:00000000000001dc .L0 
     /tmp/ccT3GgbJ.s:350    .text:00000000000001e0 .L0 
     /tmp/ccT3GgbJ.s:351    .text:00000000000001e0 .L0 
     /tmp/ccT3GgbJ.s:353    .text:00000000000001e8 .L0 
     /tmp/ccT3GgbJ.s:359    .text:00000000000001e8 __mem_alloc
     /tmp/ccT3GgbJ.s:362    .text:00000000000001e8 .L0 
     /tmp/ccT3GgbJ.s:364    .text:00000000000001e8 .L0 
     /tmp/ccT3GgbJ.s:365    .text:00000000000001ec .L0 
     /tmp/ccT3GgbJ.s:370    .text:00000000000001fc .L0 
     /tmp/ccT3GgbJ.s:371    .text:00000000000001fc .L0 
     /tmp/ccT3GgbJ.s:372    .text:00000000000001fc .L0 
     /tmp/ccT3GgbJ.s:373    .text:00000000000001fc .L0 
     /tmp/ccT3GgbJ.s:375    .text:0000000000000200 .L0 
     /tmp/ccT3GgbJ.s:377    .text:0000000000000200 .L0 
     /tmp/ccT3GgbJ.s:378    .text:0000000000000200 .L0 
     /tmp/ccT3GgbJ.s:380    .text:0000000000000208 .L0 
     /tmp/ccT3GgbJ.s:383    .text:000000000000020c .L0 
     /tmp/ccT3GgbJ.s:384    .text:000000000000020c .L0 
     /tmp/ccT3GgbJ.s:386    .text:0000000000000210 .L0 
     /tmp/ccT3GgbJ.s:388    .text:0000000000000214 .L0 
     /tmp/ccT3GgbJ.s:391    .text:0000000000000218 .L0 
     /tmp/ccT3GgbJ.s:395    .text:000000000000021c .L0 
     /tmp/ccT3GgbJ.s:396    .text:000000000000021c .L0 
     /tmp/ccT3GgbJ.s:400    .text:0000000000000220 .L0 
     /tmp/ccT3GgbJ.s:401    .text:0000000000000220 .L0 
     /tmp/ccT3GgbJ.s:402    .text:0000000000000220 .L0 
     /tmp/ccT3GgbJ.s:405    .text:0000000000000228 .L0 
     /tmp/ccT3GgbJ.s:786    .sbss:0000000000000000 beginning
     /tmp/ccT3GgbJ.s:410    .text:000000000000022c .L0 
     /tmp/ccT3GgbJ.s:412    .text:0000000000000234 .L0 
     /tmp/ccT3GgbJ.s:414    .text:0000000000000238 .L0 
     /tmp/ccT3GgbJ.s:415    .text:0000000000000238 .L0 
     /tmp/ccT3GgbJ.s:418    .text:0000000000000244 .L0 
     /tmp/ccT3GgbJ.s:419    .text:0000000000000244 .L0 
     /tmp/ccT3GgbJ.s:422    .text:0000000000000254 .L0 
     /tmp/ccT3GgbJ.s:423    .text:0000000000000254 .L0 
     /tmp/ccT3GgbJ.s:425    .text:000000000000025c .L0 
     /tmp/ccT3GgbJ.s:427    .text:0000000000000260 .L0 
     /tmp/ccT3GgbJ.s:429    .text:0000000000000264 .L0 
     /tmp/ccT3GgbJ.s:431    .text:0000000000000268 .L0 
     /tmp/ccT3GgbJ.s:432    .text:0000000000000268 .L0 
     /tmp/ccT3GgbJ.s:434    .text:000000000000026c .L0 
     /tmp/ccT3GgbJ.s:435    .text:000000000000026c .L0 
     /tmp/ccT3GgbJ.s:439    .text:0000000000000274 .L0 
GAS LISTING /tmp/ccT3GgbJ.s 			page 27


     /tmp/ccT3GgbJ.s:445    .text:000000000000027c .L0 
     /tmp/ccT3GgbJ.s:449    .text:0000000000000288 .L0 
     /tmp/ccT3GgbJ.s:453    .text:0000000000000294 .L0 
     /tmp/ccT3GgbJ.s:454    .text:0000000000000294 .L0 
     /tmp/ccT3GgbJ.s:459    .text:0000000000000298 .L0 
     /tmp/ccT3GgbJ.s:461    .text:00000000000002a0 .L0 
     /tmp/ccT3GgbJ.s:462    .text:00000000000002a0 .L0 
     /tmp/ccT3GgbJ.s:464    .text:00000000000002a4 .L0 
     /tmp/ccT3GgbJ.s:465    .text:00000000000002a4 .L0 
     /tmp/ccT3GgbJ.s:467    .text:00000000000002a8 .L0 
     /tmp/ccT3GgbJ.s:469    .text:00000000000002ac .L0 
     /tmp/ccT3GgbJ.s:472    .text:00000000000002b0 .L0 
     /tmp/ccT3GgbJ.s:476    .text:00000000000002b4 .L0 
     /tmp/ccT3GgbJ.s:479    .text:00000000000002b4 .L0 
     /tmp/ccT3GgbJ.s:480    .text:00000000000002b4 .L0 
     /tmp/ccT3GgbJ.s:484    .text:00000000000002b8 .L0 
     /tmp/ccT3GgbJ.s:485    .text:00000000000002b8 .L0 
     /tmp/ccT3GgbJ.s:487    .text:00000000000002bc .L0 
     /tmp/ccT3GgbJ.s:488    .text:00000000000002bc .L0 
     /tmp/ccT3GgbJ.s:490    .text:00000000000002c0 .L0 
     /tmp/ccT3GgbJ.s:492    .text:00000000000002c4 .L0 
     /tmp/ccT3GgbJ.s:493    .text:00000000000002c4 .L0 
     /tmp/ccT3GgbJ.s:495    .text:00000000000002c8 .L0 
     /tmp/ccT3GgbJ.s:496    .text:00000000000002c8 .L0 
     /tmp/ccT3GgbJ.s:499    .text:00000000000002cc .L0 
     /tmp/ccT3GgbJ.s:503    .text:00000000000002d8 .L0 
     /tmp/ccT3GgbJ.s:504    .text:00000000000002d8 .L0 
     /tmp/ccT3GgbJ.s:506    .text:00000000000002dc .L0 
     /tmp/ccT3GgbJ.s:509    .text:00000000000002e0 .L0 
     /tmp/ccT3GgbJ.s:510    .text:00000000000002e0 .L0 
     /tmp/ccT3GgbJ.s:513    .text:00000000000002e4 .L0 
     /tmp/ccT3GgbJ.s:514    .text:00000000000002e4 .L0 
     /tmp/ccT3GgbJ.s:516    .text:00000000000002e8 .L0 
     /tmp/ccT3GgbJ.s:519    .text:00000000000002ec .L0 
     /tmp/ccT3GgbJ.s:520    .text:00000000000002ec .L0 
     /tmp/ccT3GgbJ.s:522    .text:00000000000002f0 .L0 
     /tmp/ccT3GgbJ.s:523    .text:00000000000002f0 .L0 
     /tmp/ccT3GgbJ.s:525    .text:00000000000002f4 .L0 
     /tmp/ccT3GgbJ.s:526    .text:00000000000002f4 .L0 
     /tmp/ccT3GgbJ.s:528    .text:00000000000002f8 .L0 
     /tmp/ccT3GgbJ.s:529    .text:00000000000002f8 .L0 
     /tmp/ccT3GgbJ.s:531    .text:00000000000002fc .L0 
     /tmp/ccT3GgbJ.s:534    .text:0000000000000304 .L0 
     /tmp/ccT3GgbJ.s:538    .text:0000000000000310 .L0 
     /tmp/ccT3GgbJ.s:539    .text:0000000000000310 .L0 
     /tmp/ccT3GgbJ.s:544    .text:0000000000000318 .L0 
     /tmp/ccT3GgbJ.s:550    .text:0000000000000318 __mem_free
     /tmp/ccT3GgbJ.s:553    .text:0000000000000318 .L0 
     /tmp/ccT3GgbJ.s:555    .text:0000000000000318 .L0 
     /tmp/ccT3GgbJ.s:556    .text:0000000000000318 .L0 
     /tmp/ccT3GgbJ.s:557    .text:0000000000000318 .L0 
     /tmp/ccT3GgbJ.s:559    .text:000000000000031c .L0 
     /tmp/ccT3GgbJ.s:560    .text:0000000000000320 .L0 
     /tmp/ccT3GgbJ.s:565    .text:0000000000000330 .L0 
     /tmp/ccT3GgbJ.s:566    .text:0000000000000330 .L0 
     /tmp/ccT3GgbJ.s:567    .text:0000000000000330 .L0 
     /tmp/ccT3GgbJ.s:568    .text:0000000000000330 .L0 
GAS LISTING /tmp/ccT3GgbJ.s 			page 28


     /tmp/ccT3GgbJ.s:570    .text:0000000000000334 .L0 
     /tmp/ccT3GgbJ.s:573    .text:0000000000000338 .L0 
     /tmp/ccT3GgbJ.s:575    .text:0000000000000340 .L0 
     /tmp/ccT3GgbJ.s:577    .text:0000000000000344 .L0 
     /tmp/ccT3GgbJ.s:578    .text:0000000000000344 .L0 
     /tmp/ccT3GgbJ.s:580    .text:000000000000034c .L0 
     /tmp/ccT3GgbJ.s:582    .text:0000000000000350 .L0 
     /tmp/ccT3GgbJ.s:584    .text:0000000000000358 .L0 
     /tmp/ccT3GgbJ.s:586    .text:000000000000035c .L0 
     /tmp/ccT3GgbJ.s:587    .text:000000000000035c .L0 
     /tmp/ccT3GgbJ.s:589    .text:0000000000000360 .L0 
     /tmp/ccT3GgbJ.s:590    .text:0000000000000360 .L0 
     /tmp/ccT3GgbJ.s:593    .text:0000000000000364 .L0 
     /tmp/ccT3GgbJ.s:598    .text:0000000000000370 .L0 
     /tmp/ccT3GgbJ.s:602    .text:000000000000037c .L0 
     /tmp/ccT3GgbJ.s:603    .text:000000000000037c .L0 
     /tmp/ccT3GgbJ.s:606    .text:0000000000000380 .L0 
     /tmp/ccT3GgbJ.s:607    .text:0000000000000380 .L0 
     /tmp/ccT3GgbJ.s:610    .text:0000000000000384 .L0 
     /tmp/ccT3GgbJ.s:611    .text:0000000000000384 .L0 
     /tmp/ccT3GgbJ.s:613    .text:0000000000000388 .L0 
     /tmp/ccT3GgbJ.s:615    .text:000000000000038c .L0 
     /tmp/ccT3GgbJ.s:618    .text:0000000000000394 .L0 
     /tmp/ccT3GgbJ.s:620    .text:0000000000000398 .L0 
     /tmp/ccT3GgbJ.s:621    .text:0000000000000398 .L0 
     /tmp/ccT3GgbJ.s:623    .text:000000000000039c .L0 
     /tmp/ccT3GgbJ.s:627    .text:00000000000003a8 .L0 
     /tmp/ccT3GgbJ.s:628    .text:00000000000003a8 .L0 
     /tmp/ccT3GgbJ.s:630    .text:00000000000003ac .L0 
     /tmp/ccT3GgbJ.s:632    .text:00000000000003b0 .L0 
     /tmp/ccT3GgbJ.s:633    .text:00000000000003b0 .L0 
     /tmp/ccT3GgbJ.s:635    .text:00000000000003b4 .L0 
     /tmp/ccT3GgbJ.s:636    .text:00000000000003b4 .L0 
     /tmp/ccT3GgbJ.s:639    .text:00000000000003b8 .L0 
     /tmp/ccT3GgbJ.s:640    .text:00000000000003b8 .L0 
     /tmp/ccT3GgbJ.s:642    .text:00000000000003bc .L0 
     /tmp/ccT3GgbJ.s:644    .text:00000000000003c0 .L0 
     /tmp/ccT3GgbJ.s:647    .text:00000000000003c8 .L0 
     /tmp/ccT3GgbJ.s:649    .text:00000000000003cc .L0 
     /tmp/ccT3GgbJ.s:650    .text:00000000000003cc .L0 
     /tmp/ccT3GgbJ.s:652    .text:00000000000003d0 .L0 
     /tmp/ccT3GgbJ.s:656    .text:00000000000003dc .L0 
     /tmp/ccT3GgbJ.s:657    .text:00000000000003dc .L0 
     /tmp/ccT3GgbJ.s:660    .text:00000000000003e0 .L0 
     /tmp/ccT3GgbJ.s:662    .text:00000000000003e4 .L0 
     /tmp/ccT3GgbJ.s:663    .text:00000000000003e4 .L0 
     /tmp/ccT3GgbJ.s:665    .text:00000000000003e8 .L0 
     /tmp/ccT3GgbJ.s:666    .text:00000000000003e8 .L0 
     /tmp/ccT3GgbJ.s:668    .text:00000000000003ec .L0 
     /tmp/ccT3GgbJ.s:673    .text:00000000000003f4 .L0 
     /tmp/ccT3GgbJ.s:674    .text:00000000000003f4 .L0 
     /tmp/ccT3GgbJ.s:676    .text:00000000000003f8 .L0 
     /tmp/ccT3GgbJ.s:679    .text:00000000000003fc .L0 
     /tmp/ccT3GgbJ.s:681    .text:0000000000000400 .L0 
     /tmp/ccT3GgbJ.s:683    .text:0000000000000404 .L0 
     /tmp/ccT3GgbJ.s:684    .text:0000000000000404 .L0 
     /tmp/ccT3GgbJ.s:686    .text:0000000000000408 .L0 
GAS LISTING /tmp/ccT3GgbJ.s 			page 29


     /tmp/ccT3GgbJ.s:690    .text:0000000000000414 .L0 
     /tmp/ccT3GgbJ.s:691    .text:0000000000000414 .L0 
     /tmp/ccT3GgbJ.s:693    .text:0000000000000418 .L0 
     /tmp/ccT3GgbJ.s:695    .text:000000000000041c .L0 
     /tmp/ccT3GgbJ.s:696    .text:000000000000041c .L0 
     /tmp/ccT3GgbJ.s:698    .text:0000000000000420 .L0 
     /tmp/ccT3GgbJ.s:699    .text:0000000000000420 .L0 
     /tmp/ccT3GgbJ.s:702    .text:0000000000000424 .L0 
     /tmp/ccT3GgbJ.s:706    .text:000000000000042c .L0 
     /tmp/ccT3GgbJ.s:707    .text:000000000000042c .L0 
     /tmp/ccT3GgbJ.s:708    .text:000000000000042c .L0 
     /tmp/ccT3GgbJ.s:709    .text:000000000000042c .L0 
     /tmp/ccT3GgbJ.s:710    .text:000000000000042c .L0 
     /tmp/ccT3GgbJ.s:712    .text:000000000000042c .L0 
     /tmp/ccT3GgbJ.s:715    .text:0000000000000430 .L0 
     /tmp/ccT3GgbJ.s:718    .text:0000000000000434 .L0 
     /tmp/ccT3GgbJ.s:719    .text:0000000000000434 .L0 
     /tmp/ccT3GgbJ.s:720    .text:0000000000000434 .L0 
     /tmp/ccT3GgbJ.s:721    .text:0000000000000434 .L0 
     /tmp/ccT3GgbJ.s:722    .text:0000000000000434 .L0 
     /tmp/ccT3GgbJ.s:724    .text:0000000000000434 .L0 
     /tmp/ccT3GgbJ.s:728    .text:000000000000043c .L0 
     /tmp/ccT3GgbJ.s:735    .text:000000000000044c .L0 
     /tmp/ccT3GgbJ.s:740    .text:0000000000000454 .L0 
     /tmp/ccT3GgbJ.s:759    .text:0000000000000478 .L0 
     /tmp/ccT3GgbJ.s:760    .text:000000000000047c .L0 
     /tmp/ccT3GgbJ.s:761    .text:000000000000047c .L0 
     /tmp/ccT3GgbJ.s:763    .text:0000000000000480 .L0 
     /tmp/ccT3GgbJ.s:764    .text:0000000000000480 .L0 
     /tmp/ccT3GgbJ.s:766    .text:0000000000000484 .L0 
     /tmp/ccT3GgbJ.s:769    .text:0000000000000488 .L0 
     /tmp/ccT3GgbJ.s:771    .text:000000000000048c .L0 
     /tmp/ccT3GgbJ.s:775    .text:0000000000000490 .L0 
     /tmp/ccT3GgbJ.s:777    .text:0000000000000490 .L0 
     /tmp/ccT3GgbJ.s:779    .text:0000000000000498 .L0 
     /tmp/ccT3GgbJ.s:800    .text:0000000000000498 .L0 
                     .debug_frame:0000000000000000 .L0 
     /tmp/ccT3GgbJ.s:24     .text:000000000000000c .L0 
     /tmp/ccT3GgbJ.s:28     .text:0000000000000018 .L0 
     /tmp/ccT3GgbJ.s:33     .text:0000000000000024 .L0 
     /tmp/ccT3GgbJ.s:50     .text:0000000000000040 .L0 
     /tmp/ccT3GgbJ.s:64     .text:0000000000000054 .L0 
     /tmp/ccT3GgbJ.s:126    .text:000000000000009c .L0 
     /tmp/ccT3GgbJ.s:171    .text:00000000000000e0 .L0 
     /tmp/ccT3GgbJ.s:198    .text:0000000000000100 .L0 
     /tmp/ccT3GgbJ.s:202    .text:000000000000010c .L0 
     /tmp/ccT3GgbJ.s:207    .text:0000000000000118 .L0 
     /tmp/ccT3GgbJ.s:224    .text:0000000000000134 .L0 
     /tmp/ccT3GgbJ.s:238    .text:0000000000000148 .L0 
     /tmp/ccT3GgbJ.s:300    .text:0000000000000190 .L0 
     /tmp/ccT3GgbJ.s:345    .text:00000000000001d4 .L0 
     /tmp/ccT3GgbJ.s:378    .text:0000000000000200 .L0 
     /tmp/ccT3GgbJ.s:402    .text:0000000000000220 .L0 
     /tmp/ccT3GgbJ.s:410    .text:000000000000022c .L0 
     /tmp/ccT3GgbJ.s:416    .text:000000000000023c .L0 
     /tmp/ccT3GgbJ.s:419    .text:0000000000000244 .L0 
     /tmp/ccT3GgbJ.s:420    .text:000000000000024c .L0 
GAS LISTING /tmp/ccT3GgbJ.s 			page 30


     /tmp/ccT3GgbJ.s:423    .text:0000000000000254 .L0 
     /tmp/ccT3GgbJ.s:573    .text:0000000000000338 .L0 
     /tmp/ccT3GgbJ.s:578    .text:0000000000000344 .L0 
     /tmp/ccT3GgbJ.s:582    .text:0000000000000350 .L0 
     /tmp/ccT3GgbJ.s:51     .text:0000000000000048 .L1
     /tmp/ccT3GgbJ.s:60     .text:0000000000000054 .L9
     /tmp/ccT3GgbJ.s:66     .text:0000000000000060 .L4
     /tmp/ccT3GgbJ.s:89     .text:0000000000000078 .L6
     /tmp/ccT3GgbJ.s:75     .text:0000000000000064 .L5
     /tmp/ccT3GgbJ.s:156    .text:00000000000000d0 .L10
     /tmp/ccT3GgbJ.s:165    .text:00000000000000dc .L15
     /tmp/ccT3GgbJ.s:149    .text:00000000000000c8 .L13
     /tmp/ccT3GgbJ.s:225    .text:000000000000013c .L16
     /tmp/ccT3GgbJ.s:234    .text:0000000000000148 .L24
     /tmp/ccT3GgbJ.s:240    .text:0000000000000154 .L19
     /tmp/ccT3GgbJ.s:263    .text:000000000000016c .L21
     /tmp/ccT3GgbJ.s:249    .text:0000000000000158 .L20
     /tmp/ccT3GgbJ.s:330    .text:00000000000001c4 .L25
     /tmp/ccT3GgbJ.s:339    .text:00000000000001d0 .L30
     /tmp/ccT3GgbJ.s:323    .text:00000000000001bc .L28
     /tmp/ccT3GgbJ.s:407    .text:000000000000022c .L41
     /tmp/ccT3GgbJ.s:437    .text:0000000000000274 .L33
     /tmp/ccT3GgbJ.s:482    .text:00000000000002b8 .L35
     /tmp/ccT3GgbJ.s:381    .text:000000000000020c .L32
     /tmp/ccT3GgbJ.s:392    .text:000000000000021c .L34
     /tmp/ccT3GgbJ.s:456    .text:0000000000000298 .L31
     /tmp/ccT3GgbJ.s:475    .text:00000000000002b4 .L36
     /tmp/ccT3GgbJ.s:442    .text:000000000000027c .L42
     /tmp/ccT3GgbJ.s:705    .text:000000000000042c .L47
     /tmp/ccT3GgbJ.s:717    .text:0000000000000434 .L48
     /tmp/ccT3GgbJ.s:726    .text:000000000000043c .L49
     /tmp/ccT3GgbJ.s:730    .text:0000000000000444 .L50
     /tmp/ccT3GgbJ.s:733    .text:000000000000044c .L51
     /tmp/ccT3GgbJ.s:671    .text:00000000000003f4 .L45
     /tmp/ccT3GgbJ.s:637    .text:00000000000003b8 .L46
     /tmp/ccT3GgbJ.s:738    .text:0000000000000454 .L52
     /tmp/ccT3GgbJ.s:742    .text:000000000000045c .L53
     /tmp/ccT3GgbJ.s:746    .text:0000000000000464 .L54
     /tmp/ccT3GgbJ.s:757    .text:0000000000000478 .L44
     /tmp/ccT3GgbJ.s:750    .text:000000000000046c .L55
     /tmp/ccT3GgbJ.s:754    .text:0000000000000474 .L56
     /tmp/ccT3GgbJ.s:774    .text:0000000000000490 .L57
     /tmp/ccT3GgbJ.s:1281   .debug_abbrev:0000000000000000 .Ldebug_abbrev0
     /tmp/ccT3GgbJ.s:2018   .debug_str:0000000000000148 .LASF38
     /tmp/ccT3GgbJ.s:2016   .debug_str:000000000000013b .LASF39
     /tmp/ccT3GgbJ.s:2030   .debug_str:0000000000000230 .LASF40
     /tmp/ccT3GgbJ.s:5      .text:0000000000000000 .Ltext0
     /tmp/ccT3GgbJ.s:798    .text:0000000000000498 .Letext0
     /tmp/ccT3GgbJ.s:1966   .debug_line:0000000000000000 .Ldebug_line0
     /tmp/ccT3GgbJ.s:2020   .debug_str:00000000000001e6 .LASF0
     /tmp/ccT3GgbJ.s:2008   .debug_str:0000000000000107 .LASF1
     /tmp/ccT3GgbJ.s:2000   .debug_str:00000000000000d2 .LASF2
     /tmp/ccT3GgbJ.s:1984   .debug_str:0000000000000066 .LASF4
     /tmp/ccT3GgbJ.s:2006   .debug_str:00000000000000f5 .LASF3
     /tmp/ccT3GgbJ.s:1970   .debug_str:0000000000000013 .LASF5
     /tmp/ccT3GgbJ.s:1968   .debug_str:0000000000000000 .LASF6
     /tmp/ccT3GgbJ.s:1994   .debug_str:00000000000000aa .LASF7
GAS LISTING /tmp/ccT3GgbJ.s 			page 31


     /tmp/ccT3GgbJ.s:2026   .debug_str:000000000000020a .LASF8
     /tmp/ccT3GgbJ.s:1980   .debug_str:000000000000004a .LASF9
     /tmp/ccT3GgbJ.s:2052   .debug_str:00000000000002b5 .LASF10
     /tmp/ccT3GgbJ.s:1998   .debug_str:00000000000000c3 .LASF11
     /tmp/ccT3GgbJ.s:2038   .debug_str:0000000000000271 .LASF12
     /tmp/ccT3GgbJ.s:2024   .debug_str:00000000000001fa .LASF13
     /tmp/ccT3GgbJ.s:2010   .debug_str:000000000000011a .LASF14
     /tmp/ccT3GgbJ.s:1990   .debug_str:0000000000000088 .LASF15
     /tmp/ccT3GgbJ.s:2028   .debug_str:000000000000021a .LASF16
     /tmp/ccT3GgbJ.s:2046   .debug_str:00000000000002a1 .LASF41
     /tmp/ccT3GgbJ.s:2048   .debug_str:00000000000002ab .LASF17
     /tmp/ccT3GgbJ.s:2050   .debug_str:00000000000002b0 .LASF18
     /tmp/ccT3GgbJ.s:1972   .debug_str:000000000000001a .LASF19
     /tmp/ccT3GgbJ.s:2042   .debug_str:0000000000000287 .LASF20
     /tmp/ccT3GgbJ.s:2032   .debug_str:000000000000024e .LASF21
     /tmp/ccT3GgbJ.s:2004   .debug_str:00000000000000eb .LASF22
     /tmp/ccT3GgbJ.s:2002   .debug_str:00000000000000e0 .LASF24
     /tmp/ccT3GgbJ.s:551    .text:0000000000000318 .LFB5
     /tmp/ccT3GgbJ.s:780    .text:0000000000000498 .LFE5
     /tmp/ccT3GgbJ.s:1986   .debug_str:000000000000006d .LASF26
     /tmp/ccT3GgbJ.s:1678   .debug_loc:0000000000000000 .LLST10
     /tmp/ccT3GgbJ.s:1982   .debug_str:0000000000000058 .LASF23
     /tmp/ccT3GgbJ.s:1715   .debug_loc:000000000000009b .LLST11
     /tmp/ccT3GgbJ.s:1730   .debug_loc:00000000000000e4 .LLST12
     /tmp/ccT3GgbJ.s:1756   .debug_loc:0000000000000156 .LLST13
     /tmp/ccT3GgbJ.s:596    .text:0000000000000370 .LVL35
     /tmp/ccT3GgbJ.s:600    .text:000000000000037c .LVL36
     /tmp/ccT3GgbJ.s:1978   .debug_str:000000000000003e .LASF25
     /tmp/ccT3GgbJ.s:360    .text:00000000000001e8 .LFB4
     /tmp/ccT3GgbJ.s:545    .text:0000000000000318 .LFE4
     /tmp/ccT3GgbJ.s:2040   .debug_str:0000000000000281 .LASF27
     /tmp/ccT3GgbJ.s:1779   .debug_loc:00000000000001c5 .LLST4
     /tmp/ccT3GgbJ.s:2022   .debug_str:00000000000001f3 .LASF28
     /tmp/ccT3GgbJ.s:1804   .debug_loc:0000000000000227 .LLST5
     /tmp/ccT3GgbJ.s:2014   .debug_str:0000000000000132 .LASF29
     /tmp/ccT3GgbJ.s:1811   .debug_loc:000000000000024a .LLST6
     /tmp/ccT3GgbJ.s:1956   .debug_ranges:0000000000000000 .Ldebug_ranges0
     /tmp/ccT3GgbJ.s:1974   .debug_str:000000000000001f .LASF30
     /tmp/ccT3GgbJ.s:1826   .debug_loc:0000000000000293 .LLST7
     /tmp/ccT3GgbJ.s:497    .text:00000000000002cc .LBB5
     /tmp/ccT3GgbJ.s:542    .text:0000000000000318 .LBE5
     /tmp/ccT3GgbJ.s:1976   .debug_str:0000000000000024 .LASF31
     /tmp/ccT3GgbJ.s:1847   .debug_loc:00000000000002f1 .LLST8
     /tmp/ccT3GgbJ.s:1988   .debug_str:000000000000007f .LASF32
     /tmp/ccT3GgbJ.s:1854   .debug_loc:0000000000000314 .LLST9
     /tmp/ccT3GgbJ.s:501    .text:00000000000002d8 .LVL25
     /tmp/ccT3GgbJ.s:532    .text:0000000000000304 .LVL29
     /tmp/ccT3GgbJ.s:536    .text:0000000000000310 .LVL30
     /tmp/ccT3GgbJ.s:447    .text:0000000000000288 .LVL19
     /tmp/ccT3GgbJ.s:451    .text:0000000000000294 .LVL20
     /tmp/ccT3GgbJ.s:1992   .debug_str:000000000000009e .LASF34
     /tmp/ccT3GgbJ.s:288    .text:0000000000000184 .LFB3
     /tmp/ccT3GgbJ.s:354    .text:00000000000001e8 .LFE3
     /tmp/ccT3GgbJ.s:1996   .debug_str:00000000000000bd .LASF33
     /tmp/ccT3GgbJ.s:2012   .debug_str:0000000000000126 .LASF35
     /tmp/ccT3GgbJ.s:186    .text:00000000000000f4 .LFB2
     /tmp/ccT3GgbJ.s:282    .text:0000000000000184 .LFE2
GAS LISTING /tmp/ccT3GgbJ.s 			page 32


     /tmp/ccT3GgbJ.s:241    .text:0000000000000154 .LBB3
     /tmp/ccT3GgbJ.s:280    .text:0000000000000184 .LBE3
     /tmp/ccT3GgbJ.s:2036   .debug_str:0000000000000268 .LASF36
     /tmp/ccT3GgbJ.s:1881   .debug_loc:0000000000000369 .LLST2
     /tmp/ccT3GgbJ.s:1896   .debug_loc:00000000000003b2 .LLST3
     /tmp/ccT3GgbJ.s:2034   .debug_str:000000000000025c .LASF37
     /tmp/ccT3GgbJ.s:114    .text:0000000000000090 .LFB1
     /tmp/ccT3GgbJ.s:180    .text:00000000000000f4 .LFE1
     /tmp/ccT3GgbJ.s:2044   .debug_str:0000000000000295 .LASF42
     /tmp/ccT3GgbJ.s:11     .text:0000000000000000 .LFB0
     /tmp/ccT3GgbJ.s:108    .text:0000000000000090 .LFE0
     /tmp/ccT3GgbJ.s:67     .text:0000000000000060 .LBB2
     /tmp/ccT3GgbJ.s:106    .text:0000000000000090 .LBE2
     /tmp/ccT3GgbJ.s:1912   .debug_loc:00000000000003fc .LLST0
     /tmp/ccT3GgbJ.s:1927   .debug_loc:0000000000000445 .LLST1
     /tmp/ccT3GgbJ.s:554    .text:0000000000000318 .LVL32
     /tmp/ccT3GgbJ.s:594    .text:0000000000000368 .LVL34
     /tmp/ccT3GgbJ.s:704    .text:000000000000042c .LVL43
     /tmp/ccT3GgbJ.s:713    .text:0000000000000430 .LVL44
     /tmp/ccT3GgbJ.s:716    .text:0000000000000434 .LVL45
     /tmp/ccT3GgbJ.s:767    .text:0000000000000484 .LVL51
     /tmp/ccT3GgbJ.s:773    .text:0000000000000490 .LVL52
     /tmp/ccT3GgbJ.s:591    .text:0000000000000364 .LVL33
     /tmp/ccT3GgbJ.s:737    .text:0000000000000454 .LVL46
     /tmp/ccT3GgbJ.s:756    .text:0000000000000478 .LVL50
     /tmp/ccT3GgbJ.s:604    .text:0000000000000380 .LVL37
     /tmp/ccT3GgbJ.s:677    .text:00000000000003fc .LVL41
     /tmp/ccT3GgbJ.s:700    .text:0000000000000424 .LVL42
     /tmp/ccT3GgbJ.s:753    .text:0000000000000474 .LVL49
     /tmp/ccT3GgbJ.s:608    .text:0000000000000384 .LVL38
     /tmp/ccT3GgbJ.s:658    .text:00000000000003e0 .LVL39
     /tmp/ccT3GgbJ.s:670    .text:00000000000003f4 .LVL40
     /tmp/ccT3GgbJ.s:745    .text:0000000000000464 .LVL47
     /tmp/ccT3GgbJ.s:749    .text:000000000000046c .LVL48
     /tmp/ccT3GgbJ.s:363    .text:00000000000001e8 .LVL12
     /tmp/ccT3GgbJ.s:389    .text:0000000000000218 .LVL13
     /tmp/ccT3GgbJ.s:406    .text:000000000000022c .LVL17
     /tmp/ccT3GgbJ.s:441    .text:000000000000027c .LVL18
     /tmp/ccT3GgbJ.s:393    .text:000000000000021c .LVL14
     /tmp/ccT3GgbJ.s:397    .text:0000000000000220 .LVL15
     /tmp/ccT3GgbJ.s:470    .text:00000000000002ac .LVL22
     /tmp/ccT3GgbJ.s:474    .text:00000000000002b4 .LVL23
     /tmp/ccT3GgbJ.s:403    .text:0000000000000228 .LVL16
     /tmp/ccT3GgbJ.s:455    .text:0000000000000298 .LVL21
     /tmp/ccT3GgbJ.s:540    .text:0000000000000314 .LVL31
     /tmp/ccT3GgbJ.s:507    .text:00000000000002e0 .LVL26
     /tmp/ccT3GgbJ.s:517    .text:00000000000002ec .LVL28
     /tmp/ccT3GgbJ.s:243    .text:0000000000000154 .LVL7
     /tmp/ccT3GgbJ.s:255    .text:0000000000000160 .LVL9
     /tmp/ccT3GgbJ.s:261    .text:0000000000000168 .LVL10
     /tmp/ccT3GgbJ.s:247    .text:0000000000000158 .LVL8
     /tmp/ccT3GgbJ.s:69     .text:0000000000000060 .LVL1
     /tmp/ccT3GgbJ.s:81     .text:000000000000006c .LVL3
     /tmp/ccT3GgbJ.s:87     .text:0000000000000074 .LVL4
     /tmp/ccT3GgbJ.s:73     .text:0000000000000064 .LVL2
     /tmp/ccT3GgbJ.s:801    .debug_info:0000000000000000 .Ldebug_info0
     /tmp/ccT3GgbJ.s:399    .text:0000000000000220 .LBB4
GAS LISTING /tmp/ccT3GgbJ.s 			page 33


     /tmp/ccT3GgbJ.s:408    .text:000000000000022c .LBE4
     /tmp/ccT3GgbJ.s:443    .text:000000000000027c .LBB6
     /tmp/ccT3GgbJ.s:457    .text:0000000000000298 .LBE6
     /tmp/ccT3GgbJ.s:477    .text:00000000000002b4 .LBB7
     /tmp/ccT3GgbJ.s:543    .text:0000000000000318 .LBE7

UNDEFINED SYMBOLS
HEAP_START_ADDR
HEAP_END_ADDR
