GAS LISTING /tmp/ccSa9znA.s 			page 1


   1              		.file	"sem.cpp"
   2              		.option pic
   3              		.option norelax
   4              		.text
   5              	.Ltext0:
   6              		.align	2
   7              		.globl	_ZN3SemC2Ej
   9              	_ZN3SemC2Ej:
  10              	.LFB20:
  11              		.file 1 "src/sem.cpp"
   1:src/sem.cpp   **** #include "../h/sem.hpp"
   2:src/sem.cpp   **** 
   3:src/sem.cpp   **** class TCB;
   4:src/sem.cpp   **** typedef TCB* thread_t;
   5:src/sem.cpp   **** 
   6:src/sem.cpp   **** 
   7:src/sem.cpp   **** Sem::Sem(unsigned init)
  12              		.loc 1 7 1
  13              		.cfi_startproc
  14              	.LVL0:
  15 0000 130101FF 		addi	sp,sp,-16
  16              		.cfi_def_cfa_offset 16
  17 0004 23348100 		sd	s0,8(sp)
  18              		.cfi_offset 8, -8
  19 0008 13040101 		addi	s0,sp,16
  20              		.cfi_def_cfa 8, 0
  21              	.LVL1:
  22              	.LBB29:
  23              	.LBB30:
  24              	.LBB31:
  25              		.file 2 "src/../h/../h/list.hpp"
   1:src/../h/../h/list.hpp **** //
   2:src/../h/../h/list.hpp **** // Created by marko on 20.4.22..
   3:src/../h/../h/list.hpp **** //
   4:src/../h/../h/list.hpp **** 
   5:src/../h/../h/list.hpp **** #ifndef OS1_VEZBE07_RISCV_CONTEXT_SWITCH_1_SYNCHRONOUS_LIST_HPP
   6:src/../h/../h/list.hpp **** #define OS1_VEZBE07_RISCV_CONTEXT_SWITCH_1_SYNCHRONOUS_LIST_HPP
   7:src/../h/../h/list.hpp **** 
   8:src/../h/../h/list.hpp **** template<typename T>
   9:src/../h/../h/list.hpp **** class List
  10:src/../h/../h/list.hpp **** {
  11:src/../h/../h/list.hpp **** private:
  12:src/../h/../h/list.hpp ****     struct Elem
  13:src/../h/../h/list.hpp ****     {
  14:src/../h/../h/list.hpp ****         T *data;
  15:src/../h/../h/list.hpp ****         Elem *next;
  16:src/../h/../h/list.hpp **** 
  17:src/../h/../h/list.hpp ****         Elem(T *data, Elem *next) : data(data), next(next) {}
  18:src/../h/../h/list.hpp ****     };
  19:src/../h/../h/list.hpp **** 
  20:src/../h/../h/list.hpp ****     Elem *head, *tail;
  21:src/../h/../h/list.hpp **** 
  22:src/../h/../h/list.hpp **** public:
  23:src/../h/../h/list.hpp ****     List() : head(0), tail(0) {}
  26              		.loc 2 23 29 is_stmt 0
  27 000c 23340500 		sd	zero,8(a0)
  28 0010 23380500 		sd	zero,16(a0)
GAS LISTING /tmp/ccSa9znA.s 			page 2


  29              	.LVL2:
  30              	.LBE31:
  31              	.LBE30:
   8:src/sem.cpp   **** {
   9:src/sem.cpp   ****     this->value = (int)init;
  32              		.loc 1 9 5 is_stmt 1
  33              		.loc 1 9 17 is_stmt 0
  34 0014 2320B500 		sw	a1,0(a0)
  10:src/sem.cpp   ****     this->open = true;
  35              		.loc 1 10 5 is_stmt 1
  36              		.loc 1 10 16 is_stmt 0
  37 0018 93071000 		li	a5,1
  38 001c 2302F500 		sb	a5,4(a0)
  39              	.LBE29:
  11:src/sem.cpp   **** }
  40              		.loc 1 11 1
  41 0020 03348100 		ld	s0,8(sp)
  42              		.cfi_restore 8
  43              		.cfi_def_cfa 2, 16
  44 0024 13010101 		addi	sp,sp,16
  45              		.cfi_def_cfa_offset 0
  46 0028 67800000 		jr	ra
  47              		.cfi_endproc
  48              	.LFE20:
  50              		.globl	_ZN3SemC1Ej
  51              		.set	_ZN3SemC1Ej,_ZN3SemC2Ej
  52              		.align	2
  53              		.globl	_ZN3Sem6__openEPPS_j
  55              	_ZN3Sem6__openEPPS_j:
  56              	.LFB25:
  12:src/sem.cpp   **** 
  13:src/sem.cpp   **** 
  14:src/sem.cpp   **** Sem::~Sem()
  15:src/sem.cpp   **** {
  16:src/sem.cpp   ****     __close();
  17:src/sem.cpp   **** }
  18:src/sem.cpp   **** 
  19:src/sem.cpp   **** 
  20:src/sem.cpp   **** int
  21:src/sem.cpp   **** Sem::__open(Sem **handle, unsigned init)
  22:src/sem.cpp   **** {
  57              		.loc 1 22 1 is_stmt 1
  58              		.cfi_startproc
  59              	.LVL3:
  60 002c 130101FD 		addi	sp,sp,-48
  61              		.cfi_def_cfa_offset 48
  62 0030 23341102 		sd	ra,40(sp)
  63 0034 23308102 		sd	s0,32(sp)
  64 0038 233C9100 		sd	s1,24(sp)
  65 003c 23382101 		sd	s2,16(sp)
  66 0040 23343101 		sd	s3,8(sp)
  67              		.cfi_offset 1, -8
  68              		.cfi_offset 8, -16
  69              		.cfi_offset 9, -24
  70              		.cfi_offset 18, -32
  71              		.cfi_offset 19, -40
  72 0044 13040103 		addi	s0,sp,48
GAS LISTING /tmp/ccSa9znA.s 			page 3


  73              		.cfi_def_cfa 8, 0
  74 0048 13090500 		mv	s2,a0
  75 004c 93890500 		mv	s3,a1
  23:src/sem.cpp   ****     *handle = new Sem(init);
  76              		.loc 1 23 5
  77              		.loc 1 23 27 is_stmt 0
  78 0050 13058001 		li	a0,24
  79              	.LVL4:
  80 0054 97000000 		call	_Znwm@plt
  80      E7800000 
  81              	.LVL5:
  82 005c 93040500 		mv	s1,a0
  83 0060 93850900 		mv	a1,s3
  84 0064 97000000 		call	_ZN3SemC1Ej
  84      E7800000 
  85              	.LVL6:
  86              		.loc 1 23 13
  87 006c 23309900 		sd	s1,0(s2)
  24:src/sem.cpp   **** 
  25:src/sem.cpp   ****     if (*handle)
  88              		.loc 1 25 5 is_stmt 1
  89 0070 63820402 		beqz	s1,.L7
  26:src/sem.cpp   ****         return 0;
  90              		.loc 1 26 16 is_stmt 0
  91 0074 13050000 		li	a0,0
  92              	.L4:
  27:src/sem.cpp   **** 
  28:src/sem.cpp   ****     return -1;
  29:src/sem.cpp   **** }
  93              		.loc 1 29 1
  94 0078 83308102 		ld	ra,40(sp)
  95              		.cfi_remember_state
  96              		.cfi_restore 1
  97 007c 03340102 		ld	s0,32(sp)
  98              		.cfi_restore 8
  99              		.cfi_def_cfa 2, 48
 100 0080 83348101 		ld	s1,24(sp)
 101              		.cfi_restore 9
 102 0084 03390101 		ld	s2,16(sp)
 103              		.cfi_restore 18
 104              	.LVL7:
 105 0088 83398100 		ld	s3,8(sp)
 106              		.cfi_restore 19
 107 008c 13010103 		addi	sp,sp,48
 108              		.cfi_def_cfa_offset 0
 109 0090 67800000 		jr	ra
 110              	.LVL8:
 111              	.L7:
 112              		.cfi_restore_state
  28:src/sem.cpp   **** }
 113              		.loc 1 28 13
 114 0094 1305F0FF 		li	a0,-1
 115 0098 6FF01FFE 		j	.L4
 116              		.cfi_endproc
 117              	.LFE25:
 119              		.align	2
 120              		.globl	_ZN3Sem7__closeEv
GAS LISTING /tmp/ccSa9znA.s 			page 4


 122              	_ZN3Sem7__closeEv:
 123              	.LFB26:
  30:src/sem.cpp   **** 
  31:src/sem.cpp   **** 
  32:src/sem.cpp   **** int
  33:src/sem.cpp   **** Sem::__close()
  34:src/sem.cpp   **** {
 124              		.loc 1 34 1 is_stmt 1
 125              		.cfi_startproc
 126              	.LVL9:
  35:src/sem.cpp   ****     if(!open)
 127              		.loc 1 35 5
 128              		.loc 1 35 9 is_stmt 0
 129 009c 83474500 		lbu	a5,4(a0)
 130              		.loc 1 35 5
 131 00a0 638E0706 		beqz	a5,.L13
  34:src/sem.cpp   ****     if(!open)
 132              		.loc 1 34 1
 133 00a4 130101FE 		addi	sp,sp,-32
 134              		.cfi_def_cfa_offset 32
 135 00a8 233C1100 		sd	ra,24(sp)
 136 00ac 23388100 		sd	s0,16(sp)
 137 00b0 23349100 		sd	s1,8(sp)
 138 00b4 23302101 		sd	s2,0(sp)
 139              		.cfi_offset 1, -8
 140              		.cfi_offset 8, -16
 141              		.cfi_offset 9, -24
 142              		.cfi_offset 18, -32
 143 00b8 13040102 		addi	s0,sp,32
 144              		.cfi_def_cfa 8, 0
 145 00bc 93040500 		mv	s1,a0
  36:src/sem.cpp   ****         return -1;
  37:src/sem.cpp   **** 
  38:src/sem.cpp   ****     open = false;
 146              		.loc 1 38 5 is_stmt 1
 147              		.loc 1 38 10 is_stmt 0
 148 00c0 23020500 		sb	zero,4(a0)
 149 00c4 6F008002 		j	.L12
 150              	.LVL10:
 151              	.L21:
 152              	.LBB32:
 153              	.LBB33:
 154              	.LBB34:
  24:src/../h/../h/list.hpp **** 
  25:src/../h/../h/list.hpp ****     List(const List<T> &) = delete;
  26:src/../h/../h/list.hpp **** 
  27:src/../h/../h/list.hpp ****     List<T> &operator=(const List<T> &) = delete;
  28:src/../h/../h/list.hpp **** 
  29:src/../h/../h/list.hpp ****     void addFirst(T *data)
  30:src/../h/../h/list.hpp ****     {
  31:src/../h/../h/list.hpp ****         Elem *elem = new Elem(data, head);
  32:src/../h/../h/list.hpp ****         head = elem;
  33:src/../h/../h/list.hpp ****         if (!tail) { tail = head; }
  34:src/../h/../h/list.hpp ****     }
  35:src/../h/../h/list.hpp **** 
  36:src/../h/../h/list.hpp ****     void addLast(T *data)
  37:src/../h/../h/list.hpp ****     {
GAS LISTING /tmp/ccSa9znA.s 			page 5


  38:src/../h/../h/list.hpp ****         Elem *elem = new Elem(data, 0);
  39:src/../h/../h/list.hpp ****         if (tail)
  40:src/../h/../h/list.hpp ****         {
  41:src/../h/../h/list.hpp ****             tail->next = elem;
  42:src/../h/../h/list.hpp ****             tail = elem;
  43:src/../h/../h/list.hpp ****         } else
  44:src/../h/../h/list.hpp ****         {
  45:src/../h/../h/list.hpp ****             head = tail = elem;
  46:src/../h/../h/list.hpp ****         }
  47:src/../h/../h/list.hpp ****     }
  48:src/../h/../h/list.hpp **** 
  49:src/../h/../h/list.hpp ****     T *removeFirst()
  50:src/../h/../h/list.hpp ****     {
  51:src/../h/../h/list.hpp ****         if (!head) { return 0; }
  52:src/../h/../h/list.hpp **** 
  53:src/../h/../h/list.hpp ****         Elem *elem = head;
  54:src/../h/../h/list.hpp ****         head = head->next;
  55:src/../h/../h/list.hpp ****         if (!head) { tail = 0; }
 155              		.loc 2 55 22
 156 00c8 23B80400 		sd	zero,16(s1)
 157              	.L11:
  56:src/../h/../h/list.hpp **** 
  57:src/../h/../h/list.hpp ****         T *ret = elem->data;
 158              		.loc 2 57 12
 159 00cc 03390500 		ld	s2,0(a0)
 160              	.LVL11:
  58:src/../h/../h/list.hpp ****         delete elem;
 161              		.loc 2 58 9
 162 00d0 97000000 		call	_ZdlPv@plt
 162      E7800000 
 163              	.LVL12:
 164              	.L10:
 165              	.LBE34:
 166              	.LBE33:
  39:src/sem.cpp   **** 
  40:src/sem.cpp   ****     while(blockedCoroutineQueue.peekLast())
  41:src/sem.cpp   ****     {
  42:src/sem.cpp   ****         thread_t curr = blockedCoroutineQueue.removeFirst();
  43:src/sem.cpp   ****         curr->setState(State::READY);
 167              		.loc 1 43 9 is_stmt 1
 168              	.LBB36:
 169              	.LBB37:
 170              		.file 3 "src/../h/../h/tcb.hpp"
   1:src/../h/../h/tcb.hpp **** //
   2:src/../h/../h/tcb.hpp **** // Created by os on 2/11/23.
   3:src/../h/../h/tcb.hpp **** //
   4:src/../h/../h/tcb.hpp **** 
   5:src/../h/../h/tcb.hpp **** #ifndef PROJECT_BASE_TCB_HPP
   6:src/../h/../h/tcb.hpp **** #define PROJECT_BASE_TCB_HPP
   7:src/../h/../h/tcb.hpp **** 
   8:src/../h/../h/tcb.hpp **** #include "../lib/hw.h"
   9:src/../h/../h/tcb.hpp **** #include "scheduler.hpp"
  10:src/../h/../h/tcb.hpp **** 
  11:src/../h/../h/tcb.hpp **** typedef enum State{ NEW, ACTIVE, READY, BLOCKED, FINISHED } State;
  12:src/../h/../h/tcb.hpp **** 
  13:src/../h/../h/tcb.hpp **** // Thread Control Block
  14:src/../h/../h/tcb.hpp **** class TCB {
GAS LISTING /tmp/ccSa9znA.s 			page 6


  15:src/../h/../h/tcb.hpp **** public:
  16:src/../h/../h/tcb.hpp ****     ~TCB() { delete[] stack; }
  17:src/../h/../h/tcb.hpp **** 
  18:src/../h/../h/tcb.hpp ****     bool isFinished() const      { return finished;  }
  19:src/../h/../h/tcb.hpp ****     void setFinished(bool value) { finished = value; }
  20:src/../h/../h/tcb.hpp ****     uint64 getTimeSlice() const  { return timeSlice; }
  21:src/../h/../h/tcb.hpp **** 
  22:src/../h/../h/tcb.hpp ****     static void dispatch();
  23:src/../h/../h/tcb.hpp **** 
  24:src/../h/../h/tcb.hpp **** 
  25:src/../h/../h/tcb.hpp ****     State getState()            { return state;     }
  26:src/../h/../h/tcb.hpp ****     void  setState(State state) {TCB::state = state;}
 171              		.loc 3 26 34
 172              		.loc 3 26 45 is_stmt 0
 173 00d8 93072000 		li	a5,2
 174 00dc 2328F902 		sw	a5,48(s2)
 175              	.LVL13:
 176              	.LBE37:
 177              	.LBE36:
  44:src/sem.cpp   ****         Scheduler::put(curr);
 178              		.loc 1 44 9 is_stmt 1
 179              		.loc 1 44 23 is_stmt 0
 180 00e0 13050900 		mv	a0,s2
 181 00e4 97000000 		call	_ZN9Scheduler3putEP3TCB@plt
 181      E7800000 
 182              	.LVL14:
 183              	.L12:
 184              	.LBE32:
  40:src/sem.cpp   ****     {
 185              		.loc 1 40 5 is_stmt 1
  40:src/sem.cpp   ****     {
 186              		.loc 1 40 42
 187              	.LBB39:
 188              	.LBB40:
  59:src/../h/../h/list.hpp ****         return ret;
  60:src/../h/../h/list.hpp ****     }
  61:src/../h/../h/list.hpp **** 
  62:src/../h/../h/list.hpp ****     T *peekFirst()
  63:src/../h/../h/list.hpp ****     {
  64:src/../h/../h/list.hpp ****         if (!head) { return 0; }
  65:src/../h/../h/list.hpp ****         return head->data;
  66:src/../h/../h/list.hpp ****     }
  67:src/../h/../h/list.hpp **** 
  68:src/../h/../h/list.hpp ****     T *removeLast()
  69:src/../h/../h/list.hpp ****     {
  70:src/../h/../h/list.hpp ****         if (!head) { return 0; }
  71:src/../h/../h/list.hpp **** 
  72:src/../h/../h/list.hpp ****         Elem *prev = 0;
  73:src/../h/../h/list.hpp ****         for (Elem *curr = head; curr && curr != tail; curr = curr->next)
  74:src/../h/../h/list.hpp ****         {
  75:src/../h/../h/list.hpp ****             prev = curr;
  76:src/../h/../h/list.hpp ****         }
  77:src/../h/../h/list.hpp **** 
  78:src/../h/../h/list.hpp ****         Elem *elem = tail;
  79:src/../h/../h/list.hpp ****         if (prev) { prev->next = 0; }
  80:src/../h/../h/list.hpp ****         else { head = 0; }
  81:src/../h/../h/list.hpp ****         tail = prev;
GAS LISTING /tmp/ccSa9znA.s 			page 7


  82:src/../h/../h/list.hpp **** 
  83:src/../h/../h/list.hpp ****         T *ret = elem->data;
  84:src/../h/../h/list.hpp ****         delete elem;
  85:src/../h/../h/list.hpp ****         return ret;
  86:src/../h/../h/list.hpp ****     }
  87:src/../h/../h/list.hpp **** 
  88:src/../h/../h/list.hpp ****     T *peekLast()
  89:src/../h/../h/list.hpp ****     {
  90:src/../h/../h/list.hpp ****         if (!tail) { return 0; }
 189              		.loc 2 90 14 is_stmt 0
 190 00ec 83B70401 		ld	a5,16(s1)
 191              		.loc 2 90 9
 192 00f0 638A0702 		beqz	a5,.L14
  91:src/../h/../h/list.hpp ****         return tail->data;
 193              		.loc 2 91 22
 194 00f4 83B70700 		ld	a5,0(a5)
 195              	.LVL15:
 196              	.LBE40:
 197              	.LBE39:
  40:src/sem.cpp   ****     {
 198              		.loc 1 40 42
 199 00f8 63840704 		beqz	a5,.L15
 200              	.LBB41:
  42:src/sem.cpp   ****         curr->setState(State::READY);
 201              		.loc 1 42 9 is_stmt 1
 202              	.LVL16:
 203              	.LBB38:
 204              	.LBB35:
  51:src/../h/../h/list.hpp **** 
 205              		.loc 2 51 14 is_stmt 0
 206 00fc 03B58400 		ld	a0,8(s1)
  51:src/../h/../h/list.hpp **** 
 207              		.loc 2 51 9
 208 0100 630A0500 		beqz	a0,.L16
 209              	.LVL17:
  54:src/../h/../h/list.hpp ****         if (!head) { tail = 0; }
 210              		.loc 2 54 22
 211 0104 83378500 		ld	a5,8(a0)
  54:src/../h/../h/list.hpp ****         if (!head) { tail = 0; }
 212              		.loc 2 54 9
 213 0108 23B4F400 		sd	a5,8(s1)
  55:src/../h/../h/list.hpp **** 
 214              		.loc 2 55 9
 215 010c E39007FC 		bnez	a5,.L11
 216 0110 6FF09FFB 		j	.L21
 217              	.LVL18:
 218              	.L16:
  51:src/../h/../h/list.hpp **** 
 219              		.loc 2 51 29
 220 0114 13090500 		mv	s2,a0
 221 0118 6FF01FFC 		j	.L10
 222              	.LVL19:
 223              	.L13:
 224              		.cfi_def_cfa_register 2
 225              		.cfi_restore 1
 226              		.cfi_restore 8
 227              		.cfi_restore 9
GAS LISTING /tmp/ccSa9znA.s 			page 8


 228              		.cfi_restore 18
 229              	.LBE35:
 230              	.LBE38:
 231              	.LBE41:
  36:src/sem.cpp   **** 
 232              		.loc 1 36 17
 233 011c 1305F0FF 		li	a0,-1
 234              	.LVL20:
  45:src/sem.cpp   ****     }
  46:src/sem.cpp   **** 
  47:src/sem.cpp   ****     return 0;
  48:src/sem.cpp   **** }
 235              		.loc 1 48 1
 236 0120 67800000 		ret
 237              	.LVL21:
 238              	.L14:
 239              		.cfi_def_cfa_register 8
 240              		.cfi_offset 1, -8
 241              		.cfi_offset 8, -16
 242              		.cfi_offset 9, -24
 243              		.cfi_offset 18, -32
  47:src/sem.cpp   **** }
 244              		.loc 1 47 12
 245 0124 13050000 		li	a0,0
 246              	.LVL22:
 247              	.L9:
 248              		.loc 1 48 1
 249 0128 83308101 		ld	ra,24(sp)
 250              		.cfi_remember_state
 251              		.cfi_restore 1
 252 012c 03340101 		ld	s0,16(sp)
 253              		.cfi_restore 8
 254              		.cfi_def_cfa 2, 32
 255 0130 83348100 		ld	s1,8(sp)
 256              		.cfi_restore 9
 257              	.LVL23:
 258 0134 03390100 		ld	s2,0(sp)
 259              		.cfi_restore 18
 260 0138 13010102 		addi	sp,sp,32
 261              		.cfi_def_cfa_offset 0
 262 013c 67800000 		jr	ra
 263              	.LVL24:
 264              	.L15:
 265              		.cfi_restore_state
  47:src/sem.cpp   **** }
 266              		.loc 1 47 12
 267 0140 13050000 		li	a0,0
 268 0144 6FF05FFE 		j	.L9
 269              		.cfi_endproc
 270              	.LFE26:
 272              		.align	2
 273              		.globl	_ZN3SemD2Ev
 275              	_ZN3SemD2Ev:
 276              	.LFB23:
  14:src/sem.cpp   **** {
 277              		.loc 1 14 1 is_stmt 1
 278              		.cfi_startproc
GAS LISTING /tmp/ccSa9znA.s 			page 9


 279              		.cfi_personality 0x9b,DW.ref.__gxx_personality_v0
 280              		.cfi_lsda 0x1b,.LLSDA23
 281              	.LVL25:
 282 0148 130101FF 		addi	sp,sp,-16
 283              		.cfi_def_cfa_offset 16
 284 014c 23341100 		sd	ra,8(sp)
 285 0150 23308100 		sd	s0,0(sp)
 286              		.cfi_offset 1, -8
 287              		.cfi_offset 8, -16
 288 0154 13040101 		addi	s0,sp,16
 289              		.cfi_def_cfa 8, 0
 290              	.LBB42:
  16:src/sem.cpp   **** }
 291              		.loc 1 16 5
  16:src/sem.cpp   **** }
 292              		.loc 1 16 12 is_stmt 0
 293 0158 97000000 		call	_ZN3Sem7__closeEv
 293      E7800000 
 294              	.LVL26:
 295              	.LBE42:
  17:src/sem.cpp   **** 
 296              		.loc 1 17 1
 297 0160 83308100 		ld	ra,8(sp)
 298              		.cfi_restore 1
 299 0164 03340100 		ld	s0,0(sp)
 300              		.cfi_restore 8
 301              		.cfi_def_cfa 2, 16
 302 0168 13010101 		addi	sp,sp,16
 303              		.cfi_def_cfa_offset 0
 304 016c 67800000 		jr	ra
 305              		.cfi_endproc
 306              	.LFE23:
 307              		.globl	__gxx_personality_v0
 308              		.section	.gcc_except_table,"a",@progbits
 309              	.LLSDA23:
 310 0000 FF       		.byte	0xff
 311 0001 FF       		.byte	0xff
 312 0002 03       		.byte	0x3
 313 0003 00       		.byte	0
 314              		.text
 316              		.globl	_ZN3SemD1Ev
 317              		.set	_ZN3SemD1Ev,_ZN3SemD2Ev
 318              		.align	2
 319              		.globl	_ZN3Sem6__waitEv
 321              	_ZN3Sem6__waitEv:
 322              	.LFB27:
  49:src/sem.cpp   **** 
  50:src/sem.cpp   **** 
  51:src/sem.cpp   **** int
  52:src/sem.cpp   **** Sem::__wait()
  53:src/sem.cpp   **** {
 323              		.loc 1 53 1 is_stmt 1
 324              		.cfi_startproc
 325              	.LVL27:
  54:src/sem.cpp   ****     if(!open)
 326              		.loc 1 54 5
 327              		.loc 1 54 9 is_stmt 0
GAS LISTING /tmp/ccSa9znA.s 			page 10


 328 0170 83474500 		lbu	a5,4(a0)
 329              		.loc 1 54 5
 330 0174 6382070A 		beqz	a5,.L28
  53:src/sem.cpp   ****     if(!open)
 331              		.loc 1 53 1
 332 0178 130101FE 		addi	sp,sp,-32
 333              		.cfi_def_cfa_offset 32
 334 017c 233C1100 		sd	ra,24(sp)
 335 0180 23388100 		sd	s0,16(sp)
 336 0184 23349100 		sd	s1,8(sp)
 337 0188 23302101 		sd	s2,0(sp)
 338              		.cfi_offset 1, -8
 339              		.cfi_offset 8, -16
 340              		.cfi_offset 9, -24
 341              		.cfi_offset 18, -32
 342 018c 13040102 		addi	s0,sp,32
 343              		.cfi_def_cfa 8, 0
 344 0190 93040500 		mv	s1,a0
  55:src/sem.cpp   ****         return -1;
  56:src/sem.cpp   **** 
  57:src/sem.cpp   ****     if(--(this->value) < 0)
 345              		.loc 1 57 5 is_stmt 1
 346              		.loc 1 57 17 is_stmt 0
 347 0194 83270500 		lw	a5,0(a0)
 348              		.loc 1 57 8
 349 0198 9B87F7FF 		addiw	a5,a5,-1
 350              		.loc 1 57 24
 351 019c 2320F500 		sw	a5,0(a0)
 352              		.loc 1 57 5
 353 01a0 13970702 		slli	a4,a5,32
 354 01a4 63400702 		bltz	a4,.L34
  58:src/sem.cpp   ****     {
  59:src/sem.cpp   ****         TCB::running->setState(State::BLOCKED);
  60:src/sem.cpp   ****         blockedCoroutineQueue.addLast(TCB::running);
  61:src/sem.cpp   ****         TCB::dispatch();
  62:src/sem.cpp   ****     }
  63:src/sem.cpp   **** 
  64:src/sem.cpp   ****     return 0;
 355              		.loc 1 64 12
 356 01a8 13050000 		li	a0,0
 357              	.LVL28:
 358              	.L25:
  65:src/sem.cpp   **** }
 359              		.loc 1 65 1
 360 01ac 83308101 		ld	ra,24(sp)
 361              		.cfi_remember_state
 362              		.cfi_restore 1
 363 01b0 03340101 		ld	s0,16(sp)
 364              		.cfi_restore 8
 365              		.cfi_def_cfa 2, 32
 366 01b4 83348100 		ld	s1,8(sp)
 367              		.cfi_restore 9
 368              	.LVL29:
 369 01b8 03390100 		ld	s2,0(sp)
 370              		.cfi_restore 18
 371 01bc 13010102 		addi	sp,sp,32
 372              		.cfi_def_cfa_offset 0
GAS LISTING /tmp/ccSa9znA.s 			page 11


 373 01c0 67800000 		jr	ra
 374              	.LVL30:
 375              	.L34:
 376              		.cfi_restore_state
  59:src/sem.cpp   ****         blockedCoroutineQueue.addLast(TCB::running);
 377              		.loc 1 59 9 is_stmt 1
  59:src/sem.cpp   ****         blockedCoroutineQueue.addLast(TCB::running);
 378              		.loc 1 59 31 is_stmt 0
 379 01c4 97070000 		la	a5,_ZN3TCB7runningE
 379      83B70700 
 380 01cc 03B90700 		ld	s2,0(a5)
 381              	.LVL31:
 382              	.LBB43:
 383              	.LBB44:
 384              		.loc 3 26 34 is_stmt 1
 385              		.loc 3 26 45 is_stmt 0
 386 01d0 93073000 		li	a5,3
 387 01d4 2328F902 		sw	a5,48(s2)
 388              	.LVL32:
 389              	.LBE44:
 390              	.LBE43:
  60:src/sem.cpp   ****         TCB::dispatch();
 391              		.loc 1 60 9 is_stmt 1
 392              	.LBB45:
 393              	.LBB46:
  38:src/../h/../h/list.hpp ****         if (tail)
 394              		.loc 2 38 22 is_stmt 0
 395 01d8 13050001 		li	a0,16
 396 01dc 97000000 		call	_Znwm@plt
 396      E7800000 
 397              	.LVL33:
 398              	.LBB47:
 399              	.LBB48:
  17:src/../h/../h/list.hpp ****     };
 400              		.loc 2 17 58
 401 01e4 23302501 		sd	s2,0(a0)
 402 01e8 23340500 		sd	zero,8(a0)
 403              	.LVL34:
 404              	.LBE48:
 405              	.LBE47:
  39:src/../h/../h/list.hpp ****         {
 406              		.loc 2 39 13
 407 01ec 83B70401 		ld	a5,16(s1)
  39:src/../h/../h/list.hpp ****         {
 408              		.loc 2 39 9
 409 01f0 638E0700 		beqz	a5,.L26
  41:src/../h/../h/list.hpp ****             tail = elem;
 410              		.loc 2 41 13
 411 01f4 23B4A700 		sd	a0,8(a5)
  42:src/../h/../h/list.hpp ****         } else
 412              		.loc 2 42 13
 413 01f8 23B8A400 		sd	a0,16(s1)
 414              	.L27:
 415              	.LVL35:
 416              	.LBE46:
 417              	.LBE45:
  61:src/sem.cpp   ****     }
GAS LISTING /tmp/ccSa9znA.s 			page 12


 418              		.loc 1 61 9 is_stmt 1
  61:src/sem.cpp   ****     }
 419              		.loc 1 61 22 is_stmt 0
 420 01fc 97000000 		call	_ZN3TCB8dispatchEv@plt
 420      E7800000 
 421              	.LVL36:
  64:src/sem.cpp   **** }
 422              		.loc 1 64 12
 423 0204 13050000 		li	a0,0
 424 0208 6FF05FFA 		j	.L25
 425              	.LVL37:
 426              	.L26:
 427              	.LBB50:
 428              	.LBB49:
  45:src/../h/../h/list.hpp ****         }
 429              		.loc 2 45 13
 430 020c 23B8A400 		sd	a0,16(s1)
 431 0210 23B4A400 		sd	a0,8(s1)
 432 0214 6FF09FFE 		j	.L27
 433              	.LVL38:
 434              	.L28:
 435              		.cfi_def_cfa_register 2
 436              		.cfi_restore 1
 437              		.cfi_restore 8
 438              		.cfi_restore 9
 439              		.cfi_restore 18
 440              	.LBE49:
 441              	.LBE50:
  55:src/sem.cpp   **** 
 442              		.loc 1 55 17
 443 0218 1305F0FF 		li	a0,-1
 444              	.LVL39:
 445              		.loc 1 65 1
 446 021c 67800000 		ret
 447              		.cfi_endproc
 448              	.LFE27:
 450              		.align	2
 451              		.globl	_ZN3Sem8__signalEv
 453              	_ZN3Sem8__signalEv:
 454              	.LFB28:
  66:src/sem.cpp   **** 
  67:src/sem.cpp   **** 
  68:src/sem.cpp   **** int
  69:src/sem.cpp   **** Sem::__signal()
  70:src/sem.cpp   **** {
 455              		.loc 1 70 1 is_stmt 1
 456              		.cfi_startproc
 457              	.LVL40:
  71:src/sem.cpp   ****     if(!open)
 458              		.loc 1 71 5
 459              		.loc 1 71 9 is_stmt 0
 460 0220 03474500 		lbu	a4,4(a0)
 461              		.loc 1 71 5
 462 0224 630A0708 		beqz	a4,.L39
 463 0228 93070500 		mv	a5,a0
  72:src/sem.cpp   ****         return -1;
  73:src/sem.cpp   **** 
GAS LISTING /tmp/ccSa9znA.s 			page 13


  74:src/sem.cpp   ****     if(++(this->value) <= 0)
 464              		.loc 1 74 5 is_stmt 1
 465              	.LBB51:
 466              		.loc 1 74 17 is_stmt 0
 467 022c 03270500 		lw	a4,0(a0)
 468              		.loc 1 74 8
 469 0230 1B071700 		addiw	a4,a4,1
 470 0234 9B060700 		sext.w	a3,a4
 471              		.loc 1 74 24
 472 0238 2320E500 		sw	a4,0(a0)
 473              		.loc 1 74 5
 474 023c 6356D000 		blez	a3,.L46
 475              	.LBE51:
  75:src/sem.cpp   ****     {
  76:src/sem.cpp   ****         thread_t curr = blockedCoroutineQueue.removeFirst();
  77:src/sem.cpp   ****         curr->setState(State::READY);
  78:src/sem.cpp   ****         Scheduler::put(curr);
  79:src/sem.cpp   ****     }
  80:src/sem.cpp   **** 
  81:src/sem.cpp   **** 
  82:src/sem.cpp   ****     return 0;
 476              		.loc 1 82 12
 477 0240 13050000 		li	a0,0
 478              	.LVL41:
  83:src/sem.cpp   **** }
 479              		.loc 1 83 1
 480 0244 67800000 		ret
 481              	.LVL42:
 482              	.L46:
  70:src/sem.cpp   ****     if(!open)
 483              		.loc 1 70 1
 484 0248 130101FE 		addi	sp,sp,-32
 485              		.cfi_def_cfa_offset 32
 486 024c 233C1100 		sd	ra,24(sp)
 487 0250 23388100 		sd	s0,16(sp)
 488 0254 23349100 		sd	s1,8(sp)
 489              		.cfi_offset 1, -8
 490              		.cfi_offset 8, -16
 491              		.cfi_offset 9, -24
 492 0258 13040102 		addi	s0,sp,32
 493              		.cfi_def_cfa 8, 0
 494              	.LBB60:
 495              	.LBB52:
  76:src/sem.cpp   ****         curr->setState(State::READY);
 496              		.loc 1 76 9 is_stmt 1
 497              	.LVL43:
 498              	.LBB53:
 499              	.LBB54:
  51:src/../h/../h/list.hpp **** 
 500              		.loc 2 51 14 is_stmt 0
 501 025c 03358500 		ld	a0,8(a0)
 502              	.LVL44:
  51:src/../h/../h/list.hpp **** 
 503              		.loc 2 51 9
 504 0260 63080504 		beqz	a0,.L41
 505              	.LVL45:
  54:src/../h/../h/list.hpp ****         if (!head) { tail = 0; }
GAS LISTING /tmp/ccSa9znA.s 			page 14


 506              		.loc 2 54 22
 507 0264 03378500 		ld	a4,8(a0)
  54:src/../h/../h/list.hpp ****         if (!head) { tail = 0; }
 508              		.loc 2 54 9
 509 0268 23B4E700 		sd	a4,8(a5)
  55:src/../h/../h/list.hpp **** 
 510              		.loc 2 55 9
 511 026c 630E0702 		beqz	a4,.L47
 512              	.L38:
  57:src/../h/../h/list.hpp ****         delete elem;
 513              		.loc 2 57 12
 514 0270 83340500 		ld	s1,0(a0)
 515              	.LVL46:
  58:src/../h/../h/list.hpp ****         return ret;
 516              		.loc 2 58 9
 517 0274 97000000 		call	_ZdlPv@plt
 517      E7800000 
 518              	.LVL47:
 519              	.L37:
 520              	.LBE54:
 521              	.LBE53:
  77:src/sem.cpp   ****         Scheduler::put(curr);
 522              		.loc 1 77 9 is_stmt 1
 523              	.LBB56:
 524              	.LBB57:
 525              		.loc 3 26 34
 526              		.loc 3 26 45 is_stmt 0
 527 027c 93072000 		li	a5,2
 528 0280 23A8F402 		sw	a5,48(s1)
 529              	.LVL48:
 530              	.LBE57:
 531              	.LBE56:
  78:src/sem.cpp   ****     }
 532              		.loc 1 78 9 is_stmt 1
  78:src/sem.cpp   ****     }
 533              		.loc 1 78 23 is_stmt 0
 534 0284 13850400 		mv	a0,s1
 535 0288 97000000 		call	_ZN9Scheduler3putEP3TCB@plt
 535      E7800000 
 536              	.LVL49:
 537              	.LBE52:
 538              	.LBE60:
  82:src/sem.cpp   **** }
 539              		.loc 1 82 12
 540 0290 13050000 		li	a0,0
 541              		.loc 1 83 1
 542 0294 83308101 		ld	ra,24(sp)
 543              		.cfi_remember_state
 544              		.cfi_restore 1
 545 0298 03340101 		ld	s0,16(sp)
 546              		.cfi_restore 8
 547              		.cfi_def_cfa 2, 32
 548 029c 83348100 		ld	s1,8(sp)
 549              		.cfi_restore 9
 550              	.LVL50:
 551 02a0 13010102 		addi	sp,sp,32
 552              		.cfi_def_cfa_offset 0
GAS LISTING /tmp/ccSa9znA.s 			page 15


 553 02a4 67800000 		jr	ra
 554              	.LVL51:
 555              	.L47:
 556              		.cfi_restore_state
 557              	.LBB61:
 558              	.LBB59:
 559              	.LBB58:
 560              	.LBB55:
  55:src/../h/../h/list.hpp **** 
 561              		.loc 2 55 22
 562 02a8 23B80700 		sd	zero,16(a5)
 563 02ac 6FF05FFC 		j	.L38
 564              	.LVL52:
 565              	.L41:
  51:src/../h/../h/list.hpp **** 
 566              		.loc 2 51 29
 567 02b0 93040500 		mv	s1,a0
 568 02b4 6FF09FFC 		j	.L37
 569              	.LVL53:
 570              	.L39:
 571              		.cfi_def_cfa_register 2
 572              		.cfi_restore 1
 573              		.cfi_restore 8
 574              		.cfi_restore 9
 575              	.LBE55:
 576              	.LBE58:
 577              	.LBE59:
 578              	.LBE61:
  72:src/sem.cpp   **** 
 579              		.loc 1 72 17
 580 02b8 1305F0FF 		li	a0,-1
 581              	.LVL54:
 582 02bc 67800000 		ret
 583              		.cfi_endproc
 584              	.LFE28:
 586              		.align	2
 587              		.globl	_ZN3Sem10__getValueEv
 589              	_ZN3Sem10__getValueEv:
 590              	.LFB29:
  84:src/sem.cpp   **** 
  85:src/sem.cpp   **** 
  86:src/sem.cpp   **** int
  87:src/sem.cpp   **** Sem::__getValue()
  88:src/sem.cpp   **** {
 591              		.loc 1 88 1 is_stmt 1
 592              		.cfi_startproc
 593              	.LVL55:
 594 02c0 130101FF 		addi	sp,sp,-16
 595              		.cfi_def_cfa_offset 16
 596 02c4 23348100 		sd	s0,8(sp)
 597              		.cfi_offset 8, -8
 598 02c8 13040101 		addi	s0,sp,16
 599              		.cfi_def_cfa 8, 0
  89:src/sem.cpp   ****     return this->value;
 600              		.loc 1 89 5
  90:src/sem.cpp   **** }...
 601              		.loc 1 90 1 is_stmt 0
GAS LISTING /tmp/ccSa9znA.s 			page 16


 602 02cc 03250500 		lw	a0,0(a0)
 603              	.LVL56:
 604 02d0 03348100 		ld	s0,8(sp)
 605              		.cfi_restore 8
 606              		.cfi_def_cfa 2, 16
 607 02d4 13010101 		addi	sp,sp,16
 608              		.cfi_def_cfa_offset 0
 609 02d8 67800000 		jr	ra
 610              		.cfi_endproc
 611              	.LFE29:
 613              	.Letext0:
 614              		.file 4 "src/../h/../h/../lib/hw.h"
 615              		.file 5 "src/../h/../h/scheduler.hpp"
 616              		.file 6 "src/../h/sem.hpp"
 3812              		.align	3
 3815              	DW.ref.__gxx_personality_v0:
 3816 0000 00000000 		.dword	__gxx_personality_v0
 3816      00000000 
 3817              		.ident	"GCC: (Ubuntu 9.4.0-1ubuntu1~20.04) 9.4.0"
 3818              		.section	.note.GNU-stack,"",@progbits
GAS LISTING /tmp/ccSa9znA.s 			page 17


DEFINED SYMBOLS
                            *ABS*:0000000000000000 sem.cpp
     /tmp/ccSa9znA.s:9      .text:0000000000000000 _ZN3SemC2Ej
     /tmp/ccSa9znA.s:13     .text:0000000000000000 .L0 
     /tmp/ccSa9znA.s:15     .text:0000000000000000 .L0 
     /tmp/ccSa9znA.s:16     .text:0000000000000004 .L0 
     /tmp/ccSa9znA.s:18     .text:0000000000000008 .L0 
     /tmp/ccSa9znA.s:20     .text:000000000000000c .L0 
     /tmp/ccSa9znA.s:27     .text:000000000000000c .L0 
     /tmp/ccSa9znA.s:33     .text:0000000000000014 .L0 
     /tmp/ccSa9znA.s:34     .text:0000000000000014 .L0 
     /tmp/ccSa9znA.s:36     .text:0000000000000018 .L0 
     /tmp/ccSa9znA.s:37     .text:0000000000000018 .L0 
     /tmp/ccSa9znA.s:41     .text:0000000000000020 .L0 
     /tmp/ccSa9znA.s:42     .text:0000000000000024 .L0 
     /tmp/ccSa9znA.s:43     .text:0000000000000024 .L0 
     /tmp/ccSa9znA.s:45     .text:0000000000000028 .L0 
     /tmp/ccSa9znA.s:47     .text:000000000000002c .L0 
     /tmp/ccSa9znA.s:9      .text:0000000000000000 _ZN3SemC1Ej
     /tmp/ccSa9znA.s:55     .text:000000000000002c _ZN3Sem6__openEPPS_j
     /tmp/ccSa9znA.s:58     .text:000000000000002c .L0 
     /tmp/ccSa9znA.s:60     .text:000000000000002c .L0 
     /tmp/ccSa9znA.s:61     .text:0000000000000030 .L0 
     /tmp/ccSa9znA.s:67     .text:0000000000000044 .L0 
     /tmp/ccSa9znA.s:68     .text:0000000000000044 .L0 
     /tmp/ccSa9znA.s:69     .text:0000000000000044 .L0 
     /tmp/ccSa9znA.s:70     .text:0000000000000044 .L0 
     /tmp/ccSa9znA.s:71     .text:0000000000000044 .L0 
     /tmp/ccSa9znA.s:73     .text:0000000000000048 .L0 
     /tmp/ccSa9znA.s:77     .text:0000000000000050 .L0 
     /tmp/ccSa9znA.s:78     .text:0000000000000050 .L0 
     /tmp/ccSa9znA.s:87     .text:000000000000006c .L0 
     /tmp/ccSa9znA.s:89     .text:0000000000000070 .L0 
     /tmp/ccSa9znA.s:91     .text:0000000000000074 .L0 
     /tmp/ccSa9znA.s:94     .text:0000000000000078 .L0 
     /tmp/ccSa9znA.s:95     .text:000000000000007c .L0 
     /tmp/ccSa9znA.s:96     .text:000000000000007c .L0 
     /tmp/ccSa9znA.s:98     .text:0000000000000080 .L0 
     /tmp/ccSa9znA.s:99     .text:0000000000000080 .L0 
     /tmp/ccSa9znA.s:101    .text:0000000000000084 .L0 
     /tmp/ccSa9znA.s:103    .text:0000000000000088 .L0 
     /tmp/ccSa9znA.s:106    .text:000000000000008c .L0 
     /tmp/ccSa9znA.s:108    .text:0000000000000090 .L0 
     /tmp/ccSa9znA.s:112    .text:0000000000000094 .L0 
     /tmp/ccSa9znA.s:114    .text:0000000000000094 .L0 
     /tmp/ccSa9znA.s:116    .text:000000000000009c .L0 
     /tmp/ccSa9znA.s:122    .text:000000000000009c _ZN3Sem7__closeEv
     /tmp/ccSa9znA.s:125    .text:000000000000009c .L0 
     /tmp/ccSa9znA.s:127    .text:000000000000009c .L0 
     /tmp/ccSa9znA.s:128    .text:000000000000009c .L0 
     /tmp/ccSa9znA.s:129    .text:000000000000009c .L0 
     /tmp/ccSa9znA.s:131    .text:00000000000000a0 .L0 
     /tmp/ccSa9znA.s:133    .text:00000000000000a4 .L0 
     /tmp/ccSa9znA.s:134    .text:00000000000000a8 .L0 
     /tmp/ccSa9znA.s:139    .text:00000000000000b8 .L0 
     /tmp/ccSa9znA.s:140    .text:00000000000000b8 .L0 
     /tmp/ccSa9znA.s:141    .text:00000000000000b8 .L0 
GAS LISTING /tmp/ccSa9znA.s 			page 18


     /tmp/ccSa9znA.s:142    .text:00000000000000b8 .L0 
     /tmp/ccSa9znA.s:144    .text:00000000000000bc .L0 
     /tmp/ccSa9znA.s:147    .text:00000000000000c0 .L0 
     /tmp/ccSa9znA.s:148    .text:00000000000000c0 .L0 
     /tmp/ccSa9znA.s:156    .text:00000000000000c8 .L0 
     /tmp/ccSa9znA.s:159    .text:00000000000000cc .L0 
     /tmp/ccSa9znA.s:162    .text:00000000000000d0 .L0 
     /tmp/ccSa9znA.s:171    .text:00000000000000d8 .L0 
     /tmp/ccSa9znA.s:172    .text:00000000000000d8 .L0 
     /tmp/ccSa9znA.s:173    .text:00000000000000d8 .L0 
     /tmp/ccSa9znA.s:179    .text:00000000000000e0 .L0 
     /tmp/ccSa9znA.s:180    .text:00000000000000e0 .L0 
     /tmp/ccSa9znA.s:186    .text:00000000000000ec .L0 
     /tmp/ccSa9znA.s:189    .text:00000000000000ec .L0 
     /tmp/ccSa9znA.s:190    .text:00000000000000ec .L0 
     /tmp/ccSa9znA.s:192    .text:00000000000000f0 .L0 
     /tmp/ccSa9znA.s:194    .text:00000000000000f4 .L0 
     /tmp/ccSa9znA.s:199    .text:00000000000000f8 .L0 
     /tmp/ccSa9znA.s:205    .text:00000000000000fc .L0 
     /tmp/ccSa9znA.s:206    .text:00000000000000fc .L0 
     /tmp/ccSa9znA.s:208    .text:0000000000000100 .L0 
     /tmp/ccSa9znA.s:211    .text:0000000000000104 .L0 
     /tmp/ccSa9znA.s:213    .text:0000000000000108 .L0 
     /tmp/ccSa9znA.s:215    .text:000000000000010c .L0 
     /tmp/ccSa9znA.s:220    .text:0000000000000114 .L0 
     /tmp/ccSa9znA.s:224    .text:000000000000011c .L0 
     /tmp/ccSa9znA.s:225    .text:000000000000011c .L0 
     /tmp/ccSa9znA.s:226    .text:000000000000011c .L0 
     /tmp/ccSa9znA.s:227    .text:000000000000011c .L0 
     /tmp/ccSa9znA.s:228    .text:000000000000011c .L0 
     /tmp/ccSa9znA.s:233    .text:000000000000011c .L0 
     /tmp/ccSa9znA.s:236    .text:0000000000000120 .L0 
     /tmp/ccSa9znA.s:239    .text:0000000000000124 .L0 
     /tmp/ccSa9znA.s:240    .text:0000000000000124 .L0 
     /tmp/ccSa9znA.s:241    .text:0000000000000124 .L0 
     /tmp/ccSa9znA.s:242    .text:0000000000000124 .L0 
     /tmp/ccSa9znA.s:243    .text:0000000000000124 .L0 
     /tmp/ccSa9znA.s:245    .text:0000000000000124 .L0 
     /tmp/ccSa9znA.s:249    .text:0000000000000128 .L0 
     /tmp/ccSa9znA.s:250    .text:000000000000012c .L0 
     /tmp/ccSa9znA.s:251    .text:000000000000012c .L0 
     /tmp/ccSa9znA.s:253    .text:0000000000000130 .L0 
     /tmp/ccSa9znA.s:254    .text:0000000000000130 .L0 
     /tmp/ccSa9znA.s:256    .text:0000000000000134 .L0 
     /tmp/ccSa9znA.s:259    .text:0000000000000138 .L0 
     /tmp/ccSa9znA.s:261    .text:000000000000013c .L0 
     /tmp/ccSa9znA.s:265    .text:0000000000000140 .L0 
     /tmp/ccSa9znA.s:267    .text:0000000000000140 .L0 
     /tmp/ccSa9znA.s:269    .text:0000000000000148 .L0 
     /tmp/ccSa9znA.s:275    .text:0000000000000148 _ZN3SemD2Ev
     /tmp/ccSa9znA.s:278    .text:0000000000000148 .L0 
     /tmp/ccSa9znA.s:3815   .data.rel.local.DW.ref.__gxx_personality_v0:0000000000000000 DW.ref.__gxx_personality_v0
     /tmp/ccSa9znA.s:282    .text:0000000000000148 .L0 
     /tmp/ccSa9znA.s:283    .text:000000000000014c .L0 
     /tmp/ccSa9znA.s:286    .text:0000000000000154 .L0 
     /tmp/ccSa9znA.s:287    .text:0000000000000154 .L0 
     /tmp/ccSa9znA.s:289    .text:0000000000000158 .L0 
GAS LISTING /tmp/ccSa9znA.s 			page 19


     /tmp/ccSa9znA.s:292    .text:0000000000000158 .L0 
     /tmp/ccSa9znA.s:293    .text:0000000000000158 .L0 
     /tmp/ccSa9znA.s:297    .text:0000000000000160 .L0 
     /tmp/ccSa9znA.s:298    .text:0000000000000164 .L0 
     /tmp/ccSa9znA.s:300    .text:0000000000000168 .L0 
     /tmp/ccSa9znA.s:301    .text:0000000000000168 .L0 
     /tmp/ccSa9znA.s:303    .text:000000000000016c .L0 
     /tmp/ccSa9znA.s:305    .text:0000000000000170 .L0 
     /tmp/ccSa9znA.s:275    .text:0000000000000148 _ZN3SemD1Ev
     /tmp/ccSa9znA.s:321    .text:0000000000000170 _ZN3Sem6__waitEv
     /tmp/ccSa9znA.s:324    .text:0000000000000170 .L0 
     /tmp/ccSa9znA.s:326    .text:0000000000000170 .L0 
     /tmp/ccSa9znA.s:327    .text:0000000000000170 .L0 
     /tmp/ccSa9znA.s:328    .text:0000000000000170 .L0 
     /tmp/ccSa9znA.s:330    .text:0000000000000174 .L0 
     /tmp/ccSa9znA.s:332    .text:0000000000000178 .L0 
     /tmp/ccSa9znA.s:333    .text:000000000000017c .L0 
     /tmp/ccSa9znA.s:338    .text:000000000000018c .L0 
     /tmp/ccSa9znA.s:339    .text:000000000000018c .L0 
     /tmp/ccSa9znA.s:340    .text:000000000000018c .L0 
     /tmp/ccSa9znA.s:341    .text:000000000000018c .L0 
     /tmp/ccSa9znA.s:343    .text:0000000000000190 .L0 
     /tmp/ccSa9znA.s:346    .text:0000000000000194 .L0 
     /tmp/ccSa9znA.s:347    .text:0000000000000194 .L0 
     /tmp/ccSa9znA.s:349    .text:0000000000000198 .L0 
     /tmp/ccSa9znA.s:351    .text:000000000000019c .L0 
     /tmp/ccSa9znA.s:353    .text:00000000000001a0 .L0 
     /tmp/ccSa9znA.s:356    .text:00000000000001a8 .L0 
     /tmp/ccSa9znA.s:360    .text:00000000000001ac .L0 
     /tmp/ccSa9znA.s:361    .text:00000000000001b0 .L0 
     /tmp/ccSa9znA.s:362    .text:00000000000001b0 .L0 
     /tmp/ccSa9znA.s:364    .text:00000000000001b4 .L0 
     /tmp/ccSa9znA.s:365    .text:00000000000001b4 .L0 
     /tmp/ccSa9znA.s:367    .text:00000000000001b8 .L0 
     /tmp/ccSa9znA.s:370    .text:00000000000001bc .L0 
     /tmp/ccSa9znA.s:372    .text:00000000000001c0 .L0 
     /tmp/ccSa9znA.s:376    .text:00000000000001c4 .L0 
     /tmp/ccSa9znA.s:378    .text:00000000000001c4 .L0 
     /tmp/ccSa9znA.s:379    .text:00000000000001c4 .L0 
     /tmp/ccSa9znA.s:385    .text:00000000000001d0 .L0 
     /tmp/ccSa9znA.s:386    .text:00000000000001d0 .L0 
     /tmp/ccSa9znA.s:394    .text:00000000000001d8 .L0 
     /tmp/ccSa9znA.s:395    .text:00000000000001d8 .L0 
     /tmp/ccSa9znA.s:401    .text:00000000000001e4 .L0 
     /tmp/ccSa9znA.s:407    .text:00000000000001ec .L0 
     /tmp/ccSa9znA.s:409    .text:00000000000001f0 .L0 
     /tmp/ccSa9znA.s:411    .text:00000000000001f4 .L0 
     /tmp/ccSa9znA.s:413    .text:00000000000001f8 .L0 
     /tmp/ccSa9znA.s:419    .text:00000000000001fc .L0 
     /tmp/ccSa9znA.s:420    .text:00000000000001fc .L0 
     /tmp/ccSa9znA.s:423    .text:0000000000000204 .L0 
     /tmp/ccSa9znA.s:430    .text:000000000000020c .L0 
     /tmp/ccSa9znA.s:435    .text:0000000000000218 .L0 
     /tmp/ccSa9znA.s:436    .text:0000000000000218 .L0 
     /tmp/ccSa9znA.s:437    .text:0000000000000218 .L0 
     /tmp/ccSa9znA.s:438    .text:0000000000000218 .L0 
     /tmp/ccSa9znA.s:439    .text:0000000000000218 .L0 
GAS LISTING /tmp/ccSa9znA.s 			page 20


     /tmp/ccSa9znA.s:443    .text:0000000000000218 .L0 
     /tmp/ccSa9znA.s:446    .text:000000000000021c .L0 
     /tmp/ccSa9znA.s:447    .text:0000000000000220 .L0 
     /tmp/ccSa9znA.s:453    .text:0000000000000220 _ZN3Sem8__signalEv
     /tmp/ccSa9znA.s:456    .text:0000000000000220 .L0 
     /tmp/ccSa9znA.s:458    .text:0000000000000220 .L0 
     /tmp/ccSa9znA.s:459    .text:0000000000000220 .L0 
     /tmp/ccSa9znA.s:460    .text:0000000000000220 .L0 
     /tmp/ccSa9znA.s:462    .text:0000000000000224 .L0 
     /tmp/ccSa9znA.s:466    .text:000000000000022c .L0 
     /tmp/ccSa9znA.s:467    .text:000000000000022c .L0 
     /tmp/ccSa9znA.s:469    .text:0000000000000230 .L0 
     /tmp/ccSa9znA.s:472    .text:0000000000000238 .L0 
     /tmp/ccSa9znA.s:474    .text:000000000000023c .L0 
     /tmp/ccSa9znA.s:477    .text:0000000000000240 .L0 
     /tmp/ccSa9znA.s:480    .text:0000000000000244 .L0 
     /tmp/ccSa9znA.s:484    .text:0000000000000248 .L0 
     /tmp/ccSa9znA.s:485    .text:000000000000024c .L0 
     /tmp/ccSa9znA.s:489    .text:0000000000000258 .L0 
     /tmp/ccSa9znA.s:490    .text:0000000000000258 .L0 
     /tmp/ccSa9znA.s:491    .text:0000000000000258 .L0 
     /tmp/ccSa9znA.s:493    .text:000000000000025c .L0 
     /tmp/ccSa9znA.s:500    .text:000000000000025c .L0 
     /tmp/ccSa9znA.s:501    .text:000000000000025c .L0 
     /tmp/ccSa9znA.s:504    .text:0000000000000260 .L0 
     /tmp/ccSa9znA.s:507    .text:0000000000000264 .L0 
     /tmp/ccSa9znA.s:509    .text:0000000000000268 .L0 
     /tmp/ccSa9znA.s:511    .text:000000000000026c .L0 
     /tmp/ccSa9znA.s:514    .text:0000000000000270 .L0 
     /tmp/ccSa9znA.s:517    .text:0000000000000274 .L0 
     /tmp/ccSa9znA.s:525    .text:000000000000027c .L0 
     /tmp/ccSa9znA.s:526    .text:000000000000027c .L0 
     /tmp/ccSa9znA.s:527    .text:000000000000027c .L0 
     /tmp/ccSa9znA.s:533    .text:0000000000000284 .L0 
     /tmp/ccSa9znA.s:534    .text:0000000000000284 .L0 
     /tmp/ccSa9znA.s:540    .text:0000000000000290 .L0 
     /tmp/ccSa9znA.s:542    .text:0000000000000294 .L0 
     /tmp/ccSa9znA.s:543    .text:0000000000000298 .L0 
     /tmp/ccSa9znA.s:544    .text:0000000000000298 .L0 
     /tmp/ccSa9znA.s:546    .text:000000000000029c .L0 
     /tmp/ccSa9znA.s:547    .text:000000000000029c .L0 
     /tmp/ccSa9znA.s:549    .text:00000000000002a0 .L0 
     /tmp/ccSa9znA.s:552    .text:00000000000002a4 .L0 
     /tmp/ccSa9znA.s:556    .text:00000000000002a8 .L0 
     /tmp/ccSa9znA.s:562    .text:00000000000002a8 .L0 
     /tmp/ccSa9znA.s:567    .text:00000000000002b0 .L0 
     /tmp/ccSa9znA.s:571    .text:00000000000002b8 .L0 
     /tmp/ccSa9znA.s:572    .text:00000000000002b8 .L0 
     /tmp/ccSa9znA.s:573    .text:00000000000002b8 .L0 
     /tmp/ccSa9znA.s:574    .text:00000000000002b8 .L0 
     /tmp/ccSa9znA.s:580    .text:00000000000002b8 .L0 
     /tmp/ccSa9znA.s:583    .text:00000000000002c0 .L0 
     /tmp/ccSa9znA.s:589    .text:00000000000002c0 _ZN3Sem10__getValueEv
     /tmp/ccSa9znA.s:592    .text:00000000000002c0 .L0 
     /tmp/ccSa9znA.s:594    .text:00000000000002c0 .L0 
     /tmp/ccSa9znA.s:595    .text:00000000000002c4 .L0 
     /tmp/ccSa9znA.s:597    .text:00000000000002c8 .L0 
GAS LISTING /tmp/ccSa9znA.s 			page 21


     /tmp/ccSa9znA.s:599    .text:00000000000002cc .L0 
     /tmp/ccSa9znA.s:601    .text:00000000000002cc .L0 
     /tmp/ccSa9znA.s:602    .text:00000000000002cc .L0 
     /tmp/ccSa9znA.s:605    .text:00000000000002d4 .L0 
     /tmp/ccSa9znA.s:606    .text:00000000000002d4 .L0 
     /tmp/ccSa9znA.s:608    .text:00000000000002d8 .L0 
     /tmp/ccSa9znA.s:610    .text:00000000000002dc .L0 
     /tmp/ccSa9znA.s:617    .text:00000000000002dc .L0 
     /tmp/ccSa9znA.s:379    .text:00000000000001c4 .L0 
     /tmp/ccSa9znA.s:111    .text:0000000000000094 .L7
     /tmp/ccSa9znA.s:92     .text:0000000000000078 .L4
     /tmp/ccSa9znA.s:223    .text:000000000000011c .L13
     /tmp/ccSa9znA.s:183    .text:00000000000000ec .L12
     /tmp/ccSa9znA.s:238    .text:0000000000000124 .L14
     /tmp/ccSa9znA.s:264    .text:0000000000000140 .L15
     /tmp/ccSa9znA.s:218    .text:0000000000000114 .L16
     /tmp/ccSa9znA.s:157    .text:00000000000000cc .L11
     /tmp/ccSa9znA.s:151    .text:00000000000000c8 .L21
     /tmp/ccSa9znA.s:164    .text:00000000000000d8 .L10
     /tmp/ccSa9znA.s:247    .text:0000000000000128 .L9
     /tmp/ccSa9znA.s:434    .text:0000000000000218 .L28
     /tmp/ccSa9znA.s:375    .text:00000000000001c4 .L34
     /tmp/ccSa9znA.s:426    .text:000000000000020c .L26
     /tmp/ccSa9znA.s:358    .text:00000000000001ac .L25
     /tmp/ccSa9znA.s:414    .text:00000000000001fc .L27
     /tmp/ccSa9znA.s:570    .text:00000000000002b8 .L39
     /tmp/ccSa9znA.s:482    .text:0000000000000248 .L46
     /tmp/ccSa9znA.s:565    .text:00000000000002b0 .L41
     /tmp/ccSa9znA.s:555    .text:00000000000002a8 .L47
     /tmp/ccSa9znA.s:512    .text:0000000000000270 .L38
     /tmp/ccSa9znA.s:519    .text:000000000000027c .L37
     /tmp/ccSa9znA.s:1976   .debug_abbrev:0000000000000000 .Ldebug_abbrev0
     /tmp/ccSa9znA.s:3771   .debug_str:00000000000005a5 .LASF110
     /tmp/ccSa9znA.s:3625   .debug_str:00000000000001ca .LASF111
     /tmp/ccSa9znA.s:3631   .debug_str:00000000000001ee .LASF112
     /tmp/ccSa9znA.s:5      .text:0000000000000000 .Ltext0
     /tmp/ccSa9znA.s:613    .text:00000000000002dc .Letext0
     /tmp/ccSa9znA.s:3561   .debug_line:0000000000000000 .Ldebug_line0
     /tmp/ccSa9znA.s:3709   .debug_str:0000000000000441 .LASF0
     /tmp/ccSa9znA.s:3719   .debug_str:000000000000047d .LASF1
     /tmp/ccSa9znA.s:3693   .debug_str:00000000000003c4 .LASF2
     /tmp/ccSa9znA.s:3655   .debug_str:00000000000002df .LASF4
     /tmp/ccSa9znA.s:3755   .debug_str:0000000000000541 .LASF3
     /tmp/ccSa9znA.s:3585   .debug_str:00000000000000a7 .LASF5
     /tmp/ccSa9znA.s:3723   .debug_str:0000000000000495 .LASF6
     /tmp/ccSa9znA.s:3707   .debug_str:000000000000042e .LASF7
     /tmp/ccSa9znA.s:3783   .debug_str:00000000000006a1 .LASF8
     /tmp/ccSa9znA.s:3637   .debug_str:0000000000000227 .LASF9
     /tmp/ccSa9znA.s:3733   .debug_str:00000000000004ce .LASF10
     /tmp/ccSa9znA.s:3777   .debug_str:0000000000000688 .LASF11
     /tmp/ccSa9znA.s:3589   .debug_str:00000000000000b9 .LASF12
     /tmp/ccSa9znA.s:3569   .debug_str:000000000000003c .LASF13
     /tmp/ccSa9znA.s:3597   .debug_str:00000000000000f8 .LASF14
     /tmp/ccSa9znA.s:3747   .debug_str:0000000000000514 .LASF15
     /tmp/ccSa9znA.s:3611   .debug_str:0000000000000163 .LASF16
     /tmp/ccSa9znA.s:3729   .debug_str:00000000000004be .LASF17
     /tmp/ccSa9znA.s:3787   .debug_str:00000000000006c4 .LASF68
GAS LISTING /tmp/ccSa9znA.s 			page 22


     /tmp/ccSa9znA.s:3649   .debug_str:000000000000029e .LASF113
     /tmp/ccSa9znA.s:3595   .debug_str:00000000000000e0 .LASF114
     /tmp/ccSa9znA.s:3683   .debug_str:000000000000038f .LASF18
     /tmp/ccSa9znA.s:3779   .debug_str:0000000000000697 .LASF21
     /tmp/ccSa9znA.s:3743   .debug_str:00000000000004f8 .LASF19
     /tmp/ccSa9znA.s:3801   .debug_str:0000000000000740 .LASF20
     /tmp/ccSa9znA.s:3703   .debug_str:0000000000000405 .LASF62
     /tmp/ccSa9znA.s:3615   .debug_str:000000000000017f .LASF22
     /tmp/ccSa9znA.s:3689   .debug_str:00000000000003b8 .LASF23
     /tmp/ccSa9znA.s:3653   .debug_str:00000000000002da .LASF24
     /tmp/ccSa9znA.s:3765   .debug_str:000000000000057d .LASF26
     /tmp/ccSa9znA.s:3745   .debug_str:00000000000004fd .LASF31
     /tmp/ccSa9znA.s:3705   .debug_str:0000000000000424 .LASF115
     /tmp/ccSa9znA.s:3643   .debug_str:0000000000000263 .LASF116
     /tmp/ccSa9znA.s:3769   .debug_str:000000000000059c .LASF25
     /tmp/ccSa9znA.s:3619   .debug_str:00000000000001a0 .LASF27
     /tmp/ccSa9znA.s:3635   .debug_str:000000000000021f .LASF28
     /tmp/ccSa9znA.s:3617   .debug_str:0000000000000184 .LASF29
     /tmp/ccSa9znA.s:3773   .debug_str:0000000000000669 .LASF30
     /tmp/ccSa9znA.s:3567   .debug_str:000000000000001e .LASF32
     /tmp/ccSa9znA.s:3593   .debug_str:00000000000000d6 .LASF33
     /tmp/ccSa9znA.s:3671   .debug_str:0000000000000333 .LASF34
     /tmp/ccSa9znA.s:3715   .debug_str:0000000000000468 .LASF35
     /tmp/ccSa9znA.s:3577   .debug_str:0000000000000064 .LASF36
     /tmp/ccSa9znA.s:3677   .debug_str:0000000000000362 .LASF37
     /tmp/ccSa9znA.s:3797   .debug_str:000000000000071b .LASF38
     /tmp/ccSa9znA.s:3573   .debug_str:0000000000000052 .LASF39
     /tmp/ccSa9znA.s:3621   .debug_str:00000000000001bd .LASF40
     /tmp/ccSa9znA.s:3739   .debug_str:00000000000004e7 .LASF41
     /tmp/ccSa9znA.s:3725   .debug_str:00000000000004a8 .LASF42
     /tmp/ccSa9znA.s:3605   .debug_str:0000000000000139 .LASF43
     /tmp/ccSa9znA.s:3695   .debug_str:00000000000003d2 .LASF44
     /tmp/ccSa9znA.s:3803   .debug_str:0000000000000745 .LASF45
     /tmp/ccSa9znA.s:3685   .debug_str:0000000000000399 .LASF46
     /tmp/ccSa9znA.s:3583   .debug_str:000000000000008e .LASF47
     /tmp/ccSa9znA.s:3713   .debug_str:000000000000045f .LASF64
     /tmp/ccSa9znA.s:3627   .debug_str:00000000000001d6 .LASF66
     /tmp/ccSa9znA.s:3667   .debug_str:000000000000031d .LASF48
     /tmp/ccSa9znA.s:3633   .debug_str:000000000000020c .LASF49
     /tmp/ccSa9znA.s:3701   .debug_str:00000000000003fc .LASF50
     /tmp/ccSa9znA.s:3791   .debug_str:00000000000006e6 .LASF51
     /tmp/ccSa9znA.s:3669   .debug_str:0000000000000326 .LASF52
     /tmp/ccSa9znA.s:3805   .debug_str:000000000000075c .LASF53
     /tmp/ccSa9znA.s:3741   .debug_str:00000000000004f3 .LASF117
     /tmp/ccSa9znA.s:3623   .debug_str:00000000000001c2 .LASF118
     /tmp/ccSa9znA.s:3641   .debug_str:000000000000024b .LASF78
     /tmp/ccSa9znA.s:3663   .debug_str:0000000000000310 .LASF54
     /tmp/ccSa9znA.s:3601   .debug_str:0000000000000114 .LASF55
     /tmp/ccSa9znA.s:3665   .debug_str:0000000000000315 .LASF56
     /tmp/ccSa9znA.s:3717   .debug_str:0000000000000473 .LASF57
     /tmp/ccSa9znA.s:3579   .debug_str:0000000000000081 .LASF58
     /tmp/ccSa9znA.s:3661   .debug_str:0000000000000307 .LASF59
     /tmp/ccSa9znA.s:3687   .debug_str:00000000000003a6 .LASF60
     /tmp/ccSa9znA.s:3679   .debug_str:000000000000036b .LASF119
     /tmp/ccSa9znA.s:3645   .debug_str:000000000000027a .LASF120
     /tmp/ccSa9znA.s:3789   .debug_str:00000000000006d8 .LASF61
     /tmp/ccSa9znA.s:3651   .debug_str:00000000000002b2 .LASF63
GAS LISTING /tmp/ccSa9znA.s 			page 23


     /tmp/ccSa9znA.s:3799   .debug_str:0000000000000735 .LASF65
     /tmp/ccSa9znA.s:3639   .debug_str:0000000000000235 .LASF67
     /tmp/ccSa9znA.s:3767   .debug_str:0000000000000590 .LASF121
     /tmp/ccSa9znA.s:3659   .debug_str:00000000000002ee .LASF122
     /tmp/ccSa9znA.s:3757   .debug_str:0000000000000553 .LASF69
     /tmp/ccSa9znA.s:3587   .debug_str:00000000000000ae .LASF70
     /tmp/ccSa9znA.s:3647   .debug_str:0000000000000293 .LASF71
     /tmp/ccSa9znA.s:3753   .debug_str:000000000000053b .LASF76
     /tmp/ccSa9znA.s:3793   .debug_str:00000000000006fe .LASF72
     /tmp/ccSa9znA.s:3731   .debug_str:00000000000004c8 .LASF73
     /tmp/ccSa9znA.s:3657   .debug_str:00000000000002e6 .LASF74
     /tmp/ccSa9znA.s:3759   .debug_str:0000000000000564 .LASF75
     /tmp/ccSa9znA.s:3629   .debug_str:00000000000001e9 .LASF77
     /tmp/ccSa9znA.s:3609   .debug_str:0000000000000157 .LASF79
     /tmp/ccSa9znA.s:3721   .debug_str:0000000000000490 .LASF80
     /tmp/ccSa9znA.s:3699   .debug_str:00000000000003f0 .LASF81
     /tmp/ccSa9znA.s:3607   .debug_str:0000000000000150 .LASF82
     /tmp/ccSa9znA.s:3565   .debug_str:0000000000000009 .LASF83
     /tmp/ccSa9znA.s:3675   .debug_str:000000000000035a .LASF84
     /tmp/ccSa9znA.s:3697   .debug_str:00000000000003de .LASF85
     /tmp/ccSa9znA.s:3581   .debug_str:0000000000000087 .LASF86
     /tmp/ccSa9znA.s:3711   .debug_str:000000000000044e .LASF87
     /tmp/ccSa9znA.s:3761   .debug_str:000000000000056d .LASF88
     /tmp/ccSa9znA.s:3775   .debug_str:0000000000000675 .LASF89
     /tmp/ccSa9znA.s:3727   .debug_str:00000000000004b3 .LASF90
     /tmp/ccSa9znA.s:3681   .debug_str:0000000000000379 .LASF91
     /tmp/ccSa9znA.s:3613   .debug_str:0000000000000179 .LASF92
     /tmp/ccSa9znA.s:3781   .debug_str:000000000000069c .LASF93
     /tmp/ccSa9znA.s:3795   .debug_str:0000000000000705 .LASF94
     /tmp/ccSa9znA.s:3563   .debug_str:0000000000000000 .LASF95
     /tmp/ccSa9znA.s:3737   .debug_str:00000000000004e2 .LASF96
     /tmp/ccSa9znA.s:3603   .debug_str:000000000000011a .LASF98
     /tmp/ccSa9znA.s:3751   .debug_str:0000000000000536 .LASF97
     /tmp/ccSa9znA.s:3785   .debug_str:00000000000006b1 .LASF99
     /tmp/ccSa9znA.s:590    .text:00000000000002c0 .LFB29
     /tmp/ccSa9znA.s:611    .text:00000000000002dc .LFE29
     /tmp/ccSa9znA.s:3118   .debug_loc:0000000000000000 .LLST28
     /tmp/ccSa9znA.s:454    .text:0000000000000220 .LFB28
     /tmp/ccSa9znA.s:584    .text:00000000000002c0 .LFE28
     /tmp/ccSa9znA.s:3132   .debug_loc:0000000000000039 .LLST21
     /tmp/ccSa9znA.s:3529   .debug_ranges:0000000000000000 .Ldebug_ranges0
     /tmp/ccSa9znA.s:3735   .debug_str:00000000000004dd .LASF100
     /tmp/ccSa9znA.s:3173   .debug_loc:00000000000000e7 .LLST22
     /tmp/ccSa9znA.s:498    .text:000000000000025c .LBB53
     /tmp/ccSa9znA.s:3180   .debug_loc:000000000000010a .LLST23
     /tmp/ccSa9znA.s:3210   .debug_loc:0000000000000171 .LLST24
     /tmp/ccSa9znA.s:3221   .debug_loc:00000000000001a7 .LLST25
     /tmp/ccSa9znA.s:518    .text:000000000000027c .LVL47
     /tmp/ccSa9znA.s:523    .text:000000000000027c .LBB56
     /tmp/ccSa9znA.s:531    .text:0000000000000284 .LBE56
     /tmp/ccSa9znA.s:3228   .debug_loc:00000000000001ca .LLST26
     /tmp/ccSa9znA.s:3236   .debug_loc:00000000000001ee .LLST27
     /tmp/ccSa9znA.s:536    .text:0000000000000290 .LVL49
     /tmp/ccSa9znA.s:322    .text:0000000000000170 .LFB27
     /tmp/ccSa9znA.s:448    .text:0000000000000220 .LFE27
     /tmp/ccSa9znA.s:3243   .debug_loc:0000000000000211 .LLST12
     /tmp/ccSa9znA.s:382    .text:00000000000001d0 .LBB43
GAS LISTING /tmp/ccSa9znA.s 			page 24


     /tmp/ccSa9znA.s:390    .text:00000000000001d8 .LBE43
     /tmp/ccSa9znA.s:3276   .debug_loc:0000000000000299 .LLST13
     /tmp/ccSa9znA.s:3284   .debug_loc:00000000000002bd .LLST14
     /tmp/ccSa9znA.s:392    .text:00000000000001d8 .LBB45
     /tmp/ccSa9znA.s:3291   .debug_loc:00000000000002e0 .LLST15
     /tmp/ccSa9znA.s:3302   .debug_loc:0000000000000316 .LLST16
     /tmp/ccSa9znA.s:3317   .debug_loc:0000000000000350 .LLST17
     /tmp/ccSa9znA.s:398    .text:00000000000001e4 .LBB47
     /tmp/ccSa9znA.s:405    .text:00000000000001ec .LBE47
     /tmp/ccSa9znA.s:3328   .debug_loc:0000000000000386 .LLST18
     /tmp/ccSa9znA.s:3336   .debug_loc:00000000000003aa .LLST19
     /tmp/ccSa9znA.s:3343   .debug_loc:00000000000003cd .LLST20
     /tmp/ccSa9znA.s:397    .text:00000000000001e4 .LVL33
     /tmp/ccSa9znA.s:421    .text:0000000000000204 .LVL36
     /tmp/ccSa9znA.s:123    .text:000000000000009c .LFB26
     /tmp/ccSa9znA.s:270    .text:0000000000000148 .LFE26
     /tmp/ccSa9znA.s:3350   .debug_loc:00000000000003f0 .LLST3
     /tmp/ccSa9znA.s:3387   .debug_loc:000000000000048b .LLST4
     /tmp/ccSa9znA.s:153    .text:00000000000000c8 .LBB33
     /tmp/ccSa9znA.s:3394   .debug_loc:00000000000004ae .LLST5
     /tmp/ccSa9znA.s:3409   .debug_loc:00000000000004e8 .LLST6
     /tmp/ccSa9znA.s:3420   .debug_loc:000000000000051e .LLST7
     /tmp/ccSa9znA.s:163    .text:00000000000000d8 .LVL12
     /tmp/ccSa9znA.s:168    .text:00000000000000d8 .LBB36
     /tmp/ccSa9znA.s:177    .text:00000000000000e0 .LBE36
     /tmp/ccSa9znA.s:3427   .debug_loc:0000000000000541 .LLST8
     /tmp/ccSa9znA.s:3435   .debug_loc:0000000000000565 .LLST9
     /tmp/ccSa9znA.s:182    .text:00000000000000ec .LVL14
     /tmp/ccSa9znA.s:187    .text:00000000000000ec .LBB39
     /tmp/ccSa9znA.s:197    .text:00000000000000f8 .LBE39
     /tmp/ccSa9znA.s:3442   .debug_loc:0000000000000588 .LLST10
     /tmp/ccSa9znA.s:56     .text:000000000000002c .LFB25
     /tmp/ccSa9znA.s:117    .text:000000000000009c .LFE25
     /tmp/ccSa9znA.s:3763   .debug_str:0000000000000576 .LASF101
     /tmp/ccSa9znA.s:3457   .debug_loc:00000000000005c2 .LLST1
     /tmp/ccSa9znA.s:3807   .debug_str:0000000000000780 .LASF102
     /tmp/ccSa9znA.s:3479   .debug_loc:0000000000000621 .LLST2
     /tmp/ccSa9znA.s:81     .text:000000000000005c .LVL5
     /tmp/ccSa9znA.s:85     .text:000000000000006c .LVL6
     /tmp/ccSa9znA.s:3575   .debug_str:000000000000005a .LASF103
     /tmp/ccSa9znA.s:3749   .debug_str:000000000000052a .LASF104
     /tmp/ccSa9znA.s:276    .text:0000000000000148 .LFB23
     /tmp/ccSa9znA.s:306    .text:0000000000000170 .LFE23
     /tmp/ccSa9znA.s:3493   .debug_loc:000000000000065a .LLST11
     /tmp/ccSa9znA.s:294    .text:0000000000000160 .LVL26
     /tmp/ccSa9znA.s:3673   .debug_str:000000000000034e .LASF105
     /tmp/ccSa9znA.s:10     .text:0000000000000000 .LFB20
     /tmp/ccSa9znA.s:48     .text:000000000000002c .LFE20
     /tmp/ccSa9znA.s:23     .text:000000000000000c .LBB30
     /tmp/ccSa9znA.s:31     .text:0000000000000014 .LBE30
     /tmp/ccSa9znA.s:3507   .debug_loc:0000000000000693 .LLST0
     /tmp/ccSa9znA.s:3691   .debug_str:00000000000003bd .LASF106
     /tmp/ccSa9znA.s:3599   .debug_str:0000000000000104 .LASF108
     /tmp/ccSa9znA.s:3571   .debug_str:000000000000004c .LASF107
     /tmp/ccSa9znA.s:3591   .debug_str:00000000000000c9 .LASF109
     /tmp/ccSa9znA.s:593    .text:00000000000002c0 .LVL55
     /tmp/ccSa9znA.s:603    .text:00000000000002d0 .LVL56
GAS LISTING /tmp/ccSa9znA.s 			page 25


     /tmp/ccSa9znA.s:457    .text:0000000000000220 .LVL40
     /tmp/ccSa9znA.s:478    .text:0000000000000244 .LVL41
     /tmp/ccSa9znA.s:481    .text:0000000000000248 .LVL42
     /tmp/ccSa9znA.s:502    .text:0000000000000260 .LVL44
     /tmp/ccSa9znA.s:554    .text:00000000000002a8 .LVL51
     /tmp/ccSa9znA.s:569    .text:00000000000002b8 .LVL53
     /tmp/ccSa9znA.s:581    .text:00000000000002bc .LVL54
     /tmp/ccSa9znA.s:550    .text:00000000000002a0 .LVL50
     /tmp/ccSa9znA.s:497    .text:000000000000025c .LVL43
     /tmp/ccSa9znA.s:505    .text:0000000000000264 .LVL45
     /tmp/ccSa9znA.s:564    .text:00000000000002b0 .LVL52
     /tmp/ccSa9znA.s:515    .text:0000000000000274 .LVL46
     /tmp/ccSa9znA.s:529    .text:0000000000000284 .LVL48
     /tmp/ccSa9znA.s:325    .text:0000000000000170 .LVL27
     /tmp/ccSa9znA.s:357    .text:00000000000001ac .LVL28
     /tmp/ccSa9znA.s:368    .text:00000000000001b8 .LVL29
     /tmp/ccSa9znA.s:374    .text:00000000000001c4 .LVL30
     /tmp/ccSa9znA.s:433    .text:0000000000000218 .LVL38
     /tmp/ccSa9znA.s:444    .text:000000000000021c .LVL39
     /tmp/ccSa9znA.s:381    .text:00000000000001d0 .LVL31
     /tmp/ccSa9znA.s:388    .text:00000000000001d8 .LVL32
     /tmp/ccSa9znA.s:415    .text:00000000000001fc .LVL35
     /tmp/ccSa9znA.s:425    .text:000000000000020c .LVL37
     /tmp/ccSa9znA.s:403    .text:00000000000001ec .LVL34
     /tmp/ccSa9znA.s:126    .text:000000000000009c .LVL9
     /tmp/ccSa9znA.s:150    .text:00000000000000c8 .LVL10
     /tmp/ccSa9znA.s:222    .text:000000000000011c .LVL19
     /tmp/ccSa9znA.s:234    .text:0000000000000120 .LVL20
     /tmp/ccSa9znA.s:237    .text:0000000000000124 .LVL21
     /tmp/ccSa9znA.s:257    .text:0000000000000134 .LVL23
     /tmp/ccSa9znA.s:263    .text:0000000000000140 .LVL24
     /tmp/ccSa9znA.s:202    .text:00000000000000fc .LVL16
     /tmp/ccSa9znA.s:209    .text:0000000000000104 .LVL17
     /tmp/ccSa9znA.s:217    .text:0000000000000114 .LVL18
     /tmp/ccSa9znA.s:160    .text:00000000000000d0 .LVL11
     /tmp/ccSa9znA.s:175    .text:00000000000000e0 .LVL13
     /tmp/ccSa9znA.s:195    .text:00000000000000f8 .LVL15
     /tmp/ccSa9znA.s:246    .text:0000000000000128 .LVL22
     /tmp/ccSa9znA.s:59     .text:000000000000002c .LVL3
     /tmp/ccSa9znA.s:79     .text:0000000000000054 .LVL4
     /tmp/ccSa9znA.s:104    .text:0000000000000088 .LVL7
     /tmp/ccSa9znA.s:110    .text:0000000000000094 .LVL8
     /tmp/ccSa9znA.s:281    .text:0000000000000148 .LVL25
     /tmp/ccSa9znA.s:21     .text:000000000000000c .LVL1
     /tmp/ccSa9znA.s:29     .text:0000000000000014 .LVL2
     /tmp/ccSa9znA.s:618    .debug_info:0000000000000000 .Ldebug_info0
     /tmp/ccSa9znA.s:152    .text:00000000000000c8 .LBB32
     /tmp/ccSa9znA.s:184    .text:00000000000000ec .LBE32
     /tmp/ccSa9znA.s:200    .text:00000000000000fc .LBB41
     /tmp/ccSa9znA.s:231    .text:000000000000011c .LBE41
     /tmp/ccSa9znA.s:166    .text:00000000000000d8 .LBE33
     /tmp/ccSa9znA.s:203    .text:00000000000000fc .LBB38
     /tmp/ccSa9znA.s:230    .text:000000000000011c .LBE38
     /tmp/ccSa9znA.s:417    .text:00000000000001fc .LBE45
     /tmp/ccSa9znA.s:427    .text:000000000000020c .LBB50
     /tmp/ccSa9znA.s:441    .text:0000000000000218 .LBE50
     /tmp/ccSa9znA.s:495    .text:000000000000025c .LBB52
GAS LISTING /tmp/ccSa9znA.s 			page 26


     /tmp/ccSa9znA.s:537    .text:0000000000000290 .LBE52
     /tmp/ccSa9znA.s:558    .text:00000000000002a8 .LBB59
     /tmp/ccSa9znA.s:577    .text:00000000000002b8 .LBE59
     /tmp/ccSa9znA.s:521    .text:000000000000027c .LBE53
     /tmp/ccSa9znA.s:559    .text:00000000000002a8 .LBB58
     /tmp/ccSa9znA.s:576    .text:00000000000002b8 .LBE58
     /tmp/ccSa9znA.s:309    .gcc_except_table:0000000000000000 .LLSDA23

UNDEFINED SYMBOLS
_Znwm
_ZdlPv
_ZN9Scheduler3putEP3TCB
__gxx_personality_v0
_ZN3TCB7runningE
_ZN3TCB8dispatchEv
