GAS LISTING /tmp/ccSa9znA.s 			page 1


   1              		.file	"sem.cpp"
   2              		.option pic
   3              		.option norelax
   4              		.text
   5              	.Ltext0:
   6              		.align	2
   7              		.globl	_ZN3SemC2Ej
   9              	_ZN3SemC2Ej:
  10              	.LFB20:
  11              		.file 1 "src/sem.cpp"
   1:src/sem.cpp   **** #include "../h/sem.hpp"
   2:src/sem.cpp   **** 
   3:src/sem.cpp   **** class TCB;
   4:src/sem.cpp   **** typedef TCB* thread_t;
   5:src/sem.cpp   **** 
   6:src/sem.cpp   **** 
   7:src/sem.cpp   **** Sem::Sem(unsigned init)
  12              		.loc 1 7 1
  13              		.cfi_startproc
  14              	.LVL0:
  15 0000 130101FF 		addi	sp,sp,-16
  16              		.cfi_def_cfa_offset 16
  17 0004 23348100 		sd	s0,8(sp)
  18              		.cfi_offset 8, -8
  19 0008 13040101 		addi	s0,sp,16
  20              		.cfi_def_cfa 8, 0
  21              	.LVL1:
  22              	.LBB29:
  23              	.LBB30:
  24              	.LBB31:
  25              		.file 2 "src/../h/../h/list.hpp"
   1:src/../h/../h/list.hpp **** //
   2:src/../h/../h/list.hpp **** // Created by marko on 20.4.22..
   3:src/../h/../h/list.hpp **** //
   4:src/../h/../h/list.hpp **** 
   5:src/../h/../h/list.hpp **** #ifndef OS1_VEZBE07_RISCV_CONTEXT_SWITCH_1_SYNCHRONOUS_LIST_HPP
   6:src/../h/../h/list.hpp **** #define OS1_VEZBE07_RISCV_CONTEXT_SWITCH_1_SYNCHRONOUS_LIST_HPP
   7:src/../h/../h/list.hpp **** 
   8:src/../h/../h/list.hpp **** template<typename T>
   9:src/../h/../h/list.hpp **** class List
  10:src/../h/../h/list.hpp **** {
  11:src/../h/../h/list.hpp **** private:
  12:src/../h/../h/list.hpp ****     struct Elem
  13:src/../h/../h/list.hpp ****     {
  14:src/../h/../h/list.hpp ****         T *data;
  15:src/../h/../h/list.hpp ****         Elem *next;
  16:src/../h/../h/list.hpp **** 
  17:src/../h/../h/list.hpp ****         Elem(T *data, Elem *next) : data(data), next(next) {}
  18:src/../h/../h/list.hpp ****     };
  19:src/../h/../h/list.hpp **** 
  20:src/../h/../h/list.hpp ****     Elem *head, *tail;
  21:src/../h/../h/list.hpp **** 
  22:src/../h/../h/list.hpp **** public:
  23:src/../h/../h/list.hpp ****     List() : head(0), tail(0) {}
  26              		.loc 2 23 29 is_stmt 0
  27 000c 23340500 		sd	zero,8(a0)
  28 0010 23380500 		sd	zero,16(a0)
GAS LISTING /tmp/ccSa9znA.s 			page 2


  29              	.LVL2:
  30              	.LBE31:
  31              	.LBE30:
   8:src/sem.cpp   **** {
   9:src/sem.cpp   ****     this->value = (int)init;
  32              		.loc 1 9 5 is_stmt 1
  33              		.loc 1 9 17 is_stmt 0
  34 0014 2320B500 		sw	a1,0(a0)
  10:src/sem.cpp   ****     this->open = true;
  35              		.loc 1 10 5 is_stmt 1
  36              		.loc 1 10 16 is_stmt 0
  37 0018 93071000 		li	a5,1
  38 001c 2302F500 		sb	a5,4(a0)
  39              	.LBE29:
  11:src/sem.cpp   **** }
  40              		.loc 1 11 1
  41 0020 03348100 		ld	s0,8(sp)
  42              		.cfi_restore 8
  43              		.cfi_def_cfa 2, 16
  44 0024 13010101 		addi	sp,sp,16
  45              		.cfi_def_cfa_offset 0
  46 0028 67800000 		jr	ra
  47              		.cfi_endproc
  48              	.LFE20:
  50              		.globl	_ZN3SemC1Ej
  51              		.set	_ZN3SemC1Ej,_ZN3SemC2Ej
  52              		.align	2
  53              		.globl	_ZN3Sem6__openEPPS_j
  55              	_ZN3Sem6__openEPPS_j:
  56              	.LFB25:
  12:src/sem.cpp   **** 
  13:src/sem.cpp   **** 
  14:src/sem.cpp   **** Sem::~Sem()
  15:src/sem.cpp   **** {
  16:src/sem.cpp   ****     __close();
  17:src/sem.cpp   **** }
  18:src/sem.cpp   **** 
  19:src/sem.cpp   **** 
  20:src/sem.cpp   **** int
  21:src/sem.cpp   **** Sem::__open(Sem **handle, unsigned init)
  22:src/sem.cpp   **** {
  57              		.loc 1 22 1 is_stmt 1
  58              		.cfi_startproc
  59              	.LVL3:
  60 002c 130101FD 		addi	sp,sp,-48
  61              		.cfi_def_cfa_offset 48
  62 0030 23341102 		sd	ra,40(sp)
  63 0034 23308102 		sd	s0,32(sp)
  64 0038 233C9100 		sd	s1,24(sp)
  65 003c 23382101 		sd	s2,16(sp)
  66 0040 23343101 		sd	s3,8(sp)
  67              		.cfi_offset 1, -8
  68              		.cfi_offset 8, -16
  69              		.cfi_offset 9, -24
  70              		.cfi_offset 18, -32
  71              		.cfi_offset 19, -40
  72 0044 13040103 		addi	s0,sp,48
GAS LISTING /tmp/ccSa9znA.s 			page 3


  73              		.cfi_def_cfa 8, 0
  74 0048 13090500 		mv	s2,a0
  75 004c 93890500 		mv	s3,a1
  23:src/sem.cpp   ****     *handle = new Sem(init);
  76              		.loc 1 23 5
  77              		.loc 1 23 27 is_stmt 0
  78 0050 13058001 		li	a0,24
  79              	.LVL4:
  80 0054 97000000 		call	_Znwm@plt
  80      E7800000 
  81              	.LVL5:
  82 005c 93040500 		mv	s1,a0
  83 0060 93850900 		mv	a1,s3
  84 0064 97000000 		call	_ZN3SemC1Ej
  84      E7800000 
  85              	.LVL6:
  86              		.loc 1 23 13
  87 006c 23309900 		sd	s1,0(s2)
  24:src/sem.cpp   **** 
  25:src/sem.cpp   ****     if (*handle)
  88              		.loc 1 25 5 is_stmt 1
  89 0070 63820402 		beqz	s1,.L7
  26:src/sem.cpp   ****         return 0;
  90              		.loc 1 26 16 is_stmt 0
  91 0074 13050000 		li	a0,0
  92              	.L4:
  27:src/sem.cpp   **** 
  28:src/sem.cpp   ****     return -1;
  29:src/sem.cpp   **** }
  93              		.loc 1 29 1
  94 0078 83308102 		ld	ra,40(sp)
  95              		.cfi_remember_state
  96              		.cfi_restore 1
  97 007c 03340102 		ld	s0,32(sp)
  98              		.cfi_restore 8
  99              		.cfi_def_cfa 2, 48
 100 0080 83348101 		ld	s1,24(sp)
 101              		.cfi_restore 9
 102 0084 03390101 		ld	s2,16(sp)
 103              		.cfi_restore 18
 104              	.LVL7:
 105 0088 83398100 		ld	s3,8(sp)
 106              		.cfi_restore 19
 107 008c 13010103 		addi	sp,sp,48
 108              		.cfi_def_cfa_offset 0
 109 0090 67800000 		jr	ra
 110              	.LVL8:
 111              	.L7:
 112              		.cfi_restore_state
  28:src/sem.cpp   **** }
 113              		.loc 1 28 13
 114 0094 1305F0FF 		li	a0,-1
 115 0098 6FF01FFE 		j	.L4
 116              		.cfi_endproc
 117              	.LFE25:
 119              		.align	2
 120              		.globl	_ZN3Sem7__closeEv
GAS LISTING /tmp/ccSa9znA.s 			page 4


 122              	_ZN3Sem7__closeEv:
 123              	.LFB26:
  30:src/sem.cpp   **** 
  31:src/sem.cpp   **** 
  32:src/sem.cpp   **** int
  33:src/sem.cpp   **** Sem::__close()
  34:src/sem.cpp   **** {
 124              		.loc 1 34 1 is_stmt 1
 125              		.cfi_startproc
 126              	.LVL9:
  35:src/sem.cpp   ****     if(!open)
 127              		.loc 1 35 5
 128              		.loc 1 35 9 is_stmt 0
 129 009c 83474500 		lbu	a5,4(a0)
 130              		.loc 1 35 5
 131 00a0 638E0706 		beqz	a5,.L13
  34:src/sem.cpp   ****     if(!open)
 132              		.loc 1 34 1
 133 00a4 130101FE 		addi	sp,sp,-32
 134              		.cfi_def_cfa_offset 32
 135 00a8 233C1100 		sd	ra,24(sp)
 136 00ac 23388100 		sd	s0,16(sp)
 137 00b0 23349100 		sd	s1,8(sp)
 138 00b4 23302101 		sd	s2,0(sp)
 139              		.cfi_offset 1, -8
 140              		.cfi_offset 8, -16
 141              		.cfi_offset 9, -24
 142              		.cfi_offset 18, -32
 143 00b8 13040102 		addi	s0,sp,32
 144              		.cfi_def_cfa 8, 0
 145 00bc 93040500 		mv	s1,a0
  36:src/sem.cpp   ****         return -1;
  37:src/sem.cpp   **** 
  38:src/sem.cpp   ****     open = false;
 146              		.loc 1 38 5 is_stmt 1
 147              		.loc 1 38 10 is_stmt 0
 148 00c0 23020500 		sb	zero,4(a0)
 149 00c4 6F008002 		j	.L12
 150              	.LVL10:
 151              	.L21:
 152              	.LBB32:
 153              	.LBB33:
 154              	.LBB34:
  24:src/../h/../h/list.hpp **** 
  25:src/../h/../h/list.hpp ****     List(const List<T> &) = delete;
  26:src/../h/../h/list.hpp **** 
  27:src/../h/../h/list.hpp ****     List<T> &operator=(const List<T> &) = delete;
  28:src/../h/../h/list.hpp **** 
  29:src/../h/../h/list.hpp ****     void addFirst(T *data)
  30:src/../h/../h/list.hpp ****     {
  31:src/../h/../h/list.hpp ****         Elem *elem = new Elem(data, head);
  32:src/../h/../h/list.hpp ****         head = elem;
  33:src/../h/../h/list.hpp ****         if (!tail) { tail = head; }
  34:src/../h/../h/list.hpp ****     }
  35:src/../h/../h/list.hpp **** 
  36:src/../h/../h/list.hpp ****     void addLast(T *data)
  37:src/../h/../h/list.hpp ****     {
GAS LISTING /tmp/ccSa9znA.s 			page 5


  38:src/../h/../h/list.hpp ****         Elem *elem = new Elem(data, 0);
  39:src/../h/../h/list.hpp ****         if (tail)
  40:src/../h/../h/list.hpp ****         {
  41:src/../h/../h/list.hpp ****             tail->next = elem;
  42:src/../h/../h/list.hpp ****             tail = elem;
  43:src/../h/../h/list.hpp ****         } else
  44:src/../h/../h/list.hpp ****         {
  45:src/../h/../h/list.hpp ****             head = tail = elem;
  46:src/../h/../h/list.hpp ****         }
  47:src/../h/../h/list.hpp ****     }
  48:src/../h/../h/list.hpp **** 
  49:src/../h/../h/list.hpp ****     T *removeFirst()
  50:src/../h/../h/list.hpp ****     {
  51:src/../h/../h/list.hpp ****         if (!head) { return 0; }
  52:src/../h/../h/list.hpp **** 
  53:src/../h/../h/list.hpp ****         Elem *elem = head;
  54:src/../h/../h/list.hpp ****         head = head->next;
  55:src/../h/../h/list.hpp ****         if (!head) { tail = 0; }
 155              		.loc 2 55 22
 156 00c8 23B80400 		sd	zero,16(s1)
 157              	.L11:
  56:src/../h/../h/list.hpp **** 
  57:src/../h/../h/list.hpp ****         T *ret = elem->data;
 158              		.loc 2 57 12
 159 00cc 03390500 		ld	s2,0(a0)
 160              	.LVL11:
  58:src/../h/../h/list.hpp ****         delete elem;
 161              		.loc 2 58 9
 162 00d0 97000000 		call	_ZdlPv@plt
 162      E7800000 
 163              	.LVL12:
 164              	.L10:
 165              	.LBE34:
 166              	.LBE33:
  39:src/sem.cpp   **** 
  40:src/sem.cpp   ****     while(blockedCoroutineQueue.peekLast())
  41:src/sem.cpp   ****     {
  42:src/sem.cpp   ****         thread_t curr = blockedCoroutineQueue.removeFirst();
  43:src/sem.cpp   ****         curr->setState(State::READY);
 167              		.loc 1 43 9 is_stmt 1
 168              	.LBB36:
 169              	.LBB37:
 170              		.file 3 "src/../h/../h/tcb.hpp"
   1:src/../h/../h/tcb.hpp **** //
   2:src/../h/../h/tcb.hpp **** // Created by os on 2/11/23.
   3:src/../h/../h/tcb.hpp **** //
   4:src/../h/../h/tcb.hpp **** 
   5:src/../h/../h/tcb.hpp **** #ifndef PROJECT_BASE_TCB_HPP
   6:src/../h/../h/tcb.hpp **** #define PROJECT_BASE_TCB_HPP
   7:src/../h/../h/tcb.hpp **** 
   8:src/../h/../h/tcb.hpp **** #include "../lib/hw.h"
   9:src/../h/../h/tcb.hpp **** #include "scheduler.hpp"
  10:src/../h/../h/tcb.hpp **** 
  11:src/../h/../h/tcb.hpp **** typedef enum State{ NEW, ACTIVE, READY, BLOCKED, FINISHED } State;
  12:src/../h/../h/tcb.hpp **** 
  13:src/../h/../h/tcb.hpp **** // Thread Control Block
  14:src/../h/../h/tcb.hpp **** class TCB {
GAS LISTING /tmp/ccSa9znA.s 			page 6


  15:src/../h/../h/tcb.hpp **** public:
  16:src/../h/../h/tcb.hpp ****     ~TCB() { delete[] stack; }
  17:src/../h/../h/tcb.hpp **** 
  18:src/../h/../h/tcb.hpp ****     bool isFinished() const      { return finished;  }
  19:src/../h/../h/tcb.hpp ****     void setFinished(bool value) { finished = value; }
  20:src/../h/../h/tcb.hpp ****     uint64 getTimeSlice() const  { return timeSlice; }
  21:src/../h/../h/tcb.hpp **** 
  22:src/../h/../h/tcb.hpp ****     static void dispatch();
  23:src/../h/../h/tcb.hpp **** 
  24:src/../h/../h/tcb.hpp **** 
  25:src/../h/../h/tcb.hpp ****     State getState()            { return state;     }
  26:src/../h/../h/tcb.hpp ****     void  setState(State state) {TCB::state = state;}
 171              		.loc 3 26 34
 172              		.loc 3 26 45 is_stmt 0
 173 00d8 93072000 		li	a5,2
 174 00dc 2328F902 		sw	a5,48(s2)
 175              	.LVL13:
 176              	.LBE37:
 177              	.LBE36:
  44:src/sem.cpp   ****         Scheduler::put(curr);
 178              		.loc 1 44 9 is_stmt 1
 179              		.loc 1 44 23 is_stmt 0
 180 00e0 13050900 		mv	a0,s2
 181 00e4 97000000 		call	_ZN9Scheduler3putEP3TCB@plt
 181      E7800000 
 182              	.LVL14:
 183              	.L12:
 184              	.LBE32:
  40:src/sem.cpp   ****     {
 185              		.loc 1 40 5 is_stmt 1
  40:src/sem.cpp   ****     {
 186              		.loc 1 40 42
 187              	.LBB39:
 188              	.LBB40:
  59:src/../h/../h/list.hpp ****         return ret;
  60:src/../h/../h/list.hpp ****     }
  61:src/../h/../h/list.hpp **** 
  62:src/../h/../h/list.hpp ****     T *peekFirst()
  63:src/../h/../h/list.hpp ****     {
  64:src/../h/../h/list.hpp ****         if (!head) { return 0; }
  65:src/../h/../h/list.hpp ****         return head->data;
  66:src/../h/../h/list.hpp ****     }
  67:src/../h/../h/list.hpp **** 
  68:src/../h/../h/list.hpp ****     T *removeLast()
  69:src/../h/../h/list.hpp ****     {
  70:src/../h/../h/list.hpp ****         if (!head) { return 0; }
  71:src/../h/../h/list.hpp **** 
  72:src/../h/../h/list.hpp ****         Elem *prev = 0;
  73:src/../h/../h/list.hpp ****         for (Elem *curr = head; curr && curr != tail; curr = curr->next)
  74:src/../h/../h/list.hpp ****         {
  75:src/../h/../h/list.hpp ****             prev = curr;
  76:src/../h/../h/list.hpp ****         }
  77:src/../h/../h/list.hpp **** 
  78:src/../h/../h/list.hpp ****         Elem *elem = tail;
  79:src/../h/../h/list.hpp ****         if (prev) { prev->next = 0; }
  80:src/../h/../h/list.hpp ****         else { head = 0; }
  81:src/../h/../h/list.hpp ****         tail = prev;
GAS LISTING /tmp/ccSa9znA.s 			page 7


  82:src/../h/../h/list.hpp **** 
  83:src/../h/../h/list.hpp ****         T *ret = elem->data;
  84:src/../h/../h/list.hpp ****         delete elem;
  85:src/../h/../h/list.hpp ****         return ret;
  86:src/../h/../h/list.hpp ****     }
  87:src/../h/../h/list.hpp **** 
  88:src/../h/../h/list.hpp ****     T *peekLast()
  89:src/../h/../h/list.hpp ****     {
  90:src/../h/../h/list.hpp ****         if (!tail) { return 0; }
 189              		.loc 2 90 14 is_stmt 0
 190 00ec 83B70401 		ld	a5,16(s1)
 191              		.loc 2 90 9
 192 00f0 638A0702 		beqz	a5,.L14
  91:src/../h/../h/list.hpp ****         return tail->data;
 193              		.loc 2 91 22
 194 00f4 83B70700 		ld	a5,0(a5)
 195              	.LVL15:
 196              	.LBE40:
 197              	.LBE39:
  40:src/sem.cpp   ****     {
 198              		.loc 1 40 42
 199 00f8 63840704 		beqz	a5,.L15
 200              	.LBB41:
  42:src/sem.cpp   ****         curr->setState(State::READY);
 201              		.loc 1 42 9 is_stmt 1
 202              	.LVL16:
 203              	.LBB38:
 204              	.LBB35:
  51:src/../h/../h/list.hpp **** 
 205              		.loc 2 51 14 is_stmt 0
 206 00fc 03B58400 		ld	a0,8(s1)
  51:src/../h/../h/list.hpp **** 
 207              		.loc 2 51 9
 208 0100 630A0500 		beqz	a0,.L16
 209              	.LVL17:
  54:src/../h/../h/list.hpp ****         if (!head) { tail = 0; }
 210              		.loc 2 54 22
 211 0104 83378500 		ld	a5,8(a0)
  54:src/../h/../h/list.hpp ****         if (!head) { tail = 0; }
 212              		.loc 2 54 9
 213 0108 23B4F400 		sd	a5,8(s1)
  55:src/../h/../h/list.hpp **** 
 214              		.loc 2 55 9
 215 010c E39007FC 		bnez	a5,.L11
 216 0110 6FF09FFB 		j	.L21
 217              	.LVL18:
 218              	.L16:
  51:src/../h/../h/list.hpp **** 
 219              		.loc 2 51 29
 220 0114 13090500 		mv	s2,a0
 221 0118 6FF01FFC 		j	.L10
 222              	.LVL19:
 223              	.L13:
 224              		.cfi_def_cfa_register 2
 225              		.cfi_restore 1
 226              		.cfi_restore 8
 227              		.cfi_restore 9
GAS LISTING /tmp/ccSa9znA.s 			page 8


 228              		.cfi_restore 18
 229              	.LBE35:
 230              	.LBE38:
 231              	.LBE41:
  36:src/sem.cpp   **** 
 232              		.loc 1 36 17
 233 011c 1305F0FF 		li	a0,-1
 234              	.LVL20:
  45:src/sem.cpp   ****     }
  46:src/sem.cpp   **** 
  47:src/sem.cpp   ****     return 0;
  48:src/sem.cpp   **** }
 235              		.loc 1 48 1
 236 0120 67800000 		ret
 237              	.LVL21:
 238              	.L14:
 239              		.cfi_def_cfa_register 8
 240              		.cfi_offset 1, -8
 241              		.cfi_offset 8, -16
 242              		.cfi_offset 9, -24
 243              		.cfi_offset 18, -32
  47:src/sem.cpp   **** }
 244              		.loc 1 47 12
 245 0124 13050000 		li	a0,0
 246              	.LVL22:
 247              	.L9:
 248              		.loc 1 48 1
 249 0128 83308101 		ld	ra,24(sp)
 250              		.cfi_remember_state
 251              		.cfi_restore 1
 252 012c 03340101 		ld	s0,16(sp)
 253              		.cfi_restore 8
 254              		.cfi_def_cfa 2, 32
 255 0130 83348100 		ld	s1,8(sp)
 256              		.cfi_restore 9
 257              	.LVL23:
 258 0134 03390100 		ld	s2,0(sp)
 259              		.cfi_restore 18
 260 0138 13010102 		addi	sp,sp,32
 261              		.cfi_def_cfa_offset 0
 262 013c 67800000 		jr	ra
 263              	.LVL24:
 264              	.L15:
 265              		.cfi_restore_state
  47:src/sem.cpp   **** }
 266              		.loc 1 47 12
 267 0140 13050000 		li	a0,0
 268 0144 6FF05FFE 		j	.L9
 269              		.cfi_endproc
 270              	.LFE26:
 272              		.align	2
 273              		.globl	_ZN3SemD2Ev
 275              	_ZN3SemD2Ev:
 276              	.LFB23:
  14:src/sem.cpp   **** {
 277              		.loc 1 14 1 is_stmt 1
 278              		.cfi_startproc
GAS LISTING /tmp/ccSa9znA.s 			page 9


 279              		.cfi_personality 0x9b,DW.ref.__gxx_personality_v0
 280              		.cfi_lsda 0x1b,.LLSDA23
 281              	.LVL25:
 282 0148 130101FF 		addi	sp,sp,-16
 283              		.cfi_def_cfa_offset 16
 284 014c 23341100 		sd	ra,8(sp)
 285 0150 23308100 		sd	s0,0(sp)
 286              		.cfi_offset 1, -8
 287              		.cfi_offset 8, -16
 288 0154 13040101 		addi	s0,sp,16
 289              		.cfi_def_cfa 8, 0
 290              	.LBB42:
  16:src/sem.cpp   **** }
 291              		.loc 1 16 5
  16:src/sem.cpp   **** }
 292              		.loc 1 16 12 is_stmt 0
 293 0158 97000000 		call	_ZN3Sem7__closeEv
 293      E7800000 
 294              	.LVL26:
 295              	.LBE42:
  17:src/sem.cpp   **** 
 296              		.loc 1 17 1
 297 0160 83308100 		ld	ra,8(sp)
 298              		.cfi_restore 1
 299 0164 03340100 		ld	s0,0(sp)
 300              		.cfi_restore 8
 301              		.cfi_def_cfa 2, 16
 302 0168 13010101 		addi	sp,sp,16
 303              		.cfi_def_cfa_offset 0
 304 016c 67800000 		jr	ra
 305              		.cfi_endproc
 306              	.LFE23:
 307              		.globl	__gxx_personality_v0
 308              		.section	.gcc_except_table,"a",@progbits
 309              	.LLSDA23:
 310 0000 FF       		.byte	0xff
 311 0001 FF       		.byte	0xff
 312 0002 03       		.byte	0x3
 313 0003 00       		.byte	0
 314              		.text
 316              		.globl	_ZN3SemD1Ev
 317              		.set	_ZN3SemD1Ev,_ZN3SemD2Ev
 318              		.align	2
 319              		.globl	_ZN3Sem6__waitEv
 321              	_ZN3Sem6__waitEv:
 322              	.LFB27:
  49:src/sem.cpp   **** 
  50:src/sem.cpp   **** 
  51:src/sem.cpp   **** int
  52:src/sem.cpp   **** Sem::__wait()
  53:src/sem.cpp   **** {
 323              		.loc 1 53 1 is_stmt 1
 324              		.cfi_startproc
 325              	.LVL27:
  54:src/sem.cpp   ****     if(!open)
 326              		.loc 1 54 5
 327              		.loc 1 54 9 is_stmt 0
GAS LISTING /tmp/ccSa9znA.s 			page 10


 328 0170 83474500 		lbu	a5,4(a0)
 329              		.loc 1 54 5
 330 0174 6382070A 		beqz	a5,.L28
  53:src/sem.cpp   ****     if(!open)
 331              		.loc 1 53 1
 332 0178 130101FE 		addi	sp,sp,-32
 333              		.cfi_def_cfa_offset 32
 334 017c 233C1100 		sd	ra,24(sp)
 335 0180 23388100 		sd	s0,16(sp)
 336 0184 23349100 		sd	s1,8(sp)
 337 0188 23302101 		sd	s2,0(sp)
 338              		.cfi_offset 1, -8
 339              		.cfi_offset 8, -16
 340              		.cfi_offset 9, -24
 341              		.cfi_offset 18, -32
 342 018c 13040102 		addi	s0,sp,32
 343              		.cfi_def_cfa 8, 0
 344 0190 93040500 		mv	s1,a0
  55:src/sem.cpp   ****         return -1;
  56:src/sem.cpp   **** 
  57:src/sem.cpp   ****     if(--(this->value) < 0)
 345              		.loc 1 57 5 is_stmt 1
 346              		.loc 1 57 17 is_stmt 0
 347 0194 83270500 		lw	a5,0(a0)
 348              		.loc 1 57 8
 349 0198 9B87F7FF 		addiw	a5,a5,-1
 350              		.loc 1 57 24
 351 019c 2320F500 		sw	a5,0(a0)
 352              		.loc 1 57 5
 353 01a0 13970702 		slli	a4,a5,32
 354 01a4 63400702 		bltz	a4,.L34
  58:src/sem.cpp   ****     {
  59:src/sem.cpp   ****         TCB::running->setState(State::BLOCKED);
  60:src/sem.cpp   ****         blockedCoroutineQueue.addLast(TCB::running);
  61:src/sem.cpp   ****         TCB::dispatch();
  62:src/sem.cpp   ****     }
  63:src/sem.cpp   **** 
  64:src/sem.cpp   ****     return 0;
 355              		.loc 1 64 12
 356 01a8 13050000 		li	a0,0
 357              	.LVL28:
 358              	.L25:
  65:src/sem.cpp   **** }
 359              		.loc 1 65 1
 360 01ac 83308101 		ld	ra,24(sp)
 361              		.cfi_remember_state
 362              		.cfi_restore 1
 363 01b0 03340101 		ld	s0,16(sp)
 364              		.cfi_restore 8
 365              		.cfi_def_cfa 2, 32
 366 01b4 83348100 		ld	s1,8(sp)
 367              		.cfi_restore 9
 368              	.LVL29:
 369 01b8 03390100 		ld	s2,0(sp)
 370              		.cfi_restore 18
 371 01bc 13010102 		addi	sp,sp,32
 372              		.cfi_def_cfa_offset 0
GAS LISTING /tmp/ccSa9znA.s 			page 11


 373 01c0 67800000 		jr	ra
 374              	.LVL30:
 375              	.L34:
 376              		.cfi_restore_state
  59:src/sem.cpp   ****         blockedCoroutineQueue.addLast(TCB::running);
 377              		.loc 1 59 9 is_stmt 1
  59:src/sem.cpp   ****         blockedCoroutineQueue.addLast(TCB::running);
 378              		.loc 1 59 31 is_stmt 0
 379 01c4 97070000 		la	a5,_ZN3TCB7runningE
 379      83B70700 
 380 01cc 03B90700 		ld	s2,0(a5)
 381              	.LVL31:
 382              	.LBB43:
 383              	.LBB44:
 384              		.loc 3 26 34 is_stmt 1
 385              		.loc 3 26 45 is_stmt 0
 386 01d0 93073000 		li	a5,3
 387 01d4 2328F902 		sw	a5,48(s2)
 388              	.LVL32:
 389              	.LBE44:
 390              	.LBE43:
  60:src/sem.cpp   ****         TCB::dispatch();
 391              		.loc 1 60 9 is_stmt 1
 392              	.LBB45:
 393              	.LBB46:
  38:src/../h/../h/list.hpp ****         if (tail)
 394              		.loc 2 38 22 is_stmt 0
 395 01d8 13050001 		li	a0,16
 396 01dc 97000000 		call	_Znwm@plt
 396      E7800000 
 397              	.LVL33:
 398              	.LBB47:
 399              	.LBB48:
  17:src/../h/../h/list.hpp ****     };
 400              		.loc 2 17 58
 401 01e4 23302501 		sd	s2,0(a0)
 402 01e8 23340500 		sd	zero,8(a0)
 403              	.LVL34:
 404              	.LBE48:
 405              	.LBE47:
  39:src/../h/../h/list.hpp ****         {
 406              		.loc 2 39 13
 407 01ec 83B70401 		ld	a5,16(s1)
  39:src/../h/../h/list.hpp ****         {
 408              		.loc 2 39 9
 409 01f0 638E0700 		beqz	a5,.L26
  41:src/../h/../h/list.hpp ****             tail = elem;
 410              		.loc 2 41 13
 411 01f4 23B4A700 		sd	a0,8(a5)
  42:src/../h/../h/list.hpp ****         } else
 412              		.loc 2 42 13
 413 01f8 23B8A400 		sd	a0,16(s1)
 414              	.L27:
 415              	.LVL35:
 416              	.LBE46:
 417              	.LBE45:
  61:src/sem.cpp   ****     }
GAS LISTING /tmp/ccSa9znA.s 			page 12


 418              		.loc 1 61 9 is_stmt 1
  61:src/sem.cpp   ****     }
 419              		.loc 1 61 22 is_stmt 0
 420 01fc 97000000 		call	_ZN3TCB8dispatchEv@plt
 420      E7800000 
 421              	.LVL36:
  64:src/sem.cpp   **** }
 422              		.loc 1 64 12
 423 0204 13050000 		li	a0,0
 424 0208 6FF05FFA 		j	.L25
 425              	.LVL37:
 426              	.L26:
 427              	.LBB50:
 428              	.LBB49:
  45:src/../h/../h/list.hpp ****         }
 429              		.loc 2 45 13
 430 020c 23B8A400 		sd	a0,16(s1)
 431 0210 23B4A400 		sd	a0,8(s1)
 432 0214 6FF09FFE 		j	.L27
 433              	.LVL38:
 434              	.L28:
 435              		.cfi_def_cfa_register 2
 436              		.cfi_restore 1
 437              		.cfi_restore 8
 438              		.cfi_restore 9
 439              		.cfi_restore 18
 440              	.LBE49:
 441              	.LBE50:
  55:src/sem.cpp   **** 
 442              		.loc 1 55 17
 443 0218 1305F0FF 		li	a0,-1
 444              	.LVL39:
 445              		.loc 1 65 1
 446 021c 67800000 		ret
 447              		.cfi_endproc
 448              	.LFE27:
 450              		.align	2
 451              		.globl	_ZN3Sem8__signalEv
 453              	_ZN3Sem8__signalEv:
 454              	.LFB28:
  66:src/sem.cpp   **** 
  67:src/sem.cpp   **** 
  68:src/sem.cpp   **** int
  69:src/sem.cpp   **** Sem::__signal()
  70:src/sem.cpp   **** {
 455              		.loc 1 70 1 is_stmt 1
 456              		.cfi_startproc
 457              	.LVL40:
  71:src/sem.cpp   ****     if(!open)
 458              		.loc 1 71 5
 459              		.loc 1 71 9 is_stmt 0
 460 0220 03474500 		lbu	a4,4(a0)
 461              		.loc 1 71 5
 462 0224 630A0708 		beqz	a4,.L39
 463 0228 93070500 		mv	a5,a0
  72:src/sem.cpp   ****         return -1;
  73:src/sem.cpp   **** 
GAS LISTING /tmp/ccSa9znA.s 			page 13


  74:src/sem.cpp   ****     if(++(this->value) <= 0)
 464              		.loc 1 74 5 is_stmt 1
 465              	.LBB51:
 466              		.loc 1 74 17 is_stmt 0
 467 022c 03270500 		lw	a4,0(a0)
 468              		.loc 1 74 8
 469 0230 1B071700 		addiw	a4,a4,1
 470 0234 9B060700 		sext.w	a3,a4
 471              		.loc 1 74 24
 472 0238 2320E500 		sw	a4,0(a0)
 473              		.loc 1 74 5
 474 023c 6356D000 		blez	a3,.L46
 475              	.LBE51:
  75:src/sem.cpp   ****     {
  76:src/sem.cpp   ****         thread_t curr = blockedCoroutineQueue.removeFirst();
  77:src/sem.cpp   ****         curr->setState(State::READY);
  78:src/sem.cpp   ****         Scheduler::put(curr);
  79:src/sem.cpp   ****     }
  80:src/sem.cpp   **** 
  81:src/sem.cpp   **** 
  82:src/sem.cpp   ****     return 0;
 476              		.loc 1 82 12
 477 0240 13050000 		li	a0,0
 478              	.LVL41:
  83:src/sem.cpp   **** }
 479              		.loc 1 83 1
 480 0244 67800000 		ret
 481              	.LVL42:
 482              	.L46:
  70:src/sem.cpp   ****     if(!open)
 483              		.loc 1 70 1
 484 0248 130101FE 		addi	sp,sp,-32
 485              		.cfi_def_cfa_offset 32
 486 024c 233C1100 		sd	ra,24(sp)
 487 0250 23388100 		sd	s0,16(sp)
 488 0254 23349100 		sd	s1,8(sp)
 489              		.cfi_offset 1, -8
 490              		.cfi_offset 8, -16
 491              		.cfi_offset 9, -24
 492 0258 13040102 		addi	s0,sp,32
 493              		.cfi_def_cfa 8, 0
 494              	.LBB60:
 495              	.LBB52:
  76:src/sem.cpp   ****         curr->setState(State::READY);
 496              		.loc 1 76 9 is_stmt 1
 497              	.LVL43:
 498              	.LBB53:
 499              	.LBB54:
  51:src/../h/../h/list.hpp **** 
 500              		.loc 2 51 14 is_stmt 0
 501 025c 03358500 		ld	a0,8(a0)
 502              	.LVL44:
  51:src/../h/../h/list.hpp **** 
 503              		.loc 2 51 9
 504 0260 63080504 		beqz	a0,.L41
 505              	.LVL45:
  54:src/../h/../h/list.hpp ****         if (!head) { tail = 0; }
GAS LISTING /tmp/ccSa9znA.s 			page 14


 506              		.loc 2 54 22
 507 0264 03378500 		ld	a4,8(a0)
  54:src/../h/../h/list.hpp ****         if (!head) { tail = 0; }
 508              		.loc 2 54 9
 509 0268 23B4E700 		sd	a4,8(a5)
  55:src/../h/../h/list.hpp **** 
 510              		.loc 2 55 9
 511 026c 630E0702 		beqz	a4,.L47
 512              	.L38:
  57:src/../h/../h/list.hpp ****         delete elem;
 513              		.loc 2 57 12
 514 0270 83340500 		ld	s1,0(a0)
 515              	.LVL46:
  58:src/../h/../h/list.hpp ****         return ret;
 516              		.loc 2 58 9
 517 0274 97000000 		call	_ZdlPv@plt
 517      E7800000 
 518              	.LVL47:
 519              	.L37:
 520              	.LBE54:
 521              	.LBE53:
  77:src/sem.cpp   ****         Scheduler::put(curr);
 522              		.loc 1 77 9 is_stmt 1
 523              	.LBB56:
 524              	.LBB57:
 525              		.loc 3 26 34
 526              		.loc 3 26 45 is_stmt 0
 527 027c 93072000 		li	a5,2
 528 0280 23A8F402 		sw	a5,48(s1)
 529              	.LVL48:
 530              	.LBE57:
 531              	.LBE56:
  78:src/sem.cpp   ****     }
 532              		.loc 1 78 9 is_stmt 1
  78:src/sem.cpp   ****     }
 533              		.loc 1 78 23 is_stmt 0
 534 0284 13850400 		mv	a0,s1
 535 0288 97000000 		call	_ZN9Scheduler3putEP3TCB@plt
 535      E7800000 
 536              	.LVL49:
 537              	.LBE52:
 538              	.LBE60:
  82:src/sem.cpp   **** }
 539              		.loc 1 82 12
 540 0290 13050000 		li	a0,0
 541              		.loc 1 83 1
 542 0294 83308101 		ld	ra,24(sp)
 543              		.cfi_remember_state
 544              		.cfi_restore 1
 545 0298 03340101 		ld	s0,16(sp)
 546              		.cfi_restore 8
 547              		.cfi_def_cfa 2, 32
 548 029c 83348100 		ld	s1,8(sp)
 549              		.cfi_restore 9
 550              	.LVL50:
 551 02a0 13010102 		addi	sp,sp,32
 552              		.cfi_def_cfa_offset 0
GAS LISTING /tmp/ccSa9znA.s 			page 15


 553 02a4 67800000 		jr	ra
 554              	.LVL51:
 555              	.L47:
 556              		.cfi_restore_state
 557              	.LBB61:
 558              	.LBB59:
 559              	.LBB58:
 560              	.LBB55:
  55:src/../h/../h/list.hpp **** 
 561              		.loc 2 55 22
 562 02a8 23B80700 		sd	zero,16(a5)
 563 02ac 6FF05FFC 		j	.L38
 564              	.LVL52:
 565              	.L41:
  51:src/../h/../h/list.hpp **** 
 566              		.loc 2 51 29
 567 02b0 93040500 		mv	s1,a0
 568 02b4 6FF09FFC 		j	.L37
 569              	.LVL53:
 570              	.L39:
 571              		.cfi_def_cfa_register 2
 572              		.cfi_restore 1
 573              		.cfi_restore 8
 574              		.cfi_restore 9
 575              	.LBE55:
 576              	.LBE58:
 577              	.LBE59:
 578              	.LBE61:
  72:src/sem.cpp   **** 
 579              		.loc 1 72 17
 580 02b8 1305F0FF 		li	a0,-1
 581              	.LVL54:
 582 02bc 67800000 		ret
 583              		.cfi_endproc
 584              	.LFE28:
 586              		.align	2
 587              		.globl	_ZN3Sem10__getValueEv
 589              	_ZN3Sem10__getValueEv:
 590              	.LFB29:
  84:src/sem.cpp   **** 
  85:src/sem.cpp   **** 
  86:src/sem.cpp   **** int
  87:src/sem.cpp   **** Sem::__getValue()
  88:src/sem.cpp   **** {
 591              		.loc 1 88 1 is_stmt 1
 592              		.cfi_startproc
 593              	.LVL55:
 594 02c0 130101FF 		addi	sp,sp,-16
 595              		.cfi_def_cfa_offset 16
 596 02c4 23348100 		sd	s0,8(sp)
 597              		.cfi_offset 8, -8
 598 02c8 13040101 		addi	s0,sp,16
 599              		.cfi_def_cfa 8, 0
  89:src/sem.cpp   ****     return this->value;
 600              		.loc 1 89 5
  90:src/sem.cpp   **** }...
 601              		.loc 1 90 1 is_stmt 0
GAS LISTING /tmp/ccSa9znA.s 			page 16


 602 02cc 03250500 		lw	a0,0(a0)
 603              	.LVL56:
 604 02d0 03348100 		ld	s0,8(sp)
 605              		.cfi_restore 8
 606              		.cfi_def_cfa 2, 16
 607 02d4 13010101 		addi	sp,sp,16
 608              		.cfi_def_cfa_offset 0
 609 02d8 67800000 		jr	ra
 610              		.cfi_endproc
 611              	.LFE29:
 613              	.Letext0:
 614              		.file 4 "src/../h/../h/../lib/hw.h"
 615              		.file 5 "src/../h/../h/scheduler.hpp"
 616              		.file 6 "src/../h/sem.hpp"
 3812              		.align	3
 3815              	DW.ref.__gxx_personality_v0:
 3816 0000 00000000 		.dword	__gxx_personality_v0
 3816      00000000 
 3817              		.ident	"GCC: (Ubuntu 9.4.0-1ubuntu1~20.04) 9.4.0"
 3818              		.section	.note.GNU-stack,"",@progbits
GAS LISTING /tmp/ccSa9znA.s 			page 17

