GAS LISTING /tmp/ccmkONUR.s 			page 1


   1              		.file	"syscall_c.cpp"
   2              		.option pic
   3              		.option norelax
   4              		.text
   5              	.Ltext0:
   6              		.section	.rodata.str1.8,"aMS",@progbits,1
   7              		.align	3
   8              	.LC0:
   9 0000 2D2D2D2D 		.string	"--------------------------------------------- CREATE THREAD RET: "
   9      2D2D2D2D 
   9      2D2D2D2D 
   9      2D2D2D2D 
   9      2D2D2D2D 
  10 0042 00000000 		.align	3
  10      0000
  11              	.LC1:
  12 0048 0A00     		.string	"\n"
  13              		.text
  14              		.align	2
  15              		.globl	_Z13thread_createPP3TCBPFvPvES2_
  17              	_Z13thread_createPP3TCBPFvPvES2_:
  18              	.LFB17:
  19              		.file 1 "src/syscall_c.cpp"
   1:src/syscall_c.cpp **** #include "../h/syscall_c.h"
   2:src/syscall_c.cpp **** #include "../h/print.hpp"
   3:src/syscall_c.cpp **** 
   4:src/syscall_c.cpp **** 
   5:src/syscall_c.cpp **** //void *mem_alloc(size_t size)
   6:src/syscall_c.cpp **** //{
   7:src/syscall_c.cpp **** //    uint64 a0 = 1;
   8:src/syscall_c.cpp **** //    size_t blocks = (size % MEM_BLOCK_SIZE > 0) ? (size / MEM_BLOCK_SIZE + 1) : (size / MEM_BLOCK
   9:src/syscall_c.cpp **** //    __asm__ volatile ("mv a1, %[a1]" : : [a1] "r"(blocks));
  10:src/syscall_c.cpp **** //    __asm__ volatile ("mv a0, %[a0]" : : [a0] "r"(a0));
  11:src/syscall_c.cpp **** //    __asm__ volatile ("ecall");
  12:src/syscall_c.cpp **** //
  13:src/syscall_c.cpp **** //    uint64 address = 0;
  14:src/syscall_c.cpp **** //    __asm__ volatile ("mv %[a0], a0" : [a0] "=r"(address));
  15:src/syscall_c.cpp **** //
  16:src/syscall_c.cpp **** //    return (uint64*)address;
  17:src/syscall_c.cpp **** //}
  18:src/syscall_c.cpp **** 
  19:src/syscall_c.cpp **** 
  20:src/syscall_c.cpp **** int thread_create(thread_t *handle, void(*start_routine)(void*), void *arg)
  21:src/syscall_c.cpp **** {
  20              		.loc 1 21 1
  21              		.cfi_startproc
  22              	.LVL0:
  23 0000 130101FE 		addi	sp,sp,-32
  24              		.cfi_def_cfa_offset 32
  25 0004 233C1100 		sd	ra,24(sp)
  26 0008 23388100 		sd	s0,16(sp)
  27 000c 23349100 		sd	s1,8(sp)
  28              		.cfi_offset 1, -8
  29              		.cfi_offset 8, -16
  30              		.cfi_offset 9, -24
  31 0010 13040102 		addi	s0,sp,32
  32              		.cfi_def_cfa 8, 0
GAS LISTING /tmp/ccmkONUR.s 			page 2


  22:src/syscall_c.cpp **** //    if (handle == 0)
  23:src/syscall_c.cpp **** //        return -1;
  24:src/syscall_c.cpp **** //    else if (!start_routine == 0)
  25:src/syscall_c.cpp **** //        return -2;
  26:src/syscall_c.cpp **** 
  27:src/syscall_c.cpp ****     uint64 number = 0x11;
  33              		.loc 1 27 5
  34              	.LVL1:
  28:src/syscall_c.cpp **** 
  29:src/syscall_c.cpp ****     __asm__ volatile("mv a3, %0" : : "r" (arg));
  35              		.loc 1 29 5
  36              		.loc 1 29 48 is_stmt 0
  37              	#APP
  38              	# 29 "src/syscall_c.cpp" 1
  30              	    __asm__ volatile("mv a2, %0" : : "r" (start_routine));
  39              		mv a3, a2
  40              	# 0 "" 2
  41              		.loc 1 30 5 is_stmt 1
  42              		.loc 1 30 58 is_stmt 0
  43              	# 30 "src/syscall_c.cpp" 1
  31              	    __asm__ volatile("mv a1, %0" : : "r" (handle));
  44              		mv a2, a1
  45              	# 0 "" 2
  46              		.loc 1 31 5 is_stmt 1
  47              		.loc 1 31 51 is_stmt 0
  48              	# 31 "src/syscall_c.cpp" 1
  32              	    __asm__ volatile("mv a0, %0" : : "r" (number));
  49              		mv a1, a0
  50              	# 0 "" 2
  51              		.loc 1 32 5 is_stmt 1
  52              		.loc 1 32 51 is_stmt 0
  53              	#NO_APP
  54 0020 93071001 		li	a5,17
  55              	#APP
  56              	# 32 "src/syscall_c.cpp" 1
  33              	
  34:src/syscall_c.cpp ****     __asm__ volatile("ecall");
  57              		mv a0, a5
  58              	# 0 "" 2
  59              		.loc 1 34 5 is_stmt 1
  60              		.loc 1 34 30 is_stmt 0
  61              	# 34 "src/syscall_c.cpp" 1
  35              	
  36:src/syscall_c.cpp ****     uint64 ret;
  62              		ecall
  63              	# 0 "" 2
  64              		.loc 1 36 5 is_stmt 1
  37:src/syscall_c.cpp ****     __asm__ volatile("mv %0, a0" : "=r" (ret));
  65              		.loc 1 37 5
  66              		.loc 1 37 47 is_stmt 0
  67              	# 37 "src/syscall_c.cpp" 1
  38              	
  68              		mv s1, a0
  69              	# 0 "" 2
  70              	.LVL2:
  39:src/syscall_c.cpp ****     printString("--------------------------------------------- CREATE THREAD RET: ");
  71              		.loc 1 39 5 is_stmt 1
GAS LISTING /tmp/ccmkONUR.s 			page 3


  72              		.loc 1 39 16 is_stmt 0
  73              	#NO_APP
  74 0030 17050000 		lla	a0,.LC0
  74      13050500 
  75              	.LVL3:
  76 0038 97000000 		call	_Z11printStringPKc@plt
  76      E7800000 
  77              	.LVL4:
  40:src/syscall_c.cpp ****     printInteger(ret);
  78              		.loc 1 40 5 is_stmt 1
  79              		.loc 1 40 17 is_stmt 0
  80 0040 13850400 		mv	a0,s1
  81 0044 97000000 		call	_Z12printIntegerm@plt
  81      E7800000 
  82              	.LVL5:
  41:src/syscall_c.cpp ****     printString("\n");
  83              		.loc 1 41 5 is_stmt 1
  84              		.loc 1 41 16 is_stmt 0
  85 004c 17050000 		lla	a0,.LC1
  85      13050500 
  86 0054 97000000 		call	_Z11printStringPKc@plt
  86      E7800000 
  87              	.LVL6:
  42:src/syscall_c.cpp **** 
  43:src/syscall_c.cpp ****     return (int)ret;
  88              		.loc 1 43 5 is_stmt 1
  44:src/syscall_c.cpp **** 
  45:src/syscall_c.cpp **** }
  89              		.loc 1 45 1 is_stmt 0
  90 005c 1B850400 		sext.w	a0,s1
  91 0060 83308101 		ld	ra,24(sp)
  92              		.cfi_restore 1
  93 0064 03340101 		ld	s0,16(sp)
  94              		.cfi_restore 8
  95              		.cfi_def_cfa 2, 32
  96 0068 83348100 		ld	s1,8(sp)
  97              		.cfi_restore 9
  98              	.LVL7:
  99 006c 13010102 		addi	sp,sp,32
 100              		.cfi_def_cfa_offset 0
 101 0070 67800000 		jr	ra
 102              		.cfi_endproc
 103              	.LFE17:
 105              		.align	2
 106              		.globl	_Z15thread_dispatchv
 108              	_Z15thread_dispatchv:
 109              	.LFB18:
  46:src/syscall_c.cpp **** 
  47:src/syscall_c.cpp **** void thread_dispatch()
  48:src/syscall_c.cpp **** {
 110              		.loc 1 48 1 is_stmt 1
 111              		.cfi_startproc
 112 0074 130101FF 		addi	sp,sp,-16
 113              		.cfi_def_cfa_offset 16
 114 0078 23348100 		sd	s0,8(sp)
 115              		.cfi_offset 8, -8
 116 007c 13040101 		addi	s0,sp,16
GAS LISTING /tmp/ccmkONUR.s 			page 4


 117              		.cfi_def_cfa 8, 0
  49:src/syscall_c.cpp ****     int number = 0x13;
 118              		.loc 1 49 5
 119              	.LVL8:
  50:src/syscall_c.cpp ****     __asm__ volatile("mv a0, %0" : : "r" (number));
 120              		.loc 1 50 5
 121              		.loc 1 50 51 is_stmt 0
 122 0080 93073001 		li	a5,19
 123              	#APP
 124              	# 50 "src/syscall_c.cpp" 1
  51              	
  52:src/syscall_c.cpp ****     __asm__ volatile("ecall");
 125              		mv a0, a5
 126              	# 0 "" 2
 127              		.loc 1 52 5 is_stmt 1
 128              		.loc 1 52 30 is_stmt 0
 129              	# 52 "src/syscall_c.cpp" 1
  53              	}...
 130              		ecall
 131              	# 0 "" 2
 132              		.loc 1 53 1
 133              	#NO_APP
 134 008c 03348100 		ld	s0,8(sp)
 135              		.cfi_restore 8
 136              		.cfi_def_cfa 2, 16
 137 0090 13010101 		addi	sp,sp,16
 138              		.cfi_def_cfa_offset 0
 139 0094 67800000 		jr	ra
 140              		.cfi_endproc
 141              	.LFE18:
 143              	.Letext0:
 144              		.file 2 "src/../h/../lib/hw.h"
 145              		.file 3 "src/../h/../h/tcb.hpp"
 146              		.file 4 "src/../h/syscall_c.h"
 147              		.file 5 "src/../h/print.hpp"
GAS LISTING /tmp/ccmkONUR.s 			page 5


DEFINED SYMBOLS
                            *ABS*:0000000000000000 syscall_c.cpp
     /tmp/ccmkONUR.s:17     .text:0000000000000000 _Z13thread_createPP3TCBPFvPvES2_
     /tmp/ccmkONUR.s:21     .text:0000000000000000 .L0 
     /tmp/ccmkONUR.s:23     .text:0000000000000000 .L0 
     /tmp/ccmkONUR.s:24     .text:0000000000000004 .L0 
     /tmp/ccmkONUR.s:28     .text:0000000000000010 .L0 
     /tmp/ccmkONUR.s:29     .text:0000000000000010 .L0 
     /tmp/ccmkONUR.s:30     .text:0000000000000010 .L0 
     /tmp/ccmkONUR.s:32     .text:0000000000000014 .L0 
     /tmp/ccmkONUR.s:35     .text:0000000000000014 .L0 
     /tmp/ccmkONUR.s:36     .text:0000000000000014 .L0 
   src/syscall_c.cpp:29     .text:0000000000000014 .L0 
     /tmp/ccmkONUR.s:42     .text:0000000000000018 .L0 
   src/syscall_c.cpp:30     .text:0000000000000018 .L0 
     /tmp/ccmkONUR.s:47     .text:000000000000001c .L0 
   src/syscall_c.cpp:31     .text:000000000000001c .L0 
     /tmp/ccmkONUR.s:52     .text:0000000000000020 .L0 
     /tmp/ccmkONUR.s:54     .text:0000000000000020 .L0 
     /tmp/ccmkONUR.s:60     .text:0000000000000028 .L0 
   src/syscall_c.cpp:34     .text:0000000000000028 .L0 
     /tmp/ccmkONUR.s:65     .text:000000000000002c .L0 
     /tmp/ccmkONUR.s:66     .text:000000000000002c .L0 
   src/syscall_c.cpp:37     .text:000000000000002c .L0 
     /tmp/ccmkONUR.s:72     .text:0000000000000030 .L0 
     /tmp/ccmkONUR.s:74     .text:0000000000000030 .L0 
     /tmp/ccmkONUR.s:79     .text:0000000000000040 .L0 
     /tmp/ccmkONUR.s:80     .text:0000000000000040 .L0 
     /tmp/ccmkONUR.s:84     .text:000000000000004c .L0 
     /tmp/ccmkONUR.s:85     .text:000000000000004c .L0 
     /tmp/ccmkONUR.s:89     .text:000000000000005c .L0 
     /tmp/ccmkONUR.s:90     .text:000000000000005c .L0 
     /tmp/ccmkONUR.s:92     .text:0000000000000064 .L0 
     /tmp/ccmkONUR.s:94     .text:0000000000000068 .L0 
     /tmp/ccmkONUR.s:95     .text:0000000000000068 .L0 
     /tmp/ccmkONUR.s:97     .text:000000000000006c .L0 
     /tmp/ccmkONUR.s:100    .text:0000000000000070 .L0 
     /tmp/ccmkONUR.s:102    .text:0000000000000074 .L0 
     /tmp/ccmkONUR.s:108    .text:0000000000000074 _Z15thread_dispatchv
     /tmp/ccmkONUR.s:111    .text:0000000000000074 .L0 
     /tmp/ccmkONUR.s:112    .text:0000000000000074 .L0 
     /tmp/ccmkONUR.s:113    .text:0000000000000078 .L0 
     /tmp/ccmkONUR.s:115    .text:000000000000007c .L0 
     /tmp/ccmkONUR.s:117    .text:0000000000000080 .L0 
     /tmp/ccmkONUR.s:120    .text:0000000000000080 .L0 
     /tmp/ccmkONUR.s:121    .text:0000000000000080 .L0 
     /tmp/ccmkONUR.s:122    .text:0000000000000080 .L0 
     /tmp/ccmkONUR.s:128    .text:0000000000000088 .L0 
   src/syscall_c.cpp:52     .text:0000000000000088 .L0 
     /tmp/ccmkONUR.s:134    .text:000000000000008c .L0 
     /tmp/ccmkONUR.s:135    .text:0000000000000090 .L0 
     /tmp/ccmkONUR.s:136    .text:0000000000000090 .L0 
     /tmp/ccmkONUR.s:138    .text:0000000000000094 .L0 
     /tmp/ccmkONUR.s:140    .text:0000000000000098 .L0 
     /tmp/ccmkONUR.s:148    .text:0000000000000098 .L0 
     /tmp/ccmkONUR.s:8      .rodata.str1.8:0000000000000000 .LC0
     /tmp/ccmkONUR.s:74     .text:0000000000000030 .L0 
GAS LISTING /tmp/ccmkONUR.s 			page 6


     /tmp/ccmkONUR.s:11     .rodata.str1.8:0000000000000048 .LC1
     /tmp/ccmkONUR.s:85     .text:000000000000004c .L0 
     /tmp/ccmkONUR.s:659    .debug_abbrev:0000000000000000 .Ldebug_abbrev0
     /tmp/ccmkONUR.s:1442   .debug_str:00000000000001f2 .LASF50
     /tmp/ccmkONUR.s:1500   .debug_str:000000000000045f .LASF51
     /tmp/ccmkONUR.s:1470   .debug_str:000000000000035d .LASF52
     /tmp/ccmkONUR.s:5      .text:0000000000000000 .Ltext0
     /tmp/ccmkONUR.s:143    .text:0000000000000098 .Letext0
     /tmp/ccmkONUR.s:1374   .debug_line:0000000000000000 .Ldebug_line0
     /tmp/ccmkONUR.s:1450   .debug_str:00000000000002dc .LASF0
     /tmp/ccmkONUR.s:1426   .debug_str:0000000000000189 .LASF1
     /tmp/ccmkONUR.s:1420   .debug_str:000000000000015e .LASF2
     /tmp/ccmkONUR.s:1392   .debug_str:0000000000000068 .LASF4
     /tmp/ccmkONUR.s:1424   .debug_str:0000000000000177 .LASF3
     /tmp/ccmkONUR.s:1380   .debug_str:0000000000000021 .LASF5
     /tmp/ccmkONUR.s:1378   .debug_str:000000000000000e .LASF6
     /tmp/ccmkONUR.s:1410   .debug_str:0000000000000107 .LASF7
     /tmp/ccmkONUR.s:1460   .debug_str:0000000000000319 .LASF8
     /tmp/ccmkONUR.s:1388   .debug_str:0000000000000042 .LASF9
     /tmp/ccmkONUR.s:1502   .debug_str:0000000000000471 .LASF10
     /tmp/ccmkONUR.s:1414   .debug_str:0000000000000125 .LASF11
     /tmp/ccmkONUR.s:1492   .debug_str:0000000000000429 .LASF12
     /tmp/ccmkONUR.s:1456   .debug_str:00000000000002fd .LASF13
     /tmp/ccmkONUR.s:1432   .debug_str:00000000000001be .LASF14
     /tmp/ccmkONUR.s:1400   .debug_str:0000000000000087 .LASF15
     /tmp/ccmkONUR.s:1464   .debug_str:0000000000000336 .LASF16
     /tmp/ccmkONUR.s:1494   .debug_str:0000000000000439 .LASF53
     /tmp/ccmkONUR.s:1384   .debug_str:0000000000000032 .LASF17
     /tmp/ccmkONUR.s:1458   .debug_str:000000000000030d .LASF19
     /tmp/ccmkONUR.s:1412   .debug_str:000000000000011a .LASF21
     /tmp/ccmkONUR.s:1482   .debug_str:00000000000003df .LASF23
     /tmp/ccmkONUR.s:1454   .debug_str:00000000000002f1 .LASF18
     /tmp/ccmkONUR.s:1416   .debug_str:0000000000000134 .LASF20
     /tmp/ccmkONUR.s:1446   .debug_str:00000000000002c9 .LASF22
     /tmp/ccmkONUR.s:1428   .debug_str:000000000000019c .LASF24
     /tmp/ccmkONUR.s:1462   .debug_str:0000000000000329 .LASF25
     /tmp/ccmkONUR.s:1402   .debug_str:000000000000009d .LASF26
     /tmp/ccmkONUR.s:1394   .debug_str:000000000000006f .LASF54
     /tmp/ccmkONUR.s:1448   .debug_str:00000000000002d6 .LASF55
     /tmp/ccmkONUR.s:1480   .debug_str:00000000000003cf .LASF56
     /tmp/ccmkONUR.s:1452   .debug_str:00000000000002e9 .LASF57
     /tmp/ccmkONUR.s:1390   .debug_str:0000000000000050 .LASF58
     /tmp/ccmkONUR.s:1438   .debug_str:00000000000001df .LASF27
     /tmp/ccmkONUR.s:1396   .debug_str:0000000000000074 .LASF28
     /tmp/ccmkONUR.s:1468   .debug_str:0000000000000355 .LASF29
     /tmp/ccmkONUR.s:1382   .debug_str:0000000000000028 .LASF30
     /tmp/ccmkONUR.s:1430   .debug_str:00000000000001b5 .LASF31
     /tmp/ccmkONUR.s:1476   .debug_str:000000000000039c .LASF32
     /tmp/ccmkONUR.s:1376   .debug_str:0000000000000000 .LASF33
     /tmp/ccmkONUR.s:1484   .debug_str:00000000000003f6 .LASF35
     /tmp/ccmkONUR.s:1436   .debug_str:00000000000001d1 .LASF59
     /tmp/ccmkONUR.s:1404   .debug_str:00000000000000c1 .LASF60
     /tmp/ccmkONUR.s:1408   .debug_str:00000000000000fe .LASF34
     /tmp/ccmkONUR.s:1444   .debug_str:00000000000002b6 .LASF36
     /tmp/ccmkONUR.s:1474   .debug_str:000000000000038b .LASF61
     /tmp/ccmkONUR.s:1386   .debug_str:0000000000000037 .LASF37
     /tmp/ccmkONUR.s:1422   .debug_str:000000000000016c .LASF38
GAS LISTING /tmp/ccmkONUR.s 			page 7


     /tmp/ccmkONUR.s:1490   .debug_str:0000000000000424 .LASF39
     /tmp/ccmkONUR.s:1466   .debug_str:000000000000034c .LASF40
     /tmp/ccmkONUR.s:1472   .debug_str:000000000000037b .LASF41
     /tmp/ccmkONUR.s:1406   .debug_str:00000000000000e9 .LASF42
     /tmp/ccmkONUR.s:109    .text:0000000000000074 .LFB18
     /tmp/ccmkONUR.s:141    .text:0000000000000098 .LFE18
     /tmp/ccmkONUR.s:1486   .debug_str:000000000000040f .LASF43
     /tmp/ccmkONUR.s:1488   .debug_str:0000000000000416 .LASF62
     /tmp/ccmkONUR.s:1478   .debug_str:00000000000003ae .LASF63
     /tmp/ccmkONUR.s:18     .text:0000000000000000 .LFB17
     /tmp/ccmkONUR.s:103    .text:0000000000000074 .LFE17
     /tmp/ccmkONUR.s:1434   .debug_str:00000000000001ca .LASF44
     /tmp/ccmkONUR.s:1312   .debug_loc:0000000000000000 .LLST0
     /tmp/ccmkONUR.s:1440   .debug_str:00000000000001e4 .LASF45
     /tmp/ccmkONUR.s:1326   .debug_loc:0000000000000039 .LLST1
     /tmp/ccmkONUR.s:1340   .debug_loc:0000000000000072 .LLST2
     /tmp/ccmkONUR.s:1354   .debug_loc:00000000000000ab .LLST3
     /tmp/ccmkONUR.s:77     .text:0000000000000040 .LVL4
     /tmp/ccmkONUR.s:82     .text:000000000000004c .LVL5
     /tmp/ccmkONUR.s:87     .text:000000000000005c .LVL6
     /tmp/ccmkONUR.s:1418   .debug_str:000000000000014b .LASF46
     /tmp/ccmkONUR.s:1498   .debug_str:0000000000000453 .LASF48
     /tmp/ccmkONUR.s:1496   .debug_str:0000000000000441 .LASF47
     /tmp/ccmkONUR.s:1398   .debug_str:000000000000007a .LASF49
     /tmp/ccmkONUR.s:22     .text:0000000000000000 .LVL0
     /tmp/ccmkONUR.s:75     .text:0000000000000038 .LVL3
     /tmp/ccmkONUR.s:70     .text:0000000000000030 .LVL2
     /tmp/ccmkONUR.s:98     .text:000000000000006c .LVL7
     /tmp/ccmkONUR.s:149    .debug_info:0000000000000000 .Ldebug_info0

UNDEFINED SYMBOLS
_Z11printStringPKc
_Z12printIntegerm
