GAS LISTING /tmp/ccNWBMNa.s 			page 1


   1              		.file	"syscall_c.cpp"
   2              		.option pic
   3              		.option norelax
   4              		.text
   5              	.Ltext0:
   6              		.align	2
   7              		.globl	_Z13thread_createPP3TCBPFvPvES2_
   9              	_Z13thread_createPP3TCBPFvPvES2_:
  10              	.LFB17:
  11              		.file 1 "src/syscall_c.cpp"
   1:src/syscall_c.cpp **** #include "../h/syscall_c.h"
   2:src/syscall_c.cpp **** #include "../h/print.hpp"
   3:src/syscall_c.cpp **** 
   4:src/syscall_c.cpp **** 
   5:src/syscall_c.cpp **** //void *mem_alloc(size_t size)
   6:src/syscall_c.cpp **** //{
   7:src/syscall_c.cpp **** //    uint64 a0 = 1;
   8:src/syscall_c.cpp **** //    size_t blocks = (size % MEM_BLOCK_SIZE > 0) ? (size / MEM_BLOCK_SIZE + 1) : (size / MEM_BLOCK
   9:src/syscall_c.cpp **** //    __asm__ volatile ("mv a1, %[a1]" : : [a1] "r"(blocks));
  10:src/syscall_c.cpp **** //    __asm__ volatile ("mv a0, %[a0]" : : [a0] "r"(a0));
  11:src/syscall_c.cpp **** //    __asm__ volatile ("ecall");
  12:src/syscall_c.cpp **** //
  13:src/syscall_c.cpp **** //    uint64 address = 0;
  14:src/syscall_c.cpp **** //    __asm__ volatile ("mv %[a0], a0" : [a0] "=r"(address));
  15:src/syscall_c.cpp **** //
  16:src/syscall_c.cpp **** //    return (uint64*)address;
  17:src/syscall_c.cpp **** //}
  18:src/syscall_c.cpp **** 
  19:src/syscall_c.cpp **** 
  20:src/syscall_c.cpp **** int thread_create(thread_t *handle, void(*start_routine)(void*), void *arg)
  21:src/syscall_c.cpp **** {
  12              		.loc 1 21 1
  13              		.cfi_startproc
  14              	.LVL0:
  15 0000 130101FF 		addi	sp,sp,-16
  16              		.cfi_def_cfa_offset 16
  17 0004 23348100 		sd	s0,8(sp)
  18              		.cfi_offset 8, -8
  19 0008 13040101 		addi	s0,sp,16
  20              		.cfi_def_cfa 8, 0
  22:src/syscall_c.cpp ****     uint64 number = 0x11;
  21              		.loc 1 22 5
  22              	.LVL1:
  23:src/syscall_c.cpp **** 
  24:src/syscall_c.cpp ****     __asm__ volatile("mv a3, %0" : : "r" (arg));
  23              		.loc 1 24 5
  24              		.loc 1 24 48 is_stmt 0
  25              	#APP
  26              	# 24 "src/syscall_c.cpp" 1
  25              	    __asm__ volatile("mv a2, %0" : : "r" (start_routine));
  27              		mv a3, a2
  28              	# 0 "" 2
  29              		.loc 1 25 5 is_stmt 1
  30              		.loc 1 25 58 is_stmt 0
  31              	# 25 "src/syscall_c.cpp" 1
  26              	    __asm__ volatile("mv a1, %0" : : "r" (handle));
  32              		mv a2, a1
GAS LISTING /tmp/ccNWBMNa.s 			page 2


  33              	# 0 "" 2
  34              		.loc 1 26 5 is_stmt 1
  35              		.loc 1 26 51 is_stmt 0
  36              	# 26 "src/syscall_c.cpp" 1
  27              	    __asm__ volatile("mv a0, %0" : : "r" (number));
  37              		mv a1, a0
  38              	# 0 "" 2
  39              		.loc 1 27 5 is_stmt 1
  40              		.loc 1 27 51 is_stmt 0
  41              	#NO_APP
  42 0018 93071001 		li	a5,17
  43              	#APP
  44              	# 27 "src/syscall_c.cpp" 1
  28              	
  29:src/syscall_c.cpp ****     __asm__ volatile("ecall");
  45              		mv a0, a5
  46              	# 0 "" 2
  47              		.loc 1 29 5 is_stmt 1
  48              		.loc 1 29 30 is_stmt 0
  49              	# 29 "src/syscall_c.cpp" 1
  30              	
  31:src/syscall_c.cpp ****     uint64 ret;
  50              		ecall
  51              	# 0 "" 2
  52              		.loc 1 31 5 is_stmt 1
  32:src/syscall_c.cpp ****     __asm__ volatile("mv %0, a0" : "=r" (ret));
  53              		.loc 1 32 5
  54              		.loc 1 32 47 is_stmt 0
  55              	# 32 "src/syscall_c.cpp" 1
  33              	
  56              		mv a0, a0
  57              	# 0 "" 2
  58              	.LVL2:
  34:src/syscall_c.cpp ****     return (int)ret;
  59              		.loc 1 34 5 is_stmt 1
  35:src/syscall_c.cpp **** 
  36:src/syscall_c.cpp **** }
  60              		.loc 1 36 1 is_stmt 0
  61              	#NO_APP
  62 0028 1B050500 		sext.w	a0,a0
  63              	.LVL3:
  64 002c 03348100 		ld	s0,8(sp)
  65              		.cfi_restore 8
  66              		.cfi_def_cfa 2, 16
  67 0030 13010101 		addi	sp,sp,16
  68              		.cfi_def_cfa_offset 0
  69 0034 67800000 		jr	ra
  70              		.cfi_endproc
  71              	.LFE17:
  73              		.align	2
  74              		.globl	_Z11thread_exitv
  76              	_Z11thread_exitv:
  77              	.LFB18:
  37:src/syscall_c.cpp **** 
  38:src/syscall_c.cpp **** int thread_exit()
  39:src/syscall_c.cpp **** {
  78              		.loc 1 39 1 is_stmt 1
GAS LISTING /tmp/ccNWBMNa.s 			page 3


  79              		.cfi_startproc
  80 0038 130101FF 		addi	sp,sp,-16
  81              		.cfi_def_cfa_offset 16
  82 003c 23348100 		sd	s0,8(sp)
  83              		.cfi_offset 8, -8
  84 0040 13040101 		addi	s0,sp,16
  85              		.cfi_def_cfa 8, 0
  40:src/syscall_c.cpp ****     int number = 0x12;
  86              		.loc 1 40 5
  87              	.LVL4:
  41:src/syscall_c.cpp ****     __asm__ volatile("mv a0, %0" : : "r" (number));
  88              		.loc 1 41 5
  89              		.loc 1 41 51 is_stmt 0
  90 0044 93072001 		li	a5,18
  91              	#APP
  92              	# 41 "src/syscall_c.cpp" 1
  42              	    __asm__ volatile("ecall");
  93              		mv a0, a5
  94              	# 0 "" 2
  95              		.loc 1 42 5 is_stmt 1
  96              		.loc 1 42 30 is_stmt 0
  97              	# 42 "src/syscall_c.cpp" 1
  43              	
  44:src/syscall_c.cpp ****     int ret;
  98              		ecall
  99              	# 0 "" 2
 100              		.loc 1 44 5 is_stmt 1
  45:src/syscall_c.cpp ****     __asm__ volatile("mv %0, a0" : "=r" (ret));
 101              		.loc 1 45 5
 102              		.loc 1 45 47 is_stmt 0
 103              	# 45 "src/syscall_c.cpp" 1
  46              	
 104              		mv a0, a0
 105              	# 0 "" 2
 106              	.LVL5:
  47:src/syscall_c.cpp ****     return ret;
 107              		.loc 1 47 5 is_stmt 1
  48:src/syscall_c.cpp **** }
 108              		.loc 1 48 1 is_stmt 0
 109              	#NO_APP
 110 0054 1B050500 		sext.w	a0,a0
 111 0058 03348100 		ld	s0,8(sp)
 112              		.cfi_restore 8
 113              		.cfi_def_cfa 2, 16
 114 005c 13010101 		addi	sp,sp,16
 115              		.cfi_def_cfa_offset 0
 116 0060 67800000 		jr	ra
 117              		.cfi_endproc
 118              	.LFE18:
 120              		.align	2
 121              		.globl	_Z15thread_dispatchv
 123              	_Z15thread_dispatchv:
 124              	.LFB19:
  49:src/syscall_c.cpp **** 
  50:src/syscall_c.cpp **** void thread_dispatch()
  51:src/syscall_c.cpp **** {
 125              		.loc 1 51 1 is_stmt 1
GAS LISTING /tmp/ccNWBMNa.s 			page 4


 126              		.cfi_startproc
 127 0064 130101FF 		addi	sp,sp,-16
 128              		.cfi_def_cfa_offset 16
 129 0068 23348100 		sd	s0,8(sp)
 130              		.cfi_offset 8, -8
 131 006c 13040101 		addi	s0,sp,16
 132              		.cfi_def_cfa 8, 0
  52:src/syscall_c.cpp ****     int number = 0x13;
 133              		.loc 1 52 5
 134              	.LVL6:
  53:src/syscall_c.cpp ****     __asm__ volatile("mv a0, %0" : : "r" (number));
 135              		.loc 1 53 5
 136              		.loc 1 53 51 is_stmt 0
 137 0070 93073001 		li	a5,19
 138              	#APP
 139              	# 53 "src/syscall_c.cpp" 1
  54              	
  55:src/syscall_c.cpp ****     __asm__ volatile("ecall");
 140              		mv a0, a5
 141              	# 0 "" 2
 142              		.loc 1 55 5 is_stmt 1
 143              		.loc 1 55 30 is_stmt 0
 144              	# 55 "src/syscall_c.cpp" 1
  56              	}
 145              		ecall
 146              	# 0 "" 2
 147              		.loc 1 56 1
 148              	#NO_APP
 149 007c 03348100 		ld	s0,8(sp)
 150              		.cfi_restore 8
 151              		.cfi_def_cfa 2, 16
 152 0080 13010101 		addi	sp,sp,16
 153              		.cfi_def_cfa_offset 0
 154 0084 67800000 		jr	ra
 155              		.cfi_endproc
 156              	.LFE19:
 158              		.align	2
 159              		.globl	_Z22thread_create_wo_startPP3TCBPFvPvES2_
 161              	_Z22thread_create_wo_startPP3TCBPFvPvES2_:
 162              	.LFB20:
  57:src/syscall_c.cpp **** 
  58:src/syscall_c.cpp **** 
  59:src/syscall_c.cpp **** 
  60:src/syscall_c.cpp **** int thread_create_wo_start(thread_t *handle, void(*start_routine)(void*), void *arg)
  61:src/syscall_c.cpp **** {
 163              		.loc 1 61 1 is_stmt 1
 164              		.cfi_startproc
 165              	.LVL7:
 166 0088 130101FF 		addi	sp,sp,-16
 167              		.cfi_def_cfa_offset 16
 168 008c 23348100 		sd	s0,8(sp)
 169              		.cfi_offset 8, -8
 170 0090 13040101 		addi	s0,sp,16
 171              		.cfi_def_cfa 8, 0
  62:src/syscall_c.cpp ****     uint64 number = 0x14;
 172              		.loc 1 62 5
 173              	.LVL8:
GAS LISTING /tmp/ccNWBMNa.s 			page 5


  63:src/syscall_c.cpp **** 
  64:src/syscall_c.cpp ****     __asm__ volatile("mv a6, %0" : : "r" (arg));
 174              		.loc 1 64 5
 175              		.loc 1 64 48 is_stmt 0
 176              	#APP
 177              	# 64 "src/syscall_c.cpp" 1
  65              	    __asm__ volatile("mv a5, %0" : : "r" (arg));
 178              		mv a6, a2
 179              	# 0 "" 2
 180              		.loc 1 65 5 is_stmt 1
 181              		.loc 1 65 48 is_stmt 0
 182              	# 65 "src/syscall_c.cpp" 1
  66              	    __asm__ volatile("mv a2, %0" : : "r" (start_routine));
 183              		mv a5, a2
 184              	# 0 "" 2
 185              		.loc 1 66 5 is_stmt 1
 186              		.loc 1 66 58 is_stmt 0
 187              	# 66 "src/syscall_c.cpp" 1
  67              	    __asm__ volatile("mv a1, %0" : : "r" (handle));
 188              		mv a2, a1
 189              	# 0 "" 2
 190              		.loc 1 67 5 is_stmt 1
 191              		.loc 1 67 51 is_stmt 0
 192              	# 67 "src/syscall_c.cpp" 1
  68              	    __asm__ volatile("mv a0, %0" : : "r" (number));
 193              		mv a1, a0
 194              	# 0 "" 2
 195              		.loc 1 68 5 is_stmt 1
 196              		.loc 1 68 51 is_stmt 0
 197              	#NO_APP
 198 00a4 93074001 		li	a5,20
 199              	#APP
 200              	# 68 "src/syscall_c.cpp" 1
  69              	
  70:src/syscall_c.cpp ****     __asm__ volatile("ecall");
 201              		mv a0, a5
 202              	# 0 "" 2
 203              		.loc 1 70 5 is_stmt 1
 204              		.loc 1 70 30 is_stmt 0
 205              	# 70 "src/syscall_c.cpp" 1
  71              	
  72:src/syscall_c.cpp ****     uint64 ret;
 206              		ecall
 207              	# 0 "" 2
 208              		.loc 1 72 5 is_stmt 1
  73:src/syscall_c.cpp ****     __asm__ volatile("mv %0, a0" : "=r" (ret));
 209              		.loc 1 73 5
 210              		.loc 1 73 47 is_stmt 0
 211              	# 73 "src/syscall_c.cpp" 1
  74              	
 212              		mv a0, a0
 213              	# 0 "" 2
 214              	.LVL9:
  75:src/syscall_c.cpp ****     return (int)ret;
 215              		.loc 1 75 5 is_stmt 1
  76:src/syscall_c.cpp **** }
 216              		.loc 1 76 1 is_stmt 0
GAS LISTING /tmp/ccNWBMNa.s 			page 6


 217              	#NO_APP
 218 00b4 1B050500 		sext.w	a0,a0
 219              	.LVL10:
 220 00b8 03348100 		ld	s0,8(sp)
 221              		.cfi_restore 8
 222              		.cfi_def_cfa 2, 16
 223 00bc 13010101 		addi	sp,sp,16
 224              		.cfi_def_cfa_offset 0
 225 00c0 67800000 		jr	ra
 226              		.cfi_endproc
 227              	.LFE20:
 229              		.align	2
 230              		.globl	_Z12thread_startP3TCB
 232              	_Z12thread_startP3TCB:
 233              	.LFB21:
  77:src/syscall_c.cpp **** 
  78:src/syscall_c.cpp **** 
  79:src/syscall_c.cpp **** int thread_start(thread_t handle)
  80:src/syscall_c.cpp **** {
 234              		.loc 1 80 1 is_stmt 1
 235              		.cfi_startproc
 236              	.LVL11:
 237 00c4 130101FF 		addi	sp,sp,-16
 238              		.cfi_def_cfa_offset 16
 239 00c8 23348100 		sd	s0,8(sp)
 240              		.cfi_offset 8, -8
 241 00cc 13040101 		addi	s0,sp,16
 242              		.cfi_def_cfa 8, 0
  81:src/syscall_c.cpp ****     int number = 0x15;
 243              		.loc 1 81 5
 244              	.LVL12:
  82:src/syscall_c.cpp ****     __asm__ volatile("mv a1, %0" : : "r" (handle));
 245              		.loc 1 82 5
 246              		.loc 1 82 51 is_stmt 0
 247              	#APP
 248              	# 82 "src/syscall_c.cpp" 1
  83              	    __asm__ volatile("mv a0, %0" : : "r" (number));
 249              		mv a1, a0
 250              	# 0 "" 2
 251              		.loc 1 83 5 is_stmt 1
 252              		.loc 1 83 51 is_stmt 0
 253              	#NO_APP
 254 00d4 93075001 		li	a5,21
 255              	#APP
 256              	# 83 "src/syscall_c.cpp" 1
  84              	
  85:src/syscall_c.cpp ****     __asm__ volatile("ecall");
 257              		mv a0, a5
 258              	# 0 "" 2
 259              		.loc 1 85 5 is_stmt 1
 260              		.loc 1 85 30 is_stmt 0
 261              	# 85 "src/syscall_c.cpp" 1
  86              	
  87:src/syscall_c.cpp ****     int ret;
 262              		ecall
 263              	# 0 "" 2
 264              		.loc 1 87 5 is_stmt 1
GAS LISTING /tmp/ccNWBMNa.s 			page 7


  88:src/syscall_c.cpp ****     __asm__ volatile("mv %0, a0" : "=r" (ret));
 265              		.loc 1 88 5
 266              		.loc 1 88 47 is_stmt 0
 267              	# 88 "src/syscall_c.cpp" 1
  89              	
 268              		mv a0, a0
 269              	# 0 "" 2
 270              	.LVL13:
  90:src/syscall_c.cpp ****     return ret;
 271              		.loc 1 90 5 is_stmt 1
  91:src/syscall_c.cpp **** }
 272              		.loc 1 91 1 is_stmt 0
 273              	#NO_APP
 274 00e4 1B050500 		sext.w	a0,a0
 275 00e8 03348100 		ld	s0,8(sp)
 276              		.cfi_restore 8
 277              		.cfi_def_cfa 2, 16
 278 00ec 13010101 		addi	sp,sp,16
 279              		.cfi_def_cfa_offset 0
 280 00f0 67800000 		jr	ra
 281              		.cfi_endproc
 282              	.LFE21:
 284              	.Letext0:
 285              		.file 2 "src/../h/../lib/hw.h"
 286              		.file 3 "src/../h/../h/tcb.hpp"
 287              		.file 4 "src/../h/syscall_c.h"
GAS LISTING /tmp/ccNWBMNa.s 			page 8


DEFINED SYMBOLS
                            *ABS*:0000000000000000 syscall_c.cpp
     /tmp/ccNWBMNa.s:9      .text:0000000000000000 _Z13thread_createPP3TCBPFvPvES2_
     /tmp/ccNWBMNa.s:13     .text:0000000000000000 .L0 
     /tmp/ccNWBMNa.s:15     .text:0000000000000000 .L0 
     /tmp/ccNWBMNa.s:16     .text:0000000000000004 .L0 
     /tmp/ccNWBMNa.s:18     .text:0000000000000008 .L0 
     /tmp/ccNWBMNa.s:20     .text:000000000000000c .L0 
     /tmp/ccNWBMNa.s:23     .text:000000000000000c .L0 
     /tmp/ccNWBMNa.s:24     .text:000000000000000c .L0 
   src/syscall_c.cpp:24     .text:000000000000000c .L0 
     /tmp/ccNWBMNa.s:30     .text:0000000000000010 .L0 
   src/syscall_c.cpp:25     .text:0000000000000010 .L0 
     /tmp/ccNWBMNa.s:35     .text:0000000000000014 .L0 
   src/syscall_c.cpp:26     .text:0000000000000014 .L0 
     /tmp/ccNWBMNa.s:40     .text:0000000000000018 .L0 
     /tmp/ccNWBMNa.s:42     .text:0000000000000018 .L0 
     /tmp/ccNWBMNa.s:48     .text:0000000000000020 .L0 
   src/syscall_c.cpp:29     .text:0000000000000020 .L0 
     /tmp/ccNWBMNa.s:53     .text:0000000000000024 .L0 
     /tmp/ccNWBMNa.s:54     .text:0000000000000024 .L0 
   src/syscall_c.cpp:32     .text:0000000000000024 .L0 
     /tmp/ccNWBMNa.s:60     .text:0000000000000028 .L0 
     /tmp/ccNWBMNa.s:62     .text:0000000000000028 .L0 
     /tmp/ccNWBMNa.s:65     .text:0000000000000030 .L0 
     /tmp/ccNWBMNa.s:66     .text:0000000000000030 .L0 
     /tmp/ccNWBMNa.s:68     .text:0000000000000034 .L0 
     /tmp/ccNWBMNa.s:70     .text:0000000000000038 .L0 
     /tmp/ccNWBMNa.s:76     .text:0000000000000038 _Z11thread_exitv
     /tmp/ccNWBMNa.s:79     .text:0000000000000038 .L0 
     /tmp/ccNWBMNa.s:80     .text:0000000000000038 .L0 
     /tmp/ccNWBMNa.s:81     .text:000000000000003c .L0 
     /tmp/ccNWBMNa.s:83     .text:0000000000000040 .L0 
     /tmp/ccNWBMNa.s:85     .text:0000000000000044 .L0 
     /tmp/ccNWBMNa.s:88     .text:0000000000000044 .L0 
     /tmp/ccNWBMNa.s:89     .text:0000000000000044 .L0 
     /tmp/ccNWBMNa.s:90     .text:0000000000000044 .L0 
     /tmp/ccNWBMNa.s:96     .text:000000000000004c .L0 
   src/syscall_c.cpp:42     .text:000000000000004c .L0 
     /tmp/ccNWBMNa.s:101    .text:0000000000000050 .L0 
     /tmp/ccNWBMNa.s:102    .text:0000000000000050 .L0 
   src/syscall_c.cpp:45     .text:0000000000000050 .L0 
     /tmp/ccNWBMNa.s:108    .text:0000000000000054 .L0 
     /tmp/ccNWBMNa.s:110    .text:0000000000000054 .L0 
     /tmp/ccNWBMNa.s:112    .text:000000000000005c .L0 
     /tmp/ccNWBMNa.s:113    .text:000000000000005c .L0 
     /tmp/ccNWBMNa.s:115    .text:0000000000000060 .L0 
     /tmp/ccNWBMNa.s:117    .text:0000000000000064 .L0 
     /tmp/ccNWBMNa.s:123    .text:0000000000000064 _Z15thread_dispatchv
     /tmp/ccNWBMNa.s:126    .text:0000000000000064 .L0 
     /tmp/ccNWBMNa.s:127    .text:0000000000000064 .L0 
     /tmp/ccNWBMNa.s:128    .text:0000000000000068 .L0 
     /tmp/ccNWBMNa.s:130    .text:000000000000006c .L0 
     /tmp/ccNWBMNa.s:132    .text:0000000000000070 .L0 
     /tmp/ccNWBMNa.s:135    .text:0000000000000070 .L0 
     /tmp/ccNWBMNa.s:136    .text:0000000000000070 .L0 
     /tmp/ccNWBMNa.s:137    .text:0000000000000070 .L0 
GAS LISTING /tmp/ccNWBMNa.s 			page 9


     /tmp/ccNWBMNa.s:143    .text:0000000000000078 .L0 
   src/syscall_c.cpp:55     .text:0000000000000078 .L0 
     /tmp/ccNWBMNa.s:149    .text:000000000000007c .L0 
     /tmp/ccNWBMNa.s:150    .text:0000000000000080 .L0 
     /tmp/ccNWBMNa.s:151    .text:0000000000000080 .L0 
     /tmp/ccNWBMNa.s:153    .text:0000000000000084 .L0 
     /tmp/ccNWBMNa.s:155    .text:0000000000000088 .L0 
     /tmp/ccNWBMNa.s:161    .text:0000000000000088 _Z22thread_create_wo_startPP3TCBPFvPvES2_
     /tmp/ccNWBMNa.s:164    .text:0000000000000088 .L0 
     /tmp/ccNWBMNa.s:166    .text:0000000000000088 .L0 
     /tmp/ccNWBMNa.s:167    .text:000000000000008c .L0 
     /tmp/ccNWBMNa.s:169    .text:0000000000000090 .L0 
     /tmp/ccNWBMNa.s:171    .text:0000000000000094 .L0 
     /tmp/ccNWBMNa.s:174    .text:0000000000000094 .L0 
     /tmp/ccNWBMNa.s:175    .text:0000000000000094 .L0 
   src/syscall_c.cpp:64     .text:0000000000000094 .L0 
     /tmp/ccNWBMNa.s:181    .text:0000000000000098 .L0 
   src/syscall_c.cpp:65     .text:0000000000000098 .L0 
     /tmp/ccNWBMNa.s:186    .text:000000000000009c .L0 
   src/syscall_c.cpp:66     .text:000000000000009c .L0 
     /tmp/ccNWBMNa.s:191    .text:00000000000000a0 .L0 
   src/syscall_c.cpp:67     .text:00000000000000a0 .L0 
     /tmp/ccNWBMNa.s:196    .text:00000000000000a4 .L0 
     /tmp/ccNWBMNa.s:198    .text:00000000000000a4 .L0 
     /tmp/ccNWBMNa.s:204    .text:00000000000000ac .L0 
   src/syscall_c.cpp:70     .text:00000000000000ac .L0 
     /tmp/ccNWBMNa.s:209    .text:00000000000000b0 .L0 
     /tmp/ccNWBMNa.s:210    .text:00000000000000b0 .L0 
   src/syscall_c.cpp:73     .text:00000000000000b0 .L0 
     /tmp/ccNWBMNa.s:216    .text:00000000000000b4 .L0 
     /tmp/ccNWBMNa.s:218    .text:00000000000000b4 .L0 
     /tmp/ccNWBMNa.s:221    .text:00000000000000bc .L0 
     /tmp/ccNWBMNa.s:222    .text:00000000000000bc .L0 
     /tmp/ccNWBMNa.s:224    .text:00000000000000c0 .L0 
     /tmp/ccNWBMNa.s:226    .text:00000000000000c4 .L0 
     /tmp/ccNWBMNa.s:232    .text:00000000000000c4 _Z12thread_startP3TCB
     /tmp/ccNWBMNa.s:235    .text:00000000000000c4 .L0 
     /tmp/ccNWBMNa.s:237    .text:00000000000000c4 .L0 
     /tmp/ccNWBMNa.s:238    .text:00000000000000c8 .L0 
     /tmp/ccNWBMNa.s:240    .text:00000000000000cc .L0 
     /tmp/ccNWBMNa.s:242    .text:00000000000000d0 .L0 
     /tmp/ccNWBMNa.s:245    .text:00000000000000d0 .L0 
     /tmp/ccNWBMNa.s:246    .text:00000000000000d0 .L0 
   src/syscall_c.cpp:82     .text:00000000000000d0 .L0 
     /tmp/ccNWBMNa.s:252    .text:00000000000000d4 .L0 
     /tmp/ccNWBMNa.s:254    .text:00000000000000d4 .L0 
     /tmp/ccNWBMNa.s:260    .text:00000000000000dc .L0 
   src/syscall_c.cpp:85     .text:00000000000000dc .L0 
     /tmp/ccNWBMNa.s:265    .text:00000000000000e0 .L0 
     /tmp/ccNWBMNa.s:266    .text:00000000000000e0 .L0 
   src/syscall_c.cpp:88     .text:00000000000000e0 .L0 
     /tmp/ccNWBMNa.s:272    .text:00000000000000e4 .L0 
     /tmp/ccNWBMNa.s:274    .text:00000000000000e4 .L0 
     /tmp/ccNWBMNa.s:276    .text:00000000000000ec .L0 
     /tmp/ccNWBMNa.s:277    .text:00000000000000ec .L0 
     /tmp/ccNWBMNa.s:279    .text:00000000000000f0 .L0 
     /tmp/ccNWBMNa.s:281    .text:00000000000000f4 .L0 
GAS LISTING /tmp/ccNWBMNa.s 			page 10


     /tmp/ccNWBMNa.s:288    .text:00000000000000f4 .L0 
     /tmp/ccNWBMNa.s:880    .debug_abbrev:0000000000000000 .Ldebug_abbrev0
     /tmp/ccNWBMNa.s:1706   .debug_str:00000000000001fc .LASF54
     /tmp/ccNWBMNa.s:1772   .debug_str:00000000000004d2 .LASF55
     /tmp/ccNWBMNa.s:1736   .debug_str:0000000000000379 .LASF56
     /tmp/ccNWBMNa.s:5      .text:0000000000000000 .Ltext0
     /tmp/ccNWBMNa.s:284    .text:00000000000000f4 .Letext0
     /tmp/ccNWBMNa.s:1638   .debug_line:0000000000000000 .Ldebug_line0
     /tmp/ccNWBMNa.s:1714   .debug_str:00000000000002eb .LASF0
     /tmp/ccNWBMNa.s:1690   .debug_str:0000000000000193 .LASF1
     /tmp/ccNWBMNa.s:1684   .debug_str:0000000000000168 .LASF2
     /tmp/ccNWBMNa.s:1658   .debug_str:0000000000000079 .LASF4
     /tmp/ccNWBMNa.s:1688   .debug_str:0000000000000181 .LASF3
     /tmp/ccNWBMNa.s:1644   .debug_str:0000000000000021 .LASF5
     /tmp/ccNWBMNa.s:1642   .debug_str:000000000000000e .LASF6
     /tmp/ccNWBMNa.s:1676   .debug_str:0000000000000124 .LASF7
     /tmp/ccNWBMNa.s:1724   .debug_str:0000000000000328 .LASF8
     /tmp/ccNWBMNa.s:1654   .debug_str:0000000000000053 .LASF9
     /tmp/ccNWBMNa.s:1774   .debug_str:00000000000004e4 .LASF10
     /tmp/ccNWBMNa.s:1680   .debug_str:0000000000000142 .LASF11
     /tmp/ccNWBMNa.s:1764   .debug_str:0000000000000498 .LASF12
     /tmp/ccNWBMNa.s:1720   .debug_str:000000000000030c .LASF13
     /tmp/ccNWBMNa.s:1696   .debug_str:00000000000001c8 .LASF14
     /tmp/ccNWBMNa.s:1664   .debug_str:000000000000008b .LASF15
     /tmp/ccNWBMNa.s:1728   .debug_str:0000000000000345 .LASF16
     /tmp/ccNWBMNa.s:1768   .debug_str:00000000000004b4 .LASF57
     /tmp/ccNWBMNa.s:1650   .debug_str:0000000000000043 .LASF17
     /tmp/ccNWBMNa.s:1722   .debug_str:000000000000031c .LASF19
     /tmp/ccNWBMNa.s:1678   .debug_str:0000000000000137 .LASF21
     /tmp/ccNWBMNa.s:1748   .debug_str:0000000000000415 .LASF23
     /tmp/ccNWBMNa.s:1718   .debug_str:0000000000000300 .LASF18
     /tmp/ccNWBMNa.s:1682   .debug_str:0000000000000151 .LASF20
     /tmp/ccNWBMNa.s:1710   .debug_str:00000000000002d3 .LASF22
     /tmp/ccNWBMNa.s:1692   .debug_str:00000000000001a6 .LASF24
     /tmp/ccNWBMNa.s:1726   .debug_str:0000000000000338 .LASF25
     /tmp/ccNWBMNa.s:1666   .debug_str:00000000000000a1 .LASF26
     /tmp/ccNWBMNa.s:1660   .debug_str:0000000000000080 .LASF58
     /tmp/ccNWBMNa.s:1716   .debug_str:00000000000002f8 .LASF59
     /tmp/ccNWBMNa.s:1656   .debug_str:0000000000000061 .LASF60
     /tmp/ccNWBMNa.s:1702   .debug_str:00000000000001e9 .LASF27
     /tmp/ccNWBMNa.s:1662   .debug_str:0000000000000085 .LASF28
     /tmp/ccNWBMNa.s:1732   .debug_str:0000000000000364 .LASF29
     /tmp/ccNWBMNa.s:1646   .debug_str:0000000000000028 .LASF30
     /tmp/ccNWBMNa.s:1694   .debug_str:00000000000001bf .LASF31
     /tmp/ccNWBMNa.s:1742   .debug_str:00000000000003d2 .LASF32
     /tmp/ccNWBMNa.s:1640   .debug_str:0000000000000000 .LASF33
     /tmp/ccNWBMNa.s:1750   .debug_str:000000000000042c .LASF35
     /tmp/ccNWBMNa.s:1700   .debug_str:00000000000001db .LASF61
     /tmp/ccNWBMNa.s:1668   .debug_str:00000000000000c5 .LASF62
     /tmp/ccNWBMNa.s:1672   .debug_str:0000000000000102 .LASF34
     /tmp/ccNWBMNa.s:1708   .debug_str:00000000000002c0 .LASF36
     /tmp/ccNWBMNa.s:1712   .debug_str:00000000000002e0 .LASF63
     /tmp/ccNWBMNa.s:1770   .debug_str:00000000000004bc .LASF64
     /tmp/ccNWBMNa.s:1756   .debug_str:0000000000000462 .LASF65
     /tmp/ccNWBMNa.s:1674   .debug_str:000000000000010b .LASF66
     /tmp/ccNWBMNa.s:1740   .debug_str:00000000000003c1 .LASF67
     /tmp/ccNWBMNa.s:1652   .debug_str:0000000000000048 .LASF37
GAS LISTING /tmp/ccNWBMNa.s 			page 11


     /tmp/ccNWBMNa.s:1686   .debug_str:0000000000000176 .LASF38
     /tmp/ccNWBMNa.s:1762   .debug_str:0000000000000493 .LASF39
     /tmp/ccNWBMNa.s:1730   .debug_str:000000000000035b .LASF40
     /tmp/ccNWBMNa.s:1734   .debug_str:000000000000036c .LASF42
     /tmp/ccNWBMNa.s:1752   .debug_str:0000000000000445 .LASF44
     /tmp/ccNWBMNa.s:233    .text:00000000000000c4 .LFB21
     /tmp/ccNWBMNa.s:282    .text:00000000000000f4 .LFE21
     /tmp/ccNWBMNa.s:1698   .debug_str:00000000000001d4 .LASF46
     /tmp/ccNWBMNa.s:1569   .debug_loc:0000000000000000 .LLST4
     /tmp/ccNWBMNa.s:1754   .debug_str:000000000000045b .LASF41
     /tmp/ccNWBMNa.s:1760   .debug_str:000000000000047c .LASF43
     /tmp/ccNWBMNa.s:1738   .debug_str:0000000000000397 .LASF45
     /tmp/ccNWBMNa.s:162    .text:0000000000000088 .LFB20
     /tmp/ccNWBMNa.s:227    .text:00000000000000c4 .LFE20
     /tmp/ccNWBMNa.s:1583   .debug_loc:0000000000000039 .LLST2
     /tmp/ccNWBMNa.s:1704   .debug_str:00000000000001ee .LASF47
     /tmp/ccNWBMNa.s:1597   .debug_loc:0000000000000072 .LLST3
     /tmp/ccNWBMNa.s:1744   .debug_str:00000000000003e4 .LASF48
     /tmp/ccNWBMNa.s:1670   .debug_str:00000000000000ed .LASF49
     /tmp/ccNWBMNa.s:124    .text:0000000000000064 .LFB19
     /tmp/ccNWBMNa.s:156    .text:0000000000000088 .LFE19
     /tmp/ccNWBMNa.s:1766   .debug_str:00000000000004a8 .LASF50
     /tmp/ccNWBMNa.s:1648   .debug_str:0000000000000032 .LASF51
     /tmp/ccNWBMNa.s:77     .text:0000000000000038 .LFB18
     /tmp/ccNWBMNa.s:118    .text:0000000000000064 .LFE18
     /tmp/ccNWBMNa.s:1758   .debug_str:000000000000046e .LASF52
     /tmp/ccNWBMNa.s:1746   .debug_str:00000000000003f4 .LASF53
     /tmp/ccNWBMNa.s:10     .text:0000000000000000 .LFB17
     /tmp/ccNWBMNa.s:71     .text:0000000000000038 .LFE17
     /tmp/ccNWBMNa.s:1604   .debug_loc:0000000000000095 .LLST0
     /tmp/ccNWBMNa.s:1618   .debug_loc:00000000000000ce .LLST1
     /tmp/ccNWBMNa.s:236    .text:00000000000000c4 .LVL11
     /tmp/ccNWBMNa.s:270    .text:00000000000000e4 .LVL13
     /tmp/ccNWBMNa.s:165    .text:0000000000000088 .LVL7
     /tmp/ccNWBMNa.s:214    .text:00000000000000b4 .LVL9
     /tmp/ccNWBMNa.s:219    .text:00000000000000b8 .LVL10
     /tmp/ccNWBMNa.s:14     .text:0000000000000000 .LVL0
     /tmp/ccNWBMNa.s:58     .text:0000000000000028 .LVL2
     /tmp/ccNWBMNa.s:63     .text:000000000000002c .LVL3
     /tmp/ccNWBMNa.s:289    .debug_info:0000000000000000 .Ldebug_info0

NO UNDEFINED SYMBOLS
