GAS LISTING /tmp/ccmVZyAk.s 			page 1


   1              		.file	"syscall_c.cpp"
   2              		.option pic
   3              		.option norelax
   4              		.text
   5              	.Ltext0:
   6              		.align	2
   7              		.globl	_Z9mem_allocm
   9              	_Z9mem_allocm:
  10              	.LFB19:
  11              		.file 1 "src/syscall_c.cpp"
   1:src/syscall_c.cpp **** #include "../h/syscall_c.h"
   2:src/syscall_c.cpp **** #include "../lib/console.h"
   3:src/syscall_c.cpp **** 
   4:src/syscall_c.cpp **** 
   5:src/syscall_c.cpp **** void*
   6:src/syscall_c.cpp **** mem_alloc(size_t size)
   7:src/syscall_c.cpp **** {
  12              		.loc 1 7 1
  13              		.cfi_startproc
  14              	.LVL0:
  15 0000 130101FF 		addi	sp,sp,-16
  16              		.cfi_def_cfa_offset 16
  17 0004 23348100 		sd	s0,8(sp)
  18              		.cfi_offset 8, -8
  19 0008 13040101 		addi	s0,sp,16
  20              		.cfi_def_cfa 8, 0
   8:src/syscall_c.cpp ****     uint64 number = 0x01;
  21              		.loc 1 8 5
  22              	.LVL1:
   9:src/syscall_c.cpp ****     size_t bytes = size;
  23              		.loc 1 9 5
  10:src/syscall_c.cpp **** 
  11:src/syscall_c.cpp ****     __asm__ volatile("mv a1, %0" : : "r" (bytes));
  24              		.loc 1 11 5
  25              		.loc 1 11 50 is_stmt 0
  26              	#APP
  27              	# 11 "src/syscall_c.cpp" 1
  12              	    __asm__ volatile("mv a0, %0" : : "r" (number));
  28              		mv a1, a0
  29              	# 0 "" 2
  30              		.loc 1 12 5 is_stmt 1
  31              		.loc 1 12 51 is_stmt 0
  32              	#NO_APP
  33 0010 93071000 		li	a5,1
  34              	#APP
  35              	# 12 "src/syscall_c.cpp" 1
  13              	    __asm__ volatile ("ecall");
  36              		mv a0, a5
  37              	# 0 "" 2
  38              		.loc 1 13 5 is_stmt 1
  39              		.loc 1 13 31 is_stmt 0
  40              	# 13 "src/syscall_c.cpp" 1
  14              	
  15:src/syscall_c.cpp ****     void* allocated_address;
  41              		ecall
  42              	# 0 "" 2
  43              		.loc 1 15 5 is_stmt 1
GAS LISTING /tmp/ccmVZyAk.s 			page 2


  16:src/syscall_c.cpp ****     __asm__ volatile("mv %0, a0" : "=r" (allocated_address));
  44              		.loc 1 16 5
  45              		.loc 1 16 61 is_stmt 0
  46              	# 16 "src/syscall_c.cpp" 1
  17              	
  47              		mv a0, a0
  48              	# 0 "" 2
  49              	.LVL2:
  18:src/syscall_c.cpp ****     return allocated_address;
  50              		.loc 1 18 5 is_stmt 1
  19:src/syscall_c.cpp **** }
  51              		.loc 1 19 1 is_stmt 0
  52              	#NO_APP
  53 0020 03348100 		ld	s0,8(sp)
  54              		.cfi_restore 8
  55              		.cfi_def_cfa 2, 16
  56 0024 13010101 		addi	sp,sp,16
  57              		.cfi_def_cfa_offset 0
  58 0028 67800000 		jr	ra
  59              		.cfi_endproc
  60              	.LFE19:
  62              		.align	2
  63              		.globl	_Z8mem_freePv
  65              	_Z8mem_freePv:
  66              	.LFB20:
  20:src/syscall_c.cpp **** 
  21:src/syscall_c.cpp **** 
  22:src/syscall_c.cpp **** int
  23:src/syscall_c.cpp **** mem_free(void* allocated_address)
  24:src/syscall_c.cpp **** {
  67              		.loc 1 24 1 is_stmt 1
  68              		.cfi_startproc
  69              	.LVL3:
  70 002c 130101FF 		addi	sp,sp,-16
  71              		.cfi_def_cfa_offset 16
  72 0030 23348100 		sd	s0,8(sp)
  73              		.cfi_offset 8, -8
  74 0034 13040101 		addi	s0,sp,16
  75              		.cfi_def_cfa 8, 0
  25:src/syscall_c.cpp ****     uint64 number = 0x02;
  76              		.loc 1 25 5
  77              	.LVL4:
  26:src/syscall_c.cpp ****     __asm__ volatile("mv a1, %0" : : "r" (allocated_address));
  78              		.loc 1 26 5
  79              		.loc 1 26 62 is_stmt 0
  80              	#APP
  81              	# 26 "src/syscall_c.cpp" 1
  27              	    __asm__ volatile("mv a0, %0" : : "r" (number));
  82              		mv a1, a0
  83              	# 0 "" 2
  84              		.loc 1 27 5 is_stmt 1
  85              		.loc 1 27 51 is_stmt 0
  86              	#NO_APP
  87 003c 93072000 		li	a5,2
  88              	#APP
  89              	# 27 "src/syscall_c.cpp" 1
  28              	    __asm__ volatile ("ecall");
GAS LISTING /tmp/ccmVZyAk.s 			page 3


  90              		mv a0, a5
  91              	# 0 "" 2
  92              		.loc 1 28 5 is_stmt 1
  93              		.loc 1 28 31 is_stmt 0
  94              	# 28 "src/syscall_c.cpp" 1
  29              	
  30:src/syscall_c.cpp ****     uint64 ret;
  95              		ecall
  96              	# 0 "" 2
  97              		.loc 1 30 5 is_stmt 1
  31:src/syscall_c.cpp ****     __asm__ volatile("mv %0, a0" : "=r" (ret));
  98              		.loc 1 31 5
  99              		.loc 1 31 47 is_stmt 0
 100              	# 31 "src/syscall_c.cpp" 1
  32              	
 101              		mv a0, a0
 102              	# 0 "" 2
 103              	.LVL5:
  33:src/syscall_c.cpp ****     return ret;
 104              		.loc 1 33 5 is_stmt 1
  34:src/syscall_c.cpp **** }
 105              		.loc 1 34 1 is_stmt 0
 106              	#NO_APP
 107 004c 1B050500 		sext.w	a0,a0
 108              	.LVL6:
 109 0050 03348100 		ld	s0,8(sp)
 110              		.cfi_restore 8
 111              		.cfi_def_cfa 2, 16
 112 0054 13010101 		addi	sp,sp,16
 113              		.cfi_def_cfa_offset 0
 114 0058 67800000 		jr	ra
 115              		.cfi_endproc
 116              	.LFE20:
 118              		.align	2
 119              		.globl	_Z13thread_createPP3TCBPFvPvES2_
 121              	_Z13thread_createPP3TCBPFvPvES2_:
 122              	.LFB21:
  35:src/syscall_c.cpp **** 
  36:src/syscall_c.cpp **** 
  37:src/syscall_c.cpp **** int
  38:src/syscall_c.cpp **** thread_create(thread_t *handle, void(*start_routine)(void*), void *arg)
  39:src/syscall_c.cpp **** {
 123              		.loc 1 39 1 is_stmt 1
 124              		.cfi_startproc
 125              	.LVL7:
 126 005c 130101FF 		addi	sp,sp,-16
 127              		.cfi_def_cfa_offset 16
 128 0060 23348100 		sd	s0,8(sp)
 129              		.cfi_offset 8, -8
 130 0064 13040101 		addi	s0,sp,16
 131              		.cfi_def_cfa 8, 0
  40:src/syscall_c.cpp ****     uint64 number = 0x11;
 132              		.loc 1 40 5
 133              	.LVL8:
  41:src/syscall_c.cpp **** 
  42:src/syscall_c.cpp ****     __asm__ volatile("mv a6, %0" : : "r" (arg));
 134              		.loc 1 42 5
GAS LISTING /tmp/ccmVZyAk.s 			page 4


 135              		.loc 1 42 48 is_stmt 0
 136              	#APP
 137              	# 42 "src/syscall_c.cpp" 1
  43              	    __asm__ volatile("mv a2, %0" : : "r" (start_routine));
 138              		mv a6, a2
 139              	# 0 "" 2
 140              		.loc 1 43 5 is_stmt 1
 141              		.loc 1 43 58 is_stmt 0
 142              	# 43 "src/syscall_c.cpp" 1
  44              	    __asm__ volatile("mv a1, %0" : : "r" (handle));
 143              		mv a2, a1
 144              	# 0 "" 2
 145              		.loc 1 44 5 is_stmt 1
 146              		.loc 1 44 51 is_stmt 0
 147              	# 44 "src/syscall_c.cpp" 1
  45              	    __asm__ volatile("mv a0, %0" : : "r" (number));
 148              		mv a1, a0
 149              	# 0 "" 2
 150              		.loc 1 45 5 is_stmt 1
 151              		.loc 1 45 51 is_stmt 0
 152              	#NO_APP
 153 0074 93071001 		li	a5,17
 154              	#APP
 155              	# 45 "src/syscall_c.cpp" 1
  46              	
  47:src/syscall_c.cpp ****     __asm__ volatile("ecall");
 156              		mv a0, a5
 157              	# 0 "" 2
 158              		.loc 1 47 5 is_stmt 1
 159              		.loc 1 47 30 is_stmt 0
 160              	# 47 "src/syscall_c.cpp" 1
  48              	
  49:src/syscall_c.cpp ****     uint64 ret;
 161              		ecall
 162              	# 0 "" 2
 163              		.loc 1 49 5 is_stmt 1
  50:src/syscall_c.cpp ****     __asm__ volatile("mv %0, a0" : "=r" (ret));
 164              		.loc 1 50 5
 165              		.loc 1 50 47 is_stmt 0
 166              	# 50 "src/syscall_c.cpp" 1
  51              	
 167              		mv a0, a0
 168              	# 0 "" 2
 169              	.LVL9:
  52:src/syscall_c.cpp ****     return (int)ret;
 170              		.loc 1 52 5 is_stmt 1
  53:src/syscall_c.cpp **** 
  54:src/syscall_c.cpp **** }
 171              		.loc 1 54 1 is_stmt 0
 172              	#NO_APP
 173 0084 1B050500 		sext.w	a0,a0
 174              	.LVL10:
 175 0088 03348100 		ld	s0,8(sp)
 176              		.cfi_restore 8
 177              		.cfi_def_cfa 2, 16
 178 008c 13010101 		addi	sp,sp,16
 179              		.cfi_def_cfa_offset 0
GAS LISTING /tmp/ccmVZyAk.s 			page 5


 180 0090 67800000 		jr	ra
 181              		.cfi_endproc
 182              	.LFE21:
 184              		.align	2
 185              		.globl	_Z11thread_exitv
 187              	_Z11thread_exitv:
 188              	.LFB22:
  55:src/syscall_c.cpp **** 
  56:src/syscall_c.cpp **** int
  57:src/syscall_c.cpp **** thread_exit()
  58:src/syscall_c.cpp **** {
 189              		.loc 1 58 1 is_stmt 1
 190              		.cfi_startproc
 191 0094 130101FF 		addi	sp,sp,-16
 192              		.cfi_def_cfa_offset 16
 193 0098 23348100 		sd	s0,8(sp)
 194              		.cfi_offset 8, -8
 195 009c 13040101 		addi	s0,sp,16
 196              		.cfi_def_cfa 8, 0
  59:src/syscall_c.cpp ****     int number = 0x12;
 197              		.loc 1 59 5
 198              	.LVL11:
  60:src/syscall_c.cpp ****     __asm__ volatile("mv a0, %0" : : "r" (number));
 199              		.loc 1 60 5
 200              		.loc 1 60 51 is_stmt 0
 201 00a0 93072001 		li	a5,18
 202              	#APP
 203              	# 60 "src/syscall_c.cpp" 1
  61              	    __asm__ volatile("ecall");
 204              		mv a0, a5
 205              	# 0 "" 2
 206              		.loc 1 61 5 is_stmt 1
 207              		.loc 1 61 30 is_stmt 0
 208              	# 61 "src/syscall_c.cpp" 1
  62              	
  63:src/syscall_c.cpp ****     int ret;
 209              		ecall
 210              	# 0 "" 2
 211              		.loc 1 63 5 is_stmt 1
  64:src/syscall_c.cpp ****     __asm__ volatile("mv %0, a0" : "=r" (ret));
 212              		.loc 1 64 5
 213              		.loc 1 64 47 is_stmt 0
 214              	# 64 "src/syscall_c.cpp" 1
  65              	
 215              		mv a0, a0
 216              	# 0 "" 2
 217              	.LVL12:
  66:src/syscall_c.cpp ****     return ret;
 218              		.loc 1 66 5 is_stmt 1
  67:src/syscall_c.cpp **** }
 219              		.loc 1 67 1 is_stmt 0
 220              	#NO_APP
 221 00b0 1B050500 		sext.w	a0,a0
 222 00b4 03348100 		ld	s0,8(sp)
 223              		.cfi_restore 8
 224              		.cfi_def_cfa 2, 16
 225 00b8 13010101 		addi	sp,sp,16
GAS LISTING /tmp/ccmVZyAk.s 			page 6


 226              		.cfi_def_cfa_offset 0
 227 00bc 67800000 		jr	ra
 228              		.cfi_endproc
 229              	.LFE22:
 231              		.align	2
 232              		.globl	_Z15thread_dispatchv
 234              	_Z15thread_dispatchv:
 235              	.LFB23:
  68:src/syscall_c.cpp **** 
  69:src/syscall_c.cpp **** void
  70:src/syscall_c.cpp **** thread_dispatch()
  71:src/syscall_c.cpp **** {
 236              		.loc 1 71 1 is_stmt 1
 237              		.cfi_startproc
 238 00c0 130101FF 		addi	sp,sp,-16
 239              		.cfi_def_cfa_offset 16
 240 00c4 23348100 		sd	s0,8(sp)
 241              		.cfi_offset 8, -8
 242 00c8 13040101 		addi	s0,sp,16
 243              		.cfi_def_cfa 8, 0
  72:src/syscall_c.cpp ****     int number = 0x13;
 244              		.loc 1 72 5
 245              	.LVL13:
  73:src/syscall_c.cpp ****     __asm__ volatile("mv a0, %0" : : "r" (number));
 246              		.loc 1 73 5
 247              		.loc 1 73 51 is_stmt 0
 248 00cc 93073001 		li	a5,19
 249              	#APP
 250              	# 73 "src/syscall_c.cpp" 1
  74              	
  75:src/syscall_c.cpp ****     __asm__ volatile("ecall");
 251              		mv a0, a5
 252              	# 0 "" 2
 253              		.loc 1 75 5 is_stmt 1
 254              		.loc 1 75 30 is_stmt 0
 255              	# 75 "src/syscall_c.cpp" 1
  76              	}
 256              		ecall
 257              	# 0 "" 2
 258              		.loc 1 76 1
 259              	#NO_APP
 260 00d8 03348100 		ld	s0,8(sp)
 261              		.cfi_restore 8
 262              		.cfi_def_cfa 2, 16
 263 00dc 13010101 		addi	sp,sp,16
 264              		.cfi_def_cfa_offset 0
 265 00e0 67800000 		jr	ra
 266              		.cfi_endproc
 267              	.LFE23:
 269              		.align	2
 270              		.globl	_Z22thread_create_wo_startPP3TCBPFvPvES2_
 272              	_Z22thread_create_wo_startPP3TCBPFvPvES2_:
 273              	.LFB24:
  77:src/syscall_c.cpp **** 
  78:src/syscall_c.cpp **** 
  79:src/syscall_c.cpp **** int
  80:src/syscall_c.cpp **** thread_create_wo_start(thread_t *handle, void(*start_routine)(void*), void *arg)
GAS LISTING /tmp/ccmVZyAk.s 			page 7


  81:src/syscall_c.cpp **** {
 274              		.loc 1 81 1 is_stmt 1
 275              		.cfi_startproc
 276              	.LVL14:
 277 00e4 130101FF 		addi	sp,sp,-16
 278              		.cfi_def_cfa_offset 16
 279 00e8 23348100 		sd	s0,8(sp)
 280              		.cfi_offset 8, -8
 281 00ec 13040101 		addi	s0,sp,16
 282              		.cfi_def_cfa 8, 0
  82:src/syscall_c.cpp ****     uint64 number = 0x14;
 283              		.loc 1 82 5
 284              	.LVL15:
  83:src/syscall_c.cpp **** 
  84:src/syscall_c.cpp ****     __asm__ volatile("mv a6, %0" : : "r" (arg));
 285              		.loc 1 84 5
 286              		.loc 1 84 48 is_stmt 0
 287              	#APP
 288              	# 84 "src/syscall_c.cpp" 1
  85              	    __asm__ volatile("mv a5, %0" : : "r" (arg));
 289              		mv a6, a2
 290              	# 0 "" 2
 291              		.loc 1 85 5 is_stmt 1
 292              		.loc 1 85 48 is_stmt 0
 293              	# 85 "src/syscall_c.cpp" 1
  86              	    __asm__ volatile("mv a2, %0" : : "r" (start_routine));
 294              		mv a5, a2
 295              	# 0 "" 2
 296              		.loc 1 86 5 is_stmt 1
 297              		.loc 1 86 58 is_stmt 0
 298              	# 86 "src/syscall_c.cpp" 1
  87              	    __asm__ volatile("mv a1, %0" : : "r" (handle));
 299              		mv a2, a1
 300              	# 0 "" 2
 301              		.loc 1 87 5 is_stmt 1
 302              		.loc 1 87 51 is_stmt 0
 303              	# 87 "src/syscall_c.cpp" 1
  88              	    __asm__ volatile("mv a0, %0" : : "r" (number));
 304              		mv a1, a0
 305              	# 0 "" 2
 306              		.loc 1 88 5 is_stmt 1
 307              		.loc 1 88 51 is_stmt 0
 308              	#NO_APP
 309 0100 93074001 		li	a5,20
 310              	#APP
 311              	# 88 "src/syscall_c.cpp" 1
  89              	
  90:src/syscall_c.cpp ****     __asm__ volatile("ecall");
 312              		mv a0, a5
 313              	# 0 "" 2
 314              		.loc 1 90 5 is_stmt 1
 315              		.loc 1 90 30 is_stmt 0
 316              	# 90 "src/syscall_c.cpp" 1
  91              	
  92:src/syscall_c.cpp ****     uint64 ret;
 317              		ecall
 318              	# 0 "" 2
GAS LISTING /tmp/ccmVZyAk.s 			page 8


 319              		.loc 1 92 5 is_stmt 1
  93:src/syscall_c.cpp ****     __asm__ volatile("mv %0, a0" : "=r" (ret));
 320              		.loc 1 93 5
 321              		.loc 1 93 47 is_stmt 0
 322              	# 93 "src/syscall_c.cpp" 1
  94              	
 323              		mv a0, a0
 324              	# 0 "" 2
 325              	.LVL16:
  95:src/syscall_c.cpp ****     return (int)ret;
 326              		.loc 1 95 5 is_stmt 1
  96:src/syscall_c.cpp **** }
 327              		.loc 1 96 1 is_stmt 0
 328              	#NO_APP
 329 0110 1B050500 		sext.w	a0,a0
 330              	.LVL17:
 331 0114 03348100 		ld	s0,8(sp)
 332              		.cfi_restore 8
 333              		.cfi_def_cfa 2, 16
 334 0118 13010101 		addi	sp,sp,16
 335              		.cfi_def_cfa_offset 0
 336 011c 67800000 		jr	ra
 337              		.cfi_endproc
 338              	.LFE24:
 340              		.align	2
 341              		.globl	_Z12thread_startP3TCB
 343              	_Z12thread_startP3TCB:
 344              	.LFB25:
  97:src/syscall_c.cpp **** 
  98:src/syscall_c.cpp **** 
  99:src/syscall_c.cpp **** int
 100:src/syscall_c.cpp **** thread_start(thread_t handle)
 101:src/syscall_c.cpp **** {
 345              		.loc 1 101 1 is_stmt 1
 346              		.cfi_startproc
 347              	.LVL18:
 348 0120 130101FF 		addi	sp,sp,-16
 349              		.cfi_def_cfa_offset 16
 350 0124 23348100 		sd	s0,8(sp)
 351              		.cfi_offset 8, -8
 352 0128 13040101 		addi	s0,sp,16
 353              		.cfi_def_cfa 8, 0
 102:src/syscall_c.cpp ****     int number = 0x15;
 354              		.loc 1 102 5
 355              	.LVL19:
 103:src/syscall_c.cpp ****     __asm__ volatile("mv a1, %0" : : "r" (handle));
 356              		.loc 1 103 5
 357              		.loc 1 103 51 is_stmt 0
 358              	#APP
 359              	# 103 "src/syscall_c.cpp" 1
 104              	    __asm__ volatile("mv a0, %0" : : "r" (number));
 360              		mv a1, a0
 361              	# 0 "" 2
 362              		.loc 1 104 5 is_stmt 1
 363              		.loc 1 104 51 is_stmt 0
 364              	#NO_APP
 365 0130 93075001 		li	a5,21
GAS LISTING /tmp/ccmVZyAk.s 			page 9


 366              	#APP
 367              	# 104 "src/syscall_c.cpp" 1
 105              	
 106:src/syscall_c.cpp ****     __asm__ volatile("ecall");
 368              		mv a0, a5
 369              	# 0 "" 2
 370              		.loc 1 106 5 is_stmt 1
 371              		.loc 1 106 30 is_stmt 0
 372              	# 106 "src/syscall_c.cpp" 1
 107              	
 108:src/syscall_c.cpp ****     int ret;
 373              		ecall
 374              	# 0 "" 2
 375              		.loc 1 108 5 is_stmt 1
 109:src/syscall_c.cpp ****     __asm__ volatile("mv %0, a0" : "=r" (ret));
 376              		.loc 1 109 5
 377              		.loc 1 109 47 is_stmt 0
 378              	# 109 "src/syscall_c.cpp" 1
 110              	
 379              		mv a0, a0
 380              	# 0 "" 2
 381              	.LVL20:
 111:src/syscall_c.cpp ****     return ret;
 382              		.loc 1 111 5 is_stmt 1
 112:src/syscall_c.cpp **** }
 383              		.loc 1 112 1 is_stmt 0
 384              	#NO_APP
 385 0140 1B050500 		sext.w	a0,a0
 386 0144 03348100 		ld	s0,8(sp)
 387              		.cfi_restore 8
 388              		.cfi_def_cfa 2, 16
 389 0148 13010101 		addi	sp,sp,16
 390              		.cfi_def_cfa_offset 0
 391 014c 67800000 		jr	ra
 392              		.cfi_endproc
 393              	.LFE25:
 395              		.align	2
 396              		.globl	_Z8sem_openPP3Semj
 398              	_Z8sem_openPP3Semj:
 399              	.LFB26:
 113:src/syscall_c.cpp **** 
 114:src/syscall_c.cpp **** 
 115:src/syscall_c.cpp **** 
 116:src/syscall_c.cpp **** 
 117:src/syscall_c.cpp **** int
 118:src/syscall_c.cpp **** sem_open (sem_t* handle, unsigned init)
 119:src/syscall_c.cpp **** {
 400              		.loc 1 119 1 is_stmt 1
 401              		.cfi_startproc
 402              	.LVL21:
 403 0150 130101FF 		addi	sp,sp,-16
 404              		.cfi_def_cfa_offset 16
 405 0154 23348100 		sd	s0,8(sp)
 406              		.cfi_offset 8, -8
 407 0158 13040101 		addi	s0,sp,16
 408              		.cfi_def_cfa 8, 0
 120:src/syscall_c.cpp ****     uint64 number = 0x21;
GAS LISTING /tmp/ccmVZyAk.s 			page 10


 409              		.loc 1 120 5
 410              	.LVL22:
 121:src/syscall_c.cpp **** 
 122:src/syscall_c.cpp ****     __asm__ volatile("mv a2, %0" : : "r" (init));
 411              		.loc 1 122 5
 412              		.loc 1 122 49 is_stmt 0
 413              	#APP
 414              	# 122 "src/syscall_c.cpp" 1
 123              	    __asm__ volatile("mv a6, %0" : : "r" (handle));
 415              		mv a2, a1
 416              	# 0 "" 2
 417              		.loc 1 123 5 is_stmt 1
 418              		.loc 1 123 51 is_stmt 0
 419              	# 123 "src/syscall_c.cpp" 1
 124              	    __asm__ volatile("mv a0, %0" : : "r" (number));
 420              		mv a6, a0
 421              	# 0 "" 2
 422              		.loc 1 124 5 is_stmt 1
 423              		.loc 1 124 51 is_stmt 0
 424              	#NO_APP
 425 0164 93071002 		li	a5,33
 426              	#APP
 427              	# 124 "src/syscall_c.cpp" 1
 125              	    __asm__ volatile("ecall");
 428              		mv a0, a5
 429              	# 0 "" 2
 430              		.loc 1 125 5 is_stmt 1
 431              		.loc 1 125 30 is_stmt 0
 432              	# 125 "src/syscall_c.cpp" 1
 126              	
 127:src/syscall_c.cpp ****     uint64 ret;
 433              		ecall
 434              	# 0 "" 2
 435              		.loc 1 127 5 is_stmt 1
 128:src/syscall_c.cpp ****     __asm__ volatile("mv %0, a0" : "=r" (ret));
 436              		.loc 1 128 5
 437              		.loc 1 128 47 is_stmt 0
 438              	# 128 "src/syscall_c.cpp" 1
 129              	
 439              		mv a0, a0
 440              	# 0 "" 2
 441              	.LVL23:
 130:src/syscall_c.cpp ****     return (int)ret;
 442              		.loc 1 130 5 is_stmt 1
 131:src/syscall_c.cpp **** }
 443              		.loc 1 131 1 is_stmt 0
 444              	#NO_APP
 445 0174 1B050500 		sext.w	a0,a0
 446              	.LVL24:
 447 0178 03348100 		ld	s0,8(sp)
 448              		.cfi_restore 8
 449              		.cfi_def_cfa 2, 16
 450 017c 13010101 		addi	sp,sp,16
 451              		.cfi_def_cfa_offset 0
 452 0180 67800000 		jr	ra
 453              		.cfi_endproc
 454              	.LFE26:
GAS LISTING /tmp/ccmVZyAk.s 			page 11


 456              		.align	2
 457              		.globl	_Z9sem_closeP3Sem
 459              	_Z9sem_closeP3Sem:
 460              	.LFB27:
 132:src/syscall_c.cpp **** 
 133:src/syscall_c.cpp **** 
 134:src/syscall_c.cpp **** int
 135:src/syscall_c.cpp **** sem_close (sem_t handle)
 136:src/syscall_c.cpp **** {
 461              		.loc 1 136 1 is_stmt 1
 462              		.cfi_startproc
 463              	.LVL25:
 464 0184 130101FF 		addi	sp,sp,-16
 465              		.cfi_def_cfa_offset 16
 466 0188 23348100 		sd	s0,8(sp)
 467              		.cfi_offset 8, -8
 468 018c 13040101 		addi	s0,sp,16
 469              		.cfi_def_cfa 8, 0
 137:src/syscall_c.cpp ****     uint64 number = 0x22;
 470              		.loc 1 137 5
 471              	.LVL26:
 138:src/syscall_c.cpp **** 
 139:src/syscall_c.cpp ****     __asm__ volatile("mv a1, %0" : : "r" (handle));
 472              		.loc 1 139 5
 473              		.loc 1 139 51 is_stmt 0
 474              	#APP
 475              	# 139 "src/syscall_c.cpp" 1
 140              	    __asm__ volatile("mv a0, %0" : : "r" (number));
 476              		mv a1, a0
 477              	# 0 "" 2
 478              		.loc 1 140 5 is_stmt 1
 479              		.loc 1 140 51 is_stmt 0
 480              	#NO_APP
 481 0194 93072002 		li	a5,34
 482              	#APP
 483              	# 140 "src/syscall_c.cpp" 1
 141              	    __asm__ volatile ("ecall");
 484              		mv a0, a5
 485              	# 0 "" 2
 486              		.loc 1 141 5 is_stmt 1
 487              		.loc 1 141 31 is_stmt 0
 488              	# 141 "src/syscall_c.cpp" 1
 142              	
 143:src/syscall_c.cpp ****     int ret;
 489              		ecall
 490              	# 0 "" 2
 491              		.loc 1 143 5 is_stmt 1
 144:src/syscall_c.cpp ****     __asm__ volatile("mv %0, a0" : "=r" (ret));
 492              		.loc 1 144 5
 493              		.loc 1 144 47 is_stmt 0
 494              	# 144 "src/syscall_c.cpp" 1
 145              	
 495              		mv a0, a0
 496              	# 0 "" 2
 497              	.LVL27:
 146:src/syscall_c.cpp ****     return ret;
 498              		.loc 1 146 5 is_stmt 1
GAS LISTING /tmp/ccmVZyAk.s 			page 12


 147:src/syscall_c.cpp **** }
 499              		.loc 1 147 1 is_stmt 0
 500              	#NO_APP
 501 01a4 1B050500 		sext.w	a0,a0
 502 01a8 03348100 		ld	s0,8(sp)
 503              		.cfi_restore 8
 504              		.cfi_def_cfa 2, 16
 505 01ac 13010101 		addi	sp,sp,16
 506              		.cfi_def_cfa_offset 0
 507 01b0 67800000 		jr	ra
 508              		.cfi_endproc
 509              	.LFE27:
 511              		.align	2
 512              		.globl	_Z8sem_waitP3Sem
 514              	_Z8sem_waitP3Sem:
 515              	.LFB28:
 148:src/syscall_c.cpp **** 
 149:src/syscall_c.cpp **** 
 150:src/syscall_c.cpp **** int
 151:src/syscall_c.cpp **** sem_wait (sem_t id)
 152:src/syscall_c.cpp **** {
 516              		.loc 1 152 1 is_stmt 1
 517              		.cfi_startproc
 518              	.LVL28:
 519 01b4 130101FF 		addi	sp,sp,-16
 520              		.cfi_def_cfa_offset 16
 521 01b8 23348100 		sd	s0,8(sp)
 522              		.cfi_offset 8, -8
 523 01bc 13040101 		addi	s0,sp,16
 524              		.cfi_def_cfa 8, 0
 153:src/syscall_c.cpp ****     uint64 number = 0x23;
 525              		.loc 1 153 5
 526              	.LVL29:
 154:src/syscall_c.cpp **** 
 155:src/syscall_c.cpp ****     __asm__ volatile("mv a1, %0" : : "r" (id));
 527              		.loc 1 155 5
 528              		.loc 1 155 47 is_stmt 0
 529              	#APP
 530              	# 155 "src/syscall_c.cpp" 1
 156              	    __asm__ volatile("mv a0, %0" : : "r" (number));
 531              		mv a1, a0
 532              	# 0 "" 2
 533              		.loc 1 156 5 is_stmt 1
 534              		.loc 1 156 51 is_stmt 0
 535              	#NO_APP
 536 01c4 93073002 		li	a5,35
 537              	#APP
 538              	# 156 "src/syscall_c.cpp" 1
 157              	    __asm__ volatile ("ecall");
 539              		mv a0, a5
 540              	# 0 "" 2
 541              		.loc 1 157 5 is_stmt 1
 542              		.loc 1 157 31 is_stmt 0
 543              	# 157 "src/syscall_c.cpp" 1
 158              	
 159:src/syscall_c.cpp ****     int ret;
 544              		ecall
GAS LISTING /tmp/ccmVZyAk.s 			page 13


 545              	# 0 "" 2
 546              		.loc 1 159 5 is_stmt 1
 160:src/syscall_c.cpp ****     __asm__ volatile("mv %0, a0" : "=r" (ret));
 547              		.loc 1 160 5
 548              		.loc 1 160 47 is_stmt 0
 549              	# 160 "src/syscall_c.cpp" 1
 161              	
 550              		mv a0, a0
 551              	# 0 "" 2
 552              	.LVL30:
 162:src/syscall_c.cpp ****     return ret;
 553              		.loc 1 162 5 is_stmt 1
 163:src/syscall_c.cpp **** }
 554              		.loc 1 163 1 is_stmt 0
 555              	#NO_APP
 556 01d4 1B050500 		sext.w	a0,a0
 557 01d8 03348100 		ld	s0,8(sp)
 558              		.cfi_restore 8
 559              		.cfi_def_cfa 2, 16
 560 01dc 13010101 		addi	sp,sp,16
 561              		.cfi_def_cfa_offset 0
 562 01e0 67800000 		jr	ra
 563              		.cfi_endproc
 564              	.LFE28:
 566              		.align	2
 567              		.globl	_Z10sem_signalP3Sem
 569              	_Z10sem_signalP3Sem:
 570              	.LFB29:
 164:src/syscall_c.cpp **** 
 165:src/syscall_c.cpp **** 
 166:src/syscall_c.cpp **** int
 167:src/syscall_c.cpp **** sem_signal (sem_t id)
 168:src/syscall_c.cpp **** {
 571              		.loc 1 168 1 is_stmt 1
 572              		.cfi_startproc
 573              	.LVL31:
 574 01e4 130101FF 		addi	sp,sp,-16
 575              		.cfi_def_cfa_offset 16
 576 01e8 23348100 		sd	s0,8(sp)
 577              		.cfi_offset 8, -8
 578 01ec 13040101 		addi	s0,sp,16
 579              		.cfi_def_cfa 8, 0
 169:src/syscall_c.cpp ****     uint64 number = 0x24;
 580              		.loc 1 169 5
 581              	.LVL32:
 170:src/syscall_c.cpp **** 
 171:src/syscall_c.cpp ****     __asm__ volatile("mv a1, %0" : : "r" (id));
 582              		.loc 1 171 5
 583              		.loc 1 171 47 is_stmt 0
 584              	#APP
 585              	# 171 "src/syscall_c.cpp" 1
 172              	    __asm__ volatile("mv a0, %0" : : "r" (number));
 586              		mv a1, a0
 587              	# 0 "" 2
 588              		.loc 1 172 5 is_stmt 1
 589              		.loc 1 172 51 is_stmt 0
 590              	#NO_APP
GAS LISTING /tmp/ccmVZyAk.s 			page 14


 591 01f4 93074002 		li	a5,36
 592              	#APP
 593              	# 172 "src/syscall_c.cpp" 1
 173              	    __asm__ volatile ("ecall");
 594              		mv a0, a5
 595              	# 0 "" 2
 596              		.loc 1 173 5 is_stmt 1
 597              		.loc 1 173 31 is_stmt 0
 598              	# 173 "src/syscall_c.cpp" 1
 174              	
 175:src/syscall_c.cpp ****     int ret;
 599              		ecall
 600              	# 0 "" 2
 601              		.loc 1 175 5 is_stmt 1
 176:src/syscall_c.cpp ****     __asm__ volatile("mv %0, a0" : "=r" (ret));
 602              		.loc 1 176 5
 603              		.loc 1 176 47 is_stmt 0
 604              	# 176 "src/syscall_c.cpp" 1
 177              	
 605              		mv a0, a0
 606              	# 0 "" 2
 607              	.LVL33:
 178:src/syscall_c.cpp ****     return ret;
 608              		.loc 1 178 5 is_stmt 1
 179:src/syscall_c.cpp **** }
 609              		.loc 1 179 1 is_stmt 0
 610              	#NO_APP
 611 0204 1B050500 		sext.w	a0,a0
 612 0208 03348100 		ld	s0,8(sp)
 613              		.cfi_restore 8
 614              		.cfi_def_cfa 2, 16
 615 020c 13010101 		addi	sp,sp,16
 616              		.cfi_def_cfa_offset 0
 617 0210 67800000 		jr	ra
 618              		.cfi_endproc
 619              	.LFE29:
 621              		.align	2
 622              		.globl	_Z4putcc
 624              	_Z4putcc:
 625              	.LFB30:
 180:src/syscall_c.cpp **** 
 181:src/syscall_c.cpp **** 
 182:src/syscall_c.cpp **** void
 183:src/syscall_c.cpp **** putc (char chr)
 184:src/syscall_c.cpp **** {
 626              		.loc 1 184 1 is_stmt 1
 627              		.cfi_startproc
 628              	.LVL34:
 629 0214 130101FF 		addi	sp,sp,-16
 630              		.cfi_def_cfa_offset 16
 631 0218 23341100 		sd	ra,8(sp)
 632 021c 23308100 		sd	s0,0(sp)
 633              		.cfi_offset 1, -8
 634              		.cfi_offset 8, -16
 635 0220 13040101 		addi	s0,sp,16
 636              		.cfi_def_cfa 8, 0
 185:src/syscall_c.cpp ****     __putc(chr);
GAS LISTING /tmp/ccmVZyAk.s 			page 15


 637              		.loc 1 185 5
 638              		.loc 1 185 11 is_stmt 0
 639 0224 97000000 		call	__putc@plt
 639      E7800000 
 640              	.LVL35:
 186:src/syscall_c.cpp **** }
 641              		.loc 1 186 1
 642 022c 83308100 		ld	ra,8(sp)
 643              		.cfi_restore 1
 644 0230 03340100 		ld	s0,0(sp)
 645              		.cfi_restore 8
 646              		.cfi_def_cfa 2, 16
 647 0234 13010101 		addi	sp,sp,16
 648              		.cfi_def_cfa_offset 0
 649 0238 67800000 		jr	ra
 650              		.cfi_endproc
 651              	.LFE30:
 653              		.align	2
 654              		.globl	_Z4getcv
 656              	_Z4getcv:
 657              	.LFB31:
 187:src/syscall_c.cpp **** 
 188:src/syscall_c.cpp **** 
 189:src/syscall_c.cpp **** char
 190:src/syscall_c.cpp **** getc ()
 191:src/syscall_c.cpp **** {
 658              		.loc 1 191 1 is_stmt 1
 659              		.cfi_startproc
 660 023c 130101FF 		addi	sp,sp,-16
 661              		.cfi_def_cfa_offset 16
 662 0240 23341100 		sd	ra,8(sp)
 663 0244 23308100 		sd	s0,0(sp)
 664              		.cfi_offset 1, -8
 665              		.cfi_offset 8, -16
 666 0248 13040101 		addi	s0,sp,16
 667              		.cfi_def_cfa 8, 0
 192:src/syscall_c.cpp ****     return __getc();
 668              		.loc 1 192 5
 669              		.loc 1 192 18 is_stmt 0
 670 024c 97000000 		call	__getc@plt
 670      E7800000 
 671              	.LVL36:
 193:src/syscall_c.cpp **** }
 672              		.loc 1 193 1
 673 0254 83308100 		ld	ra,8(sp)
 674              		.cfi_restore 1
 675 0258 03340100 		ld	s0,0(sp)
 676              		.cfi_restore 8
 677              		.cfi_def_cfa 2, 16
 678 025c 13010101 		addi	sp,sp,16
 679              		.cfi_def_cfa_offset 0
 680 0260 67800000 		jr	ra
 681              		.cfi_endproc
 682              	.LFE31:
 684              	.Letext0:
 685              		.file 2 "src/../h/../lib/hw.h"
 686              		.file 3 "src/../h/../h/tcb.hpp"
GAS LISTING /tmp/ccmVZyAk.s 			page 16


 687              		.file 4 "src/../h/syscall_c.h"
 688              		.file 5 "src/../lib/console.h"
GAS LISTING /tmp/ccmVZyAk.s 			page 17


DEFINED SYMBOLS
                            *ABS*:0000000000000000 syscall_c.cpp
     /tmp/ccmVZyAk.s:9      .text:0000000000000000 _Z9mem_allocm
     /tmp/ccmVZyAk.s:13     .text:0000000000000000 .L0 
     /tmp/ccmVZyAk.s:15     .text:0000000000000000 .L0 
     /tmp/ccmVZyAk.s:16     .text:0000000000000004 .L0 
     /tmp/ccmVZyAk.s:18     .text:0000000000000008 .L0 
     /tmp/ccmVZyAk.s:20     .text:000000000000000c .L0 
     /tmp/ccmVZyAk.s:23     .text:000000000000000c .L0 
     /tmp/ccmVZyAk.s:24     .text:000000000000000c .L0 
     /tmp/ccmVZyAk.s:25     .text:000000000000000c .L0 
   src/syscall_c.cpp:11     .text:000000000000000c .L0 
     /tmp/ccmVZyAk.s:31     .text:0000000000000010 .L0 
     /tmp/ccmVZyAk.s:33     .text:0000000000000010 .L0 
     /tmp/ccmVZyAk.s:39     .text:0000000000000018 .L0 
   src/syscall_c.cpp:13     .text:0000000000000018 .L0 
     /tmp/ccmVZyAk.s:44     .text:000000000000001c .L0 
     /tmp/ccmVZyAk.s:45     .text:000000000000001c .L0 
   src/syscall_c.cpp:16     .text:000000000000001c .L0 
     /tmp/ccmVZyAk.s:51     .text:0000000000000020 .L0 
     /tmp/ccmVZyAk.s:53     .text:0000000000000020 .L0 
     /tmp/ccmVZyAk.s:54     .text:0000000000000024 .L0 
     /tmp/ccmVZyAk.s:55     .text:0000000000000024 .L0 
     /tmp/ccmVZyAk.s:57     .text:0000000000000028 .L0 
     /tmp/ccmVZyAk.s:59     .text:000000000000002c .L0 
     /tmp/ccmVZyAk.s:65     .text:000000000000002c _Z8mem_freePv
     /tmp/ccmVZyAk.s:68     .text:000000000000002c .L0 
     /tmp/ccmVZyAk.s:70     .text:000000000000002c .L0 
     /tmp/ccmVZyAk.s:71     .text:0000000000000030 .L0 
     /tmp/ccmVZyAk.s:73     .text:0000000000000034 .L0 
     /tmp/ccmVZyAk.s:75     .text:0000000000000038 .L0 
     /tmp/ccmVZyAk.s:78     .text:0000000000000038 .L0 
     /tmp/ccmVZyAk.s:79     .text:0000000000000038 .L0 
   src/syscall_c.cpp:26     .text:0000000000000038 .L0 
     /tmp/ccmVZyAk.s:85     .text:000000000000003c .L0 
     /tmp/ccmVZyAk.s:87     .text:000000000000003c .L0 
     /tmp/ccmVZyAk.s:93     .text:0000000000000044 .L0 
   src/syscall_c.cpp:28     .text:0000000000000044 .L0 
     /tmp/ccmVZyAk.s:98     .text:0000000000000048 .L0 
     /tmp/ccmVZyAk.s:99     .text:0000000000000048 .L0 
   src/syscall_c.cpp:31     .text:0000000000000048 .L0 
     /tmp/ccmVZyAk.s:105    .text:000000000000004c .L0 
     /tmp/ccmVZyAk.s:107    .text:000000000000004c .L0 
     /tmp/ccmVZyAk.s:110    .text:0000000000000054 .L0 
     /tmp/ccmVZyAk.s:111    .text:0000000000000054 .L0 
     /tmp/ccmVZyAk.s:113    .text:0000000000000058 .L0 
     /tmp/ccmVZyAk.s:115    .text:000000000000005c .L0 
     /tmp/ccmVZyAk.s:121    .text:000000000000005c _Z13thread_createPP3TCBPFvPvES2_
     /tmp/ccmVZyAk.s:124    .text:000000000000005c .L0 
     /tmp/ccmVZyAk.s:126    .text:000000000000005c .L0 
     /tmp/ccmVZyAk.s:127    .text:0000000000000060 .L0 
     /tmp/ccmVZyAk.s:129    .text:0000000000000064 .L0 
     /tmp/ccmVZyAk.s:131    .text:0000000000000068 .L0 
     /tmp/ccmVZyAk.s:134    .text:0000000000000068 .L0 
     /tmp/ccmVZyAk.s:135    .text:0000000000000068 .L0 
   src/syscall_c.cpp:42     .text:0000000000000068 .L0 
     /tmp/ccmVZyAk.s:141    .text:000000000000006c .L0 
GAS LISTING /tmp/ccmVZyAk.s 			page 18


   src/syscall_c.cpp:43     .text:000000000000006c .L0 
     /tmp/ccmVZyAk.s:146    .text:0000000000000070 .L0 
   src/syscall_c.cpp:44     .text:0000000000000070 .L0 
     /tmp/ccmVZyAk.s:151    .text:0000000000000074 .L0 
     /tmp/ccmVZyAk.s:153    .text:0000000000000074 .L0 
     /tmp/ccmVZyAk.s:159    .text:000000000000007c .L0 
   src/syscall_c.cpp:47     .text:000000000000007c .L0 
     /tmp/ccmVZyAk.s:164    .text:0000000000000080 .L0 
     /tmp/ccmVZyAk.s:165    .text:0000000000000080 .L0 
   src/syscall_c.cpp:50     .text:0000000000000080 .L0 
     /tmp/ccmVZyAk.s:171    .text:0000000000000084 .L0 
     /tmp/ccmVZyAk.s:173    .text:0000000000000084 .L0 
     /tmp/ccmVZyAk.s:176    .text:000000000000008c .L0 
     /tmp/ccmVZyAk.s:177    .text:000000000000008c .L0 
     /tmp/ccmVZyAk.s:179    .text:0000000000000090 .L0 
     /tmp/ccmVZyAk.s:181    .text:0000000000000094 .L0 
     /tmp/ccmVZyAk.s:187    .text:0000000000000094 _Z11thread_exitv
     /tmp/ccmVZyAk.s:190    .text:0000000000000094 .L0 
     /tmp/ccmVZyAk.s:191    .text:0000000000000094 .L0 
     /tmp/ccmVZyAk.s:192    .text:0000000000000098 .L0 
     /tmp/ccmVZyAk.s:194    .text:000000000000009c .L0 
     /tmp/ccmVZyAk.s:196    .text:00000000000000a0 .L0 
     /tmp/ccmVZyAk.s:199    .text:00000000000000a0 .L0 
     /tmp/ccmVZyAk.s:200    .text:00000000000000a0 .L0 
     /tmp/ccmVZyAk.s:201    .text:00000000000000a0 .L0 
     /tmp/ccmVZyAk.s:207    .text:00000000000000a8 .L0 
   src/syscall_c.cpp:61     .text:00000000000000a8 .L0 
     /tmp/ccmVZyAk.s:212    .text:00000000000000ac .L0 
     /tmp/ccmVZyAk.s:213    .text:00000000000000ac .L0 
   src/syscall_c.cpp:64     .text:00000000000000ac .L0 
     /tmp/ccmVZyAk.s:219    .text:00000000000000b0 .L0 
     /tmp/ccmVZyAk.s:221    .text:00000000000000b0 .L0 
     /tmp/ccmVZyAk.s:223    .text:00000000000000b8 .L0 
     /tmp/ccmVZyAk.s:224    .text:00000000000000b8 .L0 
     /tmp/ccmVZyAk.s:226    .text:00000000000000bc .L0 
     /tmp/ccmVZyAk.s:228    .text:00000000000000c0 .L0 
     /tmp/ccmVZyAk.s:234    .text:00000000000000c0 _Z15thread_dispatchv
     /tmp/ccmVZyAk.s:237    .text:00000000000000c0 .L0 
     /tmp/ccmVZyAk.s:238    .text:00000000000000c0 .L0 
     /tmp/ccmVZyAk.s:239    .text:00000000000000c4 .L0 
     /tmp/ccmVZyAk.s:241    .text:00000000000000c8 .L0 
     /tmp/ccmVZyAk.s:243    .text:00000000000000cc .L0 
     /tmp/ccmVZyAk.s:246    .text:00000000000000cc .L0 
     /tmp/ccmVZyAk.s:247    .text:00000000000000cc .L0 
     /tmp/ccmVZyAk.s:248    .text:00000000000000cc .L0 
     /tmp/ccmVZyAk.s:254    .text:00000000000000d4 .L0 
   src/syscall_c.cpp:75     .text:00000000000000d4 .L0 
     /tmp/ccmVZyAk.s:260    .text:00000000000000d8 .L0 
     /tmp/ccmVZyAk.s:261    .text:00000000000000dc .L0 
     /tmp/ccmVZyAk.s:262    .text:00000000000000dc .L0 
     /tmp/ccmVZyAk.s:264    .text:00000000000000e0 .L0 
     /tmp/ccmVZyAk.s:266    .text:00000000000000e4 .L0 
     /tmp/ccmVZyAk.s:272    .text:00000000000000e4 _Z22thread_create_wo_startPP3TCBPFvPvES2_
     /tmp/ccmVZyAk.s:275    .text:00000000000000e4 .L0 
     /tmp/ccmVZyAk.s:277    .text:00000000000000e4 .L0 
     /tmp/ccmVZyAk.s:278    .text:00000000000000e8 .L0 
     /tmp/ccmVZyAk.s:280    .text:00000000000000ec .L0 
GAS LISTING /tmp/ccmVZyAk.s 			page 19


     /tmp/ccmVZyAk.s:282    .text:00000000000000f0 .L0 
     /tmp/ccmVZyAk.s:285    .text:00000000000000f0 .L0 
     /tmp/ccmVZyAk.s:286    .text:00000000000000f0 .L0 
   src/syscall_c.cpp:84     .text:00000000000000f0 .L0 
     /tmp/ccmVZyAk.s:292    .text:00000000000000f4 .L0 
   src/syscall_c.cpp:85     .text:00000000000000f4 .L0 
     /tmp/ccmVZyAk.s:297    .text:00000000000000f8 .L0 
   src/syscall_c.cpp:86     .text:00000000000000f8 .L0 
     /tmp/ccmVZyAk.s:302    .text:00000000000000fc .L0 
   src/syscall_c.cpp:87     .text:00000000000000fc .L0 
     /tmp/ccmVZyAk.s:307    .text:0000000000000100 .L0 
     /tmp/ccmVZyAk.s:309    .text:0000000000000100 .L0 
     /tmp/ccmVZyAk.s:315    .text:0000000000000108 .L0 
   src/syscall_c.cpp:90     .text:0000000000000108 .L0 
     /tmp/ccmVZyAk.s:320    .text:000000000000010c .L0 
     /tmp/ccmVZyAk.s:321    .text:000000000000010c .L0 
   src/syscall_c.cpp:93     .text:000000000000010c .L0 
     /tmp/ccmVZyAk.s:327    .text:0000000000000110 .L0 
     /tmp/ccmVZyAk.s:329    .text:0000000000000110 .L0 
     /tmp/ccmVZyAk.s:332    .text:0000000000000118 .L0 
     /tmp/ccmVZyAk.s:333    .text:0000000000000118 .L0 
     /tmp/ccmVZyAk.s:335    .text:000000000000011c .L0 
     /tmp/ccmVZyAk.s:337    .text:0000000000000120 .L0 
     /tmp/ccmVZyAk.s:343    .text:0000000000000120 _Z12thread_startP3TCB
     /tmp/ccmVZyAk.s:346    .text:0000000000000120 .L0 
     /tmp/ccmVZyAk.s:348    .text:0000000000000120 .L0 
     /tmp/ccmVZyAk.s:349    .text:0000000000000124 .L0 
     /tmp/ccmVZyAk.s:351    .text:0000000000000128 .L0 
     /tmp/ccmVZyAk.s:353    .text:000000000000012c .L0 
     /tmp/ccmVZyAk.s:356    .text:000000000000012c .L0 
     /tmp/ccmVZyAk.s:357    .text:000000000000012c .L0 
   src/syscall_c.cpp:103    .text:000000000000012c .L0 
     /tmp/ccmVZyAk.s:363    .text:0000000000000130 .L0 
     /tmp/ccmVZyAk.s:365    .text:0000000000000130 .L0 
     /tmp/ccmVZyAk.s:371    .text:0000000000000138 .L0 
   src/syscall_c.cpp:106    .text:0000000000000138 .L0 
     /tmp/ccmVZyAk.s:376    .text:000000000000013c .L0 
     /tmp/ccmVZyAk.s:377    .text:000000000000013c .L0 
   src/syscall_c.cpp:109    .text:000000000000013c .L0 
     /tmp/ccmVZyAk.s:383    .text:0000000000000140 .L0 
     /tmp/ccmVZyAk.s:385    .text:0000000000000140 .L0 
     /tmp/ccmVZyAk.s:387    .text:0000000000000148 .L0 
     /tmp/ccmVZyAk.s:388    .text:0000000000000148 .L0 
     /tmp/ccmVZyAk.s:390    .text:000000000000014c .L0 
     /tmp/ccmVZyAk.s:392    .text:0000000000000150 .L0 
     /tmp/ccmVZyAk.s:398    .text:0000000000000150 _Z8sem_openPP3Semj
     /tmp/ccmVZyAk.s:401    .text:0000000000000150 .L0 
     /tmp/ccmVZyAk.s:403    .text:0000000000000150 .L0 
     /tmp/ccmVZyAk.s:404    .text:0000000000000154 .L0 
     /tmp/ccmVZyAk.s:406    .text:0000000000000158 .L0 
     /tmp/ccmVZyAk.s:408    .text:000000000000015c .L0 
     /tmp/ccmVZyAk.s:411    .text:000000000000015c .L0 
     /tmp/ccmVZyAk.s:412    .text:000000000000015c .L0 
   src/syscall_c.cpp:122    .text:000000000000015c .L0 
     /tmp/ccmVZyAk.s:418    .text:0000000000000160 .L0 
   src/syscall_c.cpp:123    .text:0000000000000160 .L0 
     /tmp/ccmVZyAk.s:423    .text:0000000000000164 .L0 
GAS LISTING /tmp/ccmVZyAk.s 			page 20


     /tmp/ccmVZyAk.s:425    .text:0000000000000164 .L0 
     /tmp/ccmVZyAk.s:431    .text:000000000000016c .L0 
   src/syscall_c.cpp:125    .text:000000000000016c .L0 
     /tmp/ccmVZyAk.s:436    .text:0000000000000170 .L0 
     /tmp/ccmVZyAk.s:437    .text:0000000000000170 .L0 
   src/syscall_c.cpp:128    .text:0000000000000170 .L0 
     /tmp/ccmVZyAk.s:443    .text:0000000000000174 .L0 
     /tmp/ccmVZyAk.s:445    .text:0000000000000174 .L0 
     /tmp/ccmVZyAk.s:448    .text:000000000000017c .L0 
     /tmp/ccmVZyAk.s:449    .text:000000000000017c .L0 
     /tmp/ccmVZyAk.s:451    .text:0000000000000180 .L0 
     /tmp/ccmVZyAk.s:453    .text:0000000000000184 .L0 
     /tmp/ccmVZyAk.s:459    .text:0000000000000184 _Z9sem_closeP3Sem
     /tmp/ccmVZyAk.s:462    .text:0000000000000184 .L0 
     /tmp/ccmVZyAk.s:464    .text:0000000000000184 .L0 
     /tmp/ccmVZyAk.s:465    .text:0000000000000188 .L0 
     /tmp/ccmVZyAk.s:467    .text:000000000000018c .L0 
     /tmp/ccmVZyAk.s:469    .text:0000000000000190 .L0 
     /tmp/ccmVZyAk.s:472    .text:0000000000000190 .L0 
     /tmp/ccmVZyAk.s:473    .text:0000000000000190 .L0 
   src/syscall_c.cpp:139    .text:0000000000000190 .L0 
     /tmp/ccmVZyAk.s:479    .text:0000000000000194 .L0 
     /tmp/ccmVZyAk.s:481    .text:0000000000000194 .L0 
     /tmp/ccmVZyAk.s:487    .text:000000000000019c .L0 
   src/syscall_c.cpp:141    .text:000000000000019c .L0 
     /tmp/ccmVZyAk.s:492    .text:00000000000001a0 .L0 
     /tmp/ccmVZyAk.s:493    .text:00000000000001a0 .L0 
   src/syscall_c.cpp:144    .text:00000000000001a0 .L0 
     /tmp/ccmVZyAk.s:499    .text:00000000000001a4 .L0 
     /tmp/ccmVZyAk.s:501    .text:00000000000001a4 .L0 
     /tmp/ccmVZyAk.s:503    .text:00000000000001ac .L0 
     /tmp/ccmVZyAk.s:504    .text:00000000000001ac .L0 
     /tmp/ccmVZyAk.s:506    .text:00000000000001b0 .L0 
     /tmp/ccmVZyAk.s:508    .text:00000000000001b4 .L0 
     /tmp/ccmVZyAk.s:514    .text:00000000000001b4 _Z8sem_waitP3Sem
     /tmp/ccmVZyAk.s:517    .text:00000000000001b4 .L0 
     /tmp/ccmVZyAk.s:519    .text:00000000000001b4 .L0 
     /tmp/ccmVZyAk.s:520    .text:00000000000001b8 .L0 
     /tmp/ccmVZyAk.s:522    .text:00000000000001bc .L0 
     /tmp/ccmVZyAk.s:524    .text:00000000000001c0 .L0 
     /tmp/ccmVZyAk.s:527    .text:00000000000001c0 .L0 
     /tmp/ccmVZyAk.s:528    .text:00000000000001c0 .L0 
   src/syscall_c.cpp:155    .text:00000000000001c0 .L0 
     /tmp/ccmVZyAk.s:534    .text:00000000000001c4 .L0 
     /tmp/ccmVZyAk.s:536    .text:00000000000001c4 .L0 
     /tmp/ccmVZyAk.s:542    .text:00000000000001cc .L0 
   src/syscall_c.cpp:157    .text:00000000000001cc .L0 
     /tmp/ccmVZyAk.s:547    .text:00000000000001d0 .L0 
     /tmp/ccmVZyAk.s:548    .text:00000000000001d0 .L0 
   src/syscall_c.cpp:160    .text:00000000000001d0 .L0 
     /tmp/ccmVZyAk.s:554    .text:00000000000001d4 .L0 
     /tmp/ccmVZyAk.s:556    .text:00000000000001d4 .L0 
     /tmp/ccmVZyAk.s:558    .text:00000000000001dc .L0 
     /tmp/ccmVZyAk.s:559    .text:00000000000001dc .L0 
     /tmp/ccmVZyAk.s:561    .text:00000000000001e0 .L0 
     /tmp/ccmVZyAk.s:563    .text:00000000000001e4 .L0 
     /tmp/ccmVZyAk.s:569    .text:00000000000001e4 _Z10sem_signalP3Sem
GAS LISTING /tmp/ccmVZyAk.s 			page 21


     /tmp/ccmVZyAk.s:572    .text:00000000000001e4 .L0 
     /tmp/ccmVZyAk.s:574    .text:00000000000001e4 .L0 
     /tmp/ccmVZyAk.s:575    .text:00000000000001e8 .L0 
     /tmp/ccmVZyAk.s:577    .text:00000000000001ec .L0 
     /tmp/ccmVZyAk.s:579    .text:00000000000001f0 .L0 
     /tmp/ccmVZyAk.s:582    .text:00000000000001f0 .L0 
     /tmp/ccmVZyAk.s:583    .text:00000000000001f0 .L0 
   src/syscall_c.cpp:171    .text:00000000000001f0 .L0 
     /tmp/ccmVZyAk.s:589    .text:00000000000001f4 .L0 
     /tmp/ccmVZyAk.s:591    .text:00000000000001f4 .L0 
     /tmp/ccmVZyAk.s:597    .text:00000000000001fc .L0 
   src/syscall_c.cpp:173    .text:00000000000001fc .L0 
     /tmp/ccmVZyAk.s:602    .text:0000000000000200 .L0 
     /tmp/ccmVZyAk.s:603    .text:0000000000000200 .L0 
   src/syscall_c.cpp:176    .text:0000000000000200 .L0 
     /tmp/ccmVZyAk.s:609    .text:0000000000000204 .L0 
     /tmp/ccmVZyAk.s:611    .text:0000000000000204 .L0 
     /tmp/ccmVZyAk.s:613    .text:000000000000020c .L0 
     /tmp/ccmVZyAk.s:614    .text:000000000000020c .L0 
     /tmp/ccmVZyAk.s:616    .text:0000000000000210 .L0 
     /tmp/ccmVZyAk.s:618    .text:0000000000000214 .L0 
     /tmp/ccmVZyAk.s:624    .text:0000000000000214 _Z4putcc
     /tmp/ccmVZyAk.s:627    .text:0000000000000214 .L0 
     /tmp/ccmVZyAk.s:629    .text:0000000000000214 .L0 
     /tmp/ccmVZyAk.s:630    .text:0000000000000218 .L0 
     /tmp/ccmVZyAk.s:633    .text:0000000000000220 .L0 
     /tmp/ccmVZyAk.s:634    .text:0000000000000220 .L0 
     /tmp/ccmVZyAk.s:636    .text:0000000000000224 .L0 
     /tmp/ccmVZyAk.s:638    .text:0000000000000224 .L0 
     /tmp/ccmVZyAk.s:639    .text:0000000000000224 .L0 
     /tmp/ccmVZyAk.s:642    .text:000000000000022c .L0 
     /tmp/ccmVZyAk.s:643    .text:0000000000000230 .L0 
     /tmp/ccmVZyAk.s:645    .text:0000000000000234 .L0 
     /tmp/ccmVZyAk.s:646    .text:0000000000000234 .L0 
     /tmp/ccmVZyAk.s:648    .text:0000000000000238 .L0 
     /tmp/ccmVZyAk.s:650    .text:000000000000023c .L0 
     /tmp/ccmVZyAk.s:656    .text:000000000000023c _Z4getcv
     /tmp/ccmVZyAk.s:659    .text:000000000000023c .L0 
     /tmp/ccmVZyAk.s:660    .text:000000000000023c .L0 
     /tmp/ccmVZyAk.s:661    .text:0000000000000240 .L0 
     /tmp/ccmVZyAk.s:664    .text:0000000000000248 .L0 
     /tmp/ccmVZyAk.s:665    .text:0000000000000248 .L0 
     /tmp/ccmVZyAk.s:667    .text:000000000000024c .L0 
     /tmp/ccmVZyAk.s:669    .text:000000000000024c .L0 
     /tmp/ccmVZyAk.s:670    .text:000000000000024c .L0 
     /tmp/ccmVZyAk.s:673    .text:0000000000000254 .L0 
     /tmp/ccmVZyAk.s:674    .text:0000000000000258 .L0 
     /tmp/ccmVZyAk.s:676    .text:000000000000025c .L0 
     /tmp/ccmVZyAk.s:677    .text:000000000000025c .L0 
     /tmp/ccmVZyAk.s:679    .text:0000000000000260 .L0 
     /tmp/ccmVZyAk.s:681    .text:0000000000000264 .L0 
     /tmp/ccmVZyAk.s:689    .text:0000000000000264 .L0 
     /tmp/ccmVZyAk.s:1648   .debug_abbrev:0000000000000000 .Ldebug_abbrev0
     /tmp/ccmVZyAk.s:2850   .debug_str:00000000000004d2 .LASF88
     /tmp/ccmVZyAk.s:2758   .debug_str:000000000000026f .LASF89
     /tmp/ccmVZyAk.s:2728   .debug_str:0000000000000140 .LASF90
     /tmp/ccmVZyAk.s:5      .text:0000000000000000 .Ltext0
GAS LISTING /tmp/ccmVZyAk.s 			page 22


     /tmp/ccmVZyAk.s:684    .text:0000000000000264 .Letext0
     /tmp/ccmVZyAk.s:2670   .debug_line:0000000000000000 .Ldebug_line0
     /tmp/ccmVZyAk.s:2790   .debug_str:0000000000000332 .LASF0
     /tmp/ccmVZyAk.s:2796   .debug_str:0000000000000352 .LASF1
     /tmp/ccmVZyAk.s:2780   .debug_str:00000000000002f5 .LASF2
     /tmp/ccmVZyAk.s:2752   .debug_str:0000000000000247 .LASF4
     /tmp/ccmVZyAk.s:2834   .debug_str:0000000000000478 .LASF3
     /tmp/ccmVZyAk.s:2692   .debug_str:0000000000000071 .LASF5
     /tmp/ccmVZyAk.s:2802   .debug_str:000000000000037d .LASF6
     /tmp/ccmVZyAk.s:2788   .debug_str:000000000000031f .LASF7
     /tmp/ccmVZyAk.s:2858   .debug_str:00000000000005c7 .LASF8
     /tmp/ccmVZyAk.s:2736   .debug_str:0000000000000196 .LASF9
     /tmp/ccmVZyAk.s:2816   .debug_str:00000000000003e2 .LASF10
     /tmp/ccmVZyAk.s:2852   .debug_str:0000000000000596 .LASF11
     /tmp/ccmVZyAk.s:2694   .debug_str:0000000000000078 .LASF12
     /tmp/ccmVZyAk.s:2676   .debug_str:000000000000000f .LASF13
     /tmp/ccmVZyAk.s:2700   .debug_str:000000000000009a .LASF14
     /tmp/ccmVZyAk.s:2828   .debug_str:0000000000000448 .LASF15
     /tmp/ccmVZyAk.s:2708   .debug_str:00000000000000c3 .LASF16
     /tmp/ccmVZyAk.s:2680   .debug_str:0000000000000024 .LASF91
     /tmp/ccmVZyAk.s:2712   .debug_str:00000000000000e7 .LASF17
     /tmp/ccmVZyAk.s:2822   .debug_str:000000000000040d .LASF19
     /tmp/ccmVZyAk.s:2804   .debug_str:0000000000000390 .LASF21
     /tmp/ccmVZyAk.s:2734   .debug_str:000000000000017f .LASF23
     /tmp/ccmVZyAk.s:2782   .debug_str:0000000000000303 .LASF18
     /tmp/ccmVZyAk.s:2748   .debug_str:0000000000000208 .LASF20
     /tmp/ccmVZyAk.s:2774   .debug_str:00000000000002cd .LASF22
     /tmp/ccmVZyAk.s:2690   .debug_str:0000000000000058 .LASF24
     /tmp/ccmVZyAk.s:2792   .debug_str:000000000000033f .LASF38
     /tmp/ccmVZyAk.s:2724   .debug_str:0000000000000128 .LASF40
     /tmp/ccmVZyAk.s:2764   .debug_str:000000000000028e .LASF25
     /tmp/ccmVZyAk.s:2730   .debug_str:000000000000015e .LASF26
     /tmp/ccmVZyAk.s:2786   .debug_str:0000000000000316 .LASF27
     /tmp/ccmVZyAk.s:2862   .debug_str:00000000000005e5 .LASF28
     /tmp/ccmVZyAk.s:2766   .debug_str:0000000000000297 .LASF29
     /tmp/ccmVZyAk.s:2874   .debug_str:000000000000062d .LASF30
     /tmp/ccmVZyAk.s:2824   .debug_str:0000000000000419 .LASF92
     /tmp/ccmVZyAk.s:2718   .debug_str:0000000000000104 .LASF93
     /tmp/ccmVZyAk.s:2740   .debug_str:00000000000001ba .LASF94
     /tmp/ccmVZyAk.s:2760   .debug_str:0000000000000281 .LASF31
     /tmp/ccmVZyAk.s:2702   .debug_str:00000000000000a6 .LASF32
     /tmp/ccmVZyAk.s:2762   .debug_str:0000000000000286 .LASF33
     /tmp/ccmVZyAk.s:2794   .debug_str:0000000000000348 .LASF34
     /tmp/ccmVZyAk.s:2688   .debug_str:0000000000000052 .LASF35
     /tmp/ccmVZyAk.s:2778   .debug_str:00000000000002ec .LASF36
     /tmp/ccmVZyAk.s:2776   .debug_str:00000000000002da .LASF37
     /tmp/ccmVZyAk.s:2770   .debug_str:00000000000002af .LASF95
     /tmp/ccmVZyAk.s:2742   .debug_str:00000000000001d2 .LASF96
     /tmp/ccmVZyAk.s:2860   .debug_str:00000000000005d7 .LASF97
     /tmp/ccmVZyAk.s:2750   .debug_str:000000000000021f .LASF98
     /tmp/ccmVZyAk.s:2868   .debug_str:000000000000060b .LASF39
     /tmp/ccmVZyAk.s:2738   .debug_str:00000000000001a4 .LASF41
     /tmp/ccmVZyAk.s:2846   .debug_str:00000000000004bd .LASF99
     /tmp/ccmVZyAk.s:2756   .debug_str:0000000000000256 .LASF100
     /tmp/ccmVZyAk.s:2836   .debug_str:000000000000048a .LASF101
     /tmp/ccmVZyAk.s:2768   .debug_str:00000000000002a4 .LASF42
     /tmp/ccmVZyAk.s:2744   .debug_str:00000000000001eb .LASF43
GAS LISTING /tmp/ccmVZyAk.s 			page 23


     /tmp/ccmVZyAk.s:2832   .debug_str:0000000000000472 .LASF48
     /tmp/ccmVZyAk.s:2866   .debug_str:0000000000000604 .LASF44
     /tmp/ccmVZyAk.s:2814   .debug_str:00000000000003dc .LASF45
     /tmp/ccmVZyAk.s:2754   .debug_str:000000000000024e .LASF46
     /tmp/ccmVZyAk.s:2840   .debug_str:00000000000004a5 .LASF47
     /tmp/ccmVZyAk.s:2726   .debug_str:000000000000013b .LASF49
     /tmp/ccmVZyAk.s:2672   .debug_str:0000000000000000 .LASF50
     /tmp/ccmVZyAk.s:2716   .debug_str:00000000000000fe .LASF51
     /tmp/ccmVZyAk.s:2678   .debug_str:000000000000001f .LASF55
     /tmp/ccmVZyAk.s:2686   .debug_str:0000000000000049 .LASF57
     /tmp/ccmVZyAk.s:657    .text:000000000000023c .LFB31
     /tmp/ccmVZyAk.s:682    .text:0000000000000264 .LFE31
     /tmp/ccmVZyAk.s:671    .text:0000000000000254 .LVL36
     /tmp/ccmVZyAk.s:2806   .debug_str:000000000000039b .LASF52
     /tmp/ccmVZyAk.s:2698   .debug_str:0000000000000095 .LASF53
     /tmp/ccmVZyAk.s:2848   .debug_str:00000000000004c9 .LASF54
     /tmp/ccmVZyAk.s:625    .text:0000000000000214 .LFB30
     /tmp/ccmVZyAk.s:651    .text:000000000000023c .LFE30
     /tmp/ccmVZyAk.s:2475   .debug_loc:0000000000000000 .LLST14
     /tmp/ccmVZyAk.s:640    .text:000000000000022c .LVL35
     /tmp/ccmVZyAk.s:2856   .debug_str:00000000000005bc .LASF56
     /tmp/ccmVZyAk.s:2830   .debug_str:000000000000045e .LASF58
     /tmp/ccmVZyAk.s:570    .text:00000000000001e4 .LFB29
     /tmp/ccmVZyAk.s:619    .text:0000000000000214 .LFE29
     /tmp/ccmVZyAk.s:2489   .debug_loc:0000000000000039 .LLST13
     /tmp/ccmVZyAk.s:2798   .debug_str:0000000000000365 .LASF59
     /tmp/ccmVZyAk.s:2704   .debug_str:00000000000000ac .LASF60
     /tmp/ccmVZyAk.s:2682   .debug_str:000000000000002c .LASF61
     /tmp/ccmVZyAk.s:515    .text:00000000000001b4 .LFB28
     /tmp/ccmVZyAk.s:564    .text:00000000000001e4 .LFE28
     /tmp/ccmVZyAk.s:2503   .debug_loc:0000000000000072 .LLST12
     /tmp/ccmVZyAk.s:2842   .debug_str:00000000000004ae .LASF62
     /tmp/ccmVZyAk.s:2714   .debug_str:00000000000000ec .LASF63
     /tmp/ccmVZyAk.s:460    .text:0000000000000184 .LFB27
     /tmp/ccmVZyAk.s:509    .text:00000000000001b4 .LFE27
     /tmp/ccmVZyAk.s:2784   .debug_str:000000000000030f .LASF64
     /tmp/ccmVZyAk.s:2517   .debug_loc:00000000000000ab .LLST11
     /tmp/ccmVZyAk.s:2722   .debug_str:000000000000011f .LASF65
     /tmp/ccmVZyAk.s:2720   .debug_str:000000000000010c .LASF66
     /tmp/ccmVZyAk.s:399    .text:0000000000000150 .LFB26
     /tmp/ccmVZyAk.s:454    .text:0000000000000184 .LFE26
     /tmp/ccmVZyAk.s:2531   .debug_loc:00000000000000e4 .LLST9
     /tmp/ccmVZyAk.s:2808   .debug_str:00000000000003a0 .LASF67
     /tmp/ccmVZyAk.s:2545   .debug_loc:000000000000011d .LLST10
     /tmp/ccmVZyAk.s:2696   .debug_str:0000000000000088 .LASF68
     /tmp/ccmVZyAk.s:2810   .debug_str:00000000000003a5 .LASF69
     /tmp/ccmVZyAk.s:344    .text:0000000000000120 .LFB25
     /tmp/ccmVZyAk.s:393    .text:0000000000000150 .LFE25
     /tmp/ccmVZyAk.s:2552   .debug_loc:0000000000000140 .LLST8
     /tmp/ccmVZyAk.s:2854   .debug_str:00000000000005a5 .LASF70
     /tmp/ccmVZyAk.s:2826   .debug_str:000000000000041e .LASF71
     /tmp/ccmVZyAk.s:273    .text:00000000000000e4 .LFB24
     /tmp/ccmVZyAk.s:338    .text:0000000000000120 .LFE24
     /tmp/ccmVZyAk.s:2566   .debug_loc:0000000000000179 .LLST6
     /tmp/ccmVZyAk.s:2732   .debug_str:0000000000000171 .LASF72
     /tmp/ccmVZyAk.s:2580   .debug_loc:00000000000001b2 .LLST7
     /tmp/ccmVZyAk.s:2772   .debug_str:00000000000002bd .LASF73
GAS LISTING /tmp/ccmVZyAk.s 			page 24


     /tmp/ccmVZyAk.s:2818   .debug_str:00000000000003f1 .LASF74
     /tmp/ccmVZyAk.s:235    .text:00000000000000c0 .LFB23
     /tmp/ccmVZyAk.s:267    .text:00000000000000e4 .LFE23
     /tmp/ccmVZyAk.s:2684   .debug_str:000000000000003d .LASF75
     /tmp/ccmVZyAk.s:2800   .debug_str:000000000000036c .LASF76
     /tmp/ccmVZyAk.s:188    .text:0000000000000094 .LFB22
     /tmp/ccmVZyAk.s:229    .text:00000000000000c0 .LFE22
     /tmp/ccmVZyAk.s:2710   .debug_str:00000000000000d9 .LASF77
     /tmp/ccmVZyAk.s:2812   .debug_str:00000000000003bb .LASF78
     /tmp/ccmVZyAk.s:122    .text:000000000000005c .LFB21
     /tmp/ccmVZyAk.s:182    .text:0000000000000094 .LFE21
     /tmp/ccmVZyAk.s:2587   .debug_loc:00000000000001d5 .LLST4
     /tmp/ccmVZyAk.s:2601   .debug_loc:000000000000020e .LLST5
     /tmp/ccmVZyAk.s:2872   .debug_str:0000000000000624 .LASF79
     /tmp/ccmVZyAk.s:2870   .debug_str:0000000000000616 .LASF80
     /tmp/ccmVZyAk.s:66     .text:000000000000002c .LFB20
     /tmp/ccmVZyAk.s:116    .text:000000000000005c .LFE20
     /tmp/ccmVZyAk.s:2746   .debug_str:00000000000001f6 .LASF81
     /tmp/ccmVZyAk.s:2608   .debug_loc:0000000000000231 .LLST2
     /tmp/ccmVZyAk.s:2622   .debug_loc:000000000000026a .LLST3
     /tmp/ccmVZyAk.s:2838   .debug_str:000000000000049b .LASF82
     /tmp/ccmVZyAk.s:2706   .debug_str:00000000000000b5 .LASF83
     /tmp/ccmVZyAk.s:10     .text:0000000000000000 .LFB19
     /tmp/ccmVZyAk.s:60     .text:000000000000002c .LFE19
     /tmp/ccmVZyAk.s:2844   .debug_str:00000000000004b8 .LASF84
     /tmp/ccmVZyAk.s:2629   .debug_loc:000000000000028d .LLST0
     /tmp/ccmVZyAk.s:2674   .debug_str:0000000000000009 .LASF85
     /tmp/ccmVZyAk.s:2643   .debug_loc:00000000000002c6 .LLST1
     /tmp/ccmVZyAk.s:2864   .debug_str:00000000000005fd .LASF86
     /tmp/ccmVZyAk.s:2820   .debug_str:0000000000000406 .LASF87
     /tmp/ccmVZyAk.s:628    .text:0000000000000214 .LVL34
     /tmp/ccmVZyAk.s:573    .text:00000000000001e4 .LVL31
     /tmp/ccmVZyAk.s:607    .text:0000000000000204 .LVL33
     /tmp/ccmVZyAk.s:518    .text:00000000000001b4 .LVL28
     /tmp/ccmVZyAk.s:552    .text:00000000000001d4 .LVL30
     /tmp/ccmVZyAk.s:463    .text:0000000000000184 .LVL25
     /tmp/ccmVZyAk.s:497    .text:00000000000001a4 .LVL27
     /tmp/ccmVZyAk.s:402    .text:0000000000000150 .LVL21
     /tmp/ccmVZyAk.s:441    .text:0000000000000174 .LVL23
     /tmp/ccmVZyAk.s:446    .text:0000000000000178 .LVL24
     /tmp/ccmVZyAk.s:347    .text:0000000000000120 .LVL18
     /tmp/ccmVZyAk.s:381    .text:0000000000000140 .LVL20
     /tmp/ccmVZyAk.s:276    .text:00000000000000e4 .LVL14
     /tmp/ccmVZyAk.s:325    .text:0000000000000110 .LVL16
     /tmp/ccmVZyAk.s:330    .text:0000000000000114 .LVL17
     /tmp/ccmVZyAk.s:125    .text:000000000000005c .LVL7
     /tmp/ccmVZyAk.s:169    .text:0000000000000084 .LVL9
     /tmp/ccmVZyAk.s:174    .text:0000000000000088 .LVL10
     /tmp/ccmVZyAk.s:69     .text:000000000000002c .LVL3
     /tmp/ccmVZyAk.s:103    .text:000000000000004c .LVL5
     /tmp/ccmVZyAk.s:108    .text:0000000000000050 .LVL6
     /tmp/ccmVZyAk.s:14     .text:0000000000000000 .LVL0
     /tmp/ccmVZyAk.s:49     .text:0000000000000020 .LVL2
     /tmp/ccmVZyAk.s:22     .text:000000000000000c .LVL1
     /tmp/ccmVZyAk.s:690    .debug_info:0000000000000000 .Ldebug_info0

UNDEFINED SYMBOLS
GAS LISTING /tmp/ccmVZyAk.s 			page 25


__putc
__getc
