GAS LISTING /tmp/cc1ezoBo.s 			page 1


   1              		.file	"tcb.cpp"
   2              		.option pic
   3              		.option norelax
   4              		.text
   5              	.Ltext0:
   6              		.align	2
   7              		.globl	_ZN3TCB12createThreadEPFvPvES0_S0_b
   9              	_ZN3TCB12createThreadEPFvPvES0_S0_b:
  10              	.LFB33:
  11              		.file 1 "src/tcb.cpp"
   1:src/tcb.cpp   **** //
   2:src/tcb.cpp   **** // Created by os on 2/11/23.
   3:src/tcb.cpp   **** //
   4:src/tcb.cpp   **** 
   5:src/tcb.cpp   **** #include "../h/tcb.hpp"
   6:src/tcb.cpp   **** #include "../h/riscv.hpp"
   7:src/tcb.cpp   **** #include "../h/print.hpp"
   8:src/tcb.cpp   **** 
   9:src/tcb.cpp   **** TCB *TCB::running = nullptr;
  10:src/tcb.cpp   **** 
  11:src/tcb.cpp   **** uint64 TCB::timeSliceCounter = 0;
  12:src/tcb.cpp   **** 
  13:src/tcb.cpp   **** //TCB* TCB::createThread(Body body)
  14:src/tcb.cpp   **** //{
  15:src/tcb.cpp   **** //    if (body == nullptr)
  16:src/tcb.cpp   **** //        printString("\n\t========== MAIN =============\n");
  17:src/tcb.cpp   **** //    else
  18:src/tcb.cpp   **** //        printString("\n\t########## NIJE MAIN =============\n");
  19:src/tcb.cpp   **** //
  20:src/tcb.cpp   **** //    return new TCB(body, TIME_SLICE);
  21:src/tcb.cpp   **** //}
  22:src/tcb.cpp   **** 
  23:src/tcb.cpp   **** TCB* TCB::createThread(Body body, void* arg, void* stack_space, bool start_immediately)
  24:src/tcb.cpp   **** {
  12              		.loc 1 24 1
  13              		.cfi_startproc
  14              		.cfi_personality 0x9b,DW.ref.__gxx_personality_v0
  15              		.cfi_lsda 0x1b,.LLSDA33
  16              	.LVL0:
  17 0000 130101FC 		addi	sp,sp,-64
  18              		.cfi_def_cfa_offset 64
  19 0004 233C1102 		sd	ra,56(sp)
  20 0008 23388102 		sd	s0,48(sp)
  21 000c 23349102 		sd	s1,40(sp)
  22 0010 23302103 		sd	s2,32(sp)
  23 0014 233C3101 		sd	s3,24(sp)
  24 0018 23384101 		sd	s4,16(sp)
  25 001c 23345101 		sd	s5,8(sp)
  26              		.cfi_offset 1, -8
  27              		.cfi_offset 8, -16
  28              		.cfi_offset 9, -24
  29              		.cfi_offset 18, -32
  30              		.cfi_offset 19, -40
  31              		.cfi_offset 20, -48
  32              		.cfi_offset 21, -56
  33 0020 13040104 		addi	s0,sp,64
  34              		.cfi_def_cfa 8, 0
GAS LISTING /tmp/cc1ezoBo.s 			page 2


  35 0024 93090500 		mv	s3,a0
  36 0028 938A0500 		mv	s5,a1
  37 002c 13090600 		mv	s2,a2
  38 0030 138A0600 		mv	s4,a3
  25:src/tcb.cpp   **** 
  26:src/tcb.cpp   ****     return new TCB(body, arg, stack_space, start_immediately);
  39              		.loc 1 26 5
  40              		.loc 1 26 61 is_stmt 0
  41 0034 13058003 		li	a0,56
  42              	.LVL1:
  43              	.LEHB0:
  44 0038 97000000 		call	_Znwm@plt
  44      E7800000 
  45              	.LVL2:
  46              	.LEHE0:
  47 0040 93040500 		mv	s1,a0
  48              	.LVL3:
  49              	.LBB9:
  50              	.LBB10:
  51              		.file 2 "src/../h/tcb.hpp"
   1:src/../h/tcb.hpp **** //
   2:src/../h/tcb.hpp **** // Created by os on 2/11/23.
   3:src/../h/tcb.hpp **** //
   4:src/../h/tcb.hpp **** 
   5:src/../h/tcb.hpp **** #ifndef PROJECT_BASE_TCB_HPP
   6:src/../h/tcb.hpp **** #define PROJECT_BASE_TCB_HPP
   7:src/../h/tcb.hpp **** 
   8:src/../h/tcb.hpp **** #include "../lib/hw.h"
   9:src/../h/tcb.hpp **** #include "scheduler.hpp"
  10:src/../h/tcb.hpp **** 
  11:src/../h/tcb.hpp **** // Thread Control Block
  12:src/../h/tcb.hpp **** class TCB {
  13:src/../h/tcb.hpp **** public:
  14:src/../h/tcb.hpp ****     ~TCB() { delete[] stack; }
  15:src/../h/tcb.hpp **** 
  16:src/../h/tcb.hpp ****     bool isFinished() const { return finished; }
  17:src/../h/tcb.hpp **** 
  18:src/../h/tcb.hpp ****     void setFinished(bool value) { finished = value; }
  19:src/../h/tcb.hpp **** 
  20:src/../h/tcb.hpp ****     uint64 getTimeSlice() const { return timeSlice; }
  21:src/../h/tcb.hpp **** 
  22:src/../h/tcb.hpp ****     using Body = void (*)(void*);
  23:src/../h/tcb.hpp **** 
  24:src/../h/tcb.hpp ****     // static TCB *createThread(Body body);
  25:src/../h/tcb.hpp ****     static TCB *createThread(Body body, void* arg, void* stack_space, bool start_immediately);
  26:src/../h/tcb.hpp **** 
  27:src/../h/tcb.hpp ****     static void yield();
  28:src/../h/tcb.hpp **** 
  29:src/../h/tcb.hpp ****     static TCB *running;
  30:src/../h/tcb.hpp **** 
  31:src/../h/tcb.hpp **** private:
  32:src/../h/tcb.hpp **** //    explicit TCB(Body body, uint64 timeSlice) :
  33:src/../h/tcb.hpp **** //            body(body),
  34:src/../h/tcb.hpp **** //            stack(body != nullptr ? new uint64[STACK_SIZE] : nullptr),
  35:src/../h/tcb.hpp **** //            context({(uint64)&threadWrapper,
  36:src/../h/tcb.hpp **** //                     stack != nullptr ? (uint64) &stack[STACK_SIZE] : 0
  37:src/../h/tcb.hpp **** //                    }),
GAS LISTING /tmp/cc1ezoBo.s 			page 3


  38:src/../h/tcb.hpp **** //            timeSlice(timeSlice),
  39:src/../h/tcb.hpp **** //            finished(false) {
  40:src/../h/tcb.hpp **** //        if (body != nullptr)
  41:src/../h/tcb.hpp **** //            Scheduler::put(this);
  42:src/../h/tcb.hpp **** //    }
  43:src/../h/tcb.hpp ****     explicit TCB(Body body, void* arg, void* stack_space, bool start_immediately) :
  44:src/../h/tcb.hpp ****             body(body),
  45:src/../h/tcb.hpp ****             arg(arg),
  46:src/../h/tcb.hpp ****             stack(body != nullptr ? (uint64*)stack_space : nullptr),
  47:src/../h/tcb.hpp ****             context({(uint64)&threadWrapper,
  48:src/../h/tcb.hpp ****                      stack != nullptr ? (uint64) &stack[DEFAULT_STACK_SIZE] : 0
  49:src/../h/tcb.hpp ****                     }),
  50:src/../h/tcb.hpp ****             timeSlice(DEFAULT_TIME_SLICE),
  51:src/../h/tcb.hpp ****             finished(false),
  52:src/../h/tcb.hpp ****             start_immediately(start_immediately){
  52              		.loc 2 52 48
  53 0044 23303501 		sd	s3,0(a0)
  54 0048 23345501 		sd	s5,8(a0)
  46:src/../h/tcb.hpp ****             context({(uint64)&threadWrapper,
  55              		.loc 2 46 35
  56 004c 63820906 		beqz	s3,.L10
  57              	.LVL4:
  58              	.L2:
  59              		.loc 2 52 48
  60 0050 23B82401 		sd	s2,16(s1)
  61 0054 97070000 		lla	a5,_ZN3TCB13threadWrapperEv
  61      93870700 
  62 005c 23BCF400 		sd	a5,24(s1)
  48:src/../h/tcb.hpp ****                     }),
  63              		.loc 2 48 39
  64 0060 630C0904 		beqz	s2,.L7
  48:src/../h/tcb.hpp ****                     }),
  65              		.loc 2 48 50
  66 0064 37860000 		li	a2,32768
  67 0068 3309C900 		add	s2,s2,a2
  68              	.L3:
  69              		.loc 2 52 48
  70 006c 23B02403 		sd	s2,32(s1)
  71 0070 93072000 		li	a5,2
  72 0074 23B4F402 		sd	a5,40(s1)
  73 0078 23880402 		sb	zero,48(s1)
  74 007c A3884403 		sb	s4,49(s1)
  53:src/../h/tcb.hpp ****         if (body != nullptr && start_immediately == true)
  75              		.loc 2 53 9 is_stmt 1
  76 0080 63840900 		beqz	s3,.L1
  77              		.loc 2 53 29 is_stmt 0
  78 0084 631E0A02 		bnez	s4,.L11
  79              	.L1:
  80              	.LBE10:
  81              	.LBE9:
  27:src/tcb.cpp   **** }
  82              		.loc 1 27 1
  83 0088 13850400 		mv	a0,s1
  84 008c 83308103 		ld	ra,56(sp)
  85              		.cfi_remember_state
  86              		.cfi_restore 1
  87 0090 03340103 		ld	s0,48(sp)
GAS LISTING /tmp/cc1ezoBo.s 			page 4


  88              		.cfi_restore 8
  89              		.cfi_def_cfa 2, 64
  90 0094 83348102 		ld	s1,40(sp)
  91              		.cfi_restore 9
  92              	.LVL5:
  93 0098 03390102 		ld	s2,32(sp)
  94              		.cfi_restore 18
  95 009c 83398101 		ld	s3,24(sp)
  96              		.cfi_restore 19
  97              	.LVL6:
  98 00a0 033A0101 		ld	s4,16(sp)
  99              		.cfi_restore 20
 100              	.LVL7:
 101 00a4 833A8100 		ld	s5,8(sp)
 102              		.cfi_restore 21
 103              	.LVL8:
 104 00a8 13010104 		addi	sp,sp,64
 105              		.cfi_def_cfa_offset 0
 106 00ac 67800000 		jr	ra
 107              	.LVL9:
 108              	.L10:
 109              		.cfi_restore_state
 110              	.LBB12:
 111              	.LBB11:
  46:src/../h/tcb.hpp ****             context({(uint64)&threadWrapper,
 112              		.loc 2 46 35
 113 00b0 13090000 		li	s2,0
 114              	.LVL10:
 115 00b4 6FF0DFF9 		j	.L2
 116              	.L7:
  48:src/../h/tcb.hpp ****                     }),
 117              		.loc 2 48 39
 118 00b8 13090000 		li	s2,0
 119 00bc 6FF01FFB 		j	.L3
 120              	.L11:
  54:src/../h/tcb.hpp ****             Scheduler::put(this);
 121              		.loc 2 54 13 is_stmt 1
 122              		.loc 2 54 27 is_stmt 0
 123 00c0 13850400 		mv	a0,s1
 124              	.LEHB1:
 125 00c4 97000000 		call	_ZN9Scheduler3putEP3TCB@plt
 125      E7800000 
 126              	.LVL11:
 127              	.LEHE1:
 128 00cc 6FF0DFFB 		j	.L1
 129              	.L8:
 130 00d0 13090500 		mv	s2,a0
 131              	.LBE11:
 132              	.LBE12:
  26:src/tcb.cpp   **** }
 133              		.loc 1 26 61
 134 00d4 13850400 		mv	a0,s1
 135 00d8 97000000 		call	_ZdlPv@plt
 135      E7800000 
 136              	.LVL12:
 137 00e0 13050900 		mv	a0,s2
 138              	.LEHB2:
GAS LISTING /tmp/cc1ezoBo.s 			page 5


 139 00e4 97000000 		call	_Unwind_Resume@plt
 139      E7800000 
 140              	.LVL13:
 141              	.LEHE2:
 142              		.cfi_endproc
 143              	.LFE33:
 144              		.globl	__gxx_personality_v0
 145              		.section	.gcc_except_table,"a",@progbits
 146              	.LLSDA33:
 147 0000 FF       		.byte	0xff
 148 0001 FF       		.byte	0xff
 149 0002 03       		.byte	0x3
 150 0003 27       		.byte	0x27
 151 0004 00000000 		.4byte	.LEHB0-.LFB33
 152 0008 00000000 		.4byte	.LEHE0-.LEHB0
 153 000c 00000000 		.4byte	0
 154 0010 00       		.byte	0
 155 0011 00000000 		.4byte	.LEHB1-.LFB33
 156 0015 00000000 		.4byte	.LEHE1-.LEHB1
 157 0019 00000000 		.4byte	.L8-.LFB33
 158 001d 00       		.byte	0
 159 001e 00000000 		.4byte	.LEHB2-.LFB33
 160 0022 00000000 		.4byte	.LEHE2-.LEHB2
 161 0026 00000000 		.4byte	0
 162 002a 00       		.byte	0
 163              		.text
 165              		.align	2
 166              		.globl	_ZN3TCB5yieldEv
 168              	_ZN3TCB5yieldEv:
 169              	.LFB34:
  28:src/tcb.cpp   **** 
  29:src/tcb.cpp   **** 
  30:src/tcb.cpp   **** void TCB::yield()
  31:src/tcb.cpp   **** {
 170              		.loc 1 31 1 is_stmt 1
 171              		.cfi_startproc
 172 00ec 130101FF 		addi	sp,sp,-16
 173              		.cfi_def_cfa_offset 16
 174 00f0 23348100 		sd	s0,8(sp)
 175              		.cfi_offset 8, -8
 176 00f4 13040101 		addi	s0,sp,16
 177              		.cfi_def_cfa 8, 0
  32:src/tcb.cpp   ****     __asm__ volatile("ecall");
 178              		.loc 1 32 5
 179              		.loc 1 32 30 is_stmt 0
 180              	#APP
 181              	# 32 "src/tcb.cpp" 1
  33              	}
 182              		ecall
 183              	# 0 "" 2
 184              		.loc 1 33 1
 185              	#NO_APP
 186 00fc 03348100 		ld	s0,8(sp)
 187              		.cfi_restore 8
 188              		.cfi_def_cfa 2, 16
 189 0100 13010101 		addi	sp,sp,16
 190              		.cfi_def_cfa_offset 0
GAS LISTING /tmp/cc1ezoBo.s 			page 6


 191 0104 67800000 		jr	ra
 192              		.cfi_endproc
 193              	.LFE34:
 195              		.section	.rodata.str1.8,"aMS",@progbits,1
 196              		.align	3
 197              	.LC0:
 198 0000 0A095772 		.string	"\n\tWrapper\n"
 198      61707065 
 198      720A00
 199              		.text
 200              		.align	2
 201              		.globl	_ZN3TCB13threadWrapperEv
 203              	_ZN3TCB13threadWrapperEv:
 204              	.LFB36:
  34:src/tcb.cpp   **** 
  35:src/tcb.cpp   **** void TCB::dispatch()
  36:src/tcb.cpp   **** {
  37:src/tcb.cpp   ****     printString("\n\t--- DISPECTH \n");
  38:src/tcb.cpp   ****     TCB *old = running;
  39:src/tcb.cpp   **** 
  40:src/tcb.cpp   ****     if (!old->isFinished())
  41:src/tcb.cpp   ****         Scheduler::put(old);
  42:src/tcb.cpp   **** 
  43:src/tcb.cpp   ****     running = Scheduler::get();
  44:src/tcb.cpp   **** 
  45:src/tcb.cpp   ****     TCB::contextSwitch(&old->context, &running->context);
  46:src/tcb.cpp   **** }
  47:src/tcb.cpp   **** 
  48:src/tcb.cpp   **** void TCB::threadWrapper()
  49:src/tcb.cpp   **** {
 205              		.loc 1 49 1 is_stmt 1
 206              		.cfi_startproc
 207 0108 130101FE 		addi	sp,sp,-32
 208              		.cfi_def_cfa_offset 32
 209 010c 233C1100 		sd	ra,24(sp)
 210 0110 23388100 		sd	s0,16(sp)
 211 0114 23349100 		sd	s1,8(sp)
 212              		.cfi_offset 1, -8
 213              		.cfi_offset 8, -16
 214              		.cfi_offset 9, -24
 215 0118 13040102 		addi	s0,sp,32
 216              		.cfi_def_cfa 8, 0
  50:src/tcb.cpp   ****     printString("\n\tWrapper\n");
 217              		.loc 1 50 5
 218              		.loc 1 50 16 is_stmt 0
 219 011c 17050000 		lla	a0,.LC0
 219      13050500 
 220 0124 97000000 		call	_Z11printStringPKc@plt
 220      E7800000 
 221              	.LVL14:
  51:src/tcb.cpp   **** 
  52:src/tcb.cpp   ****     Riscv::popSppSpie();
 222              		.loc 1 52 5 is_stmt 1
 223              		.loc 1 52 22 is_stmt 0
 224 012c 97000000 		call	_ZN5Riscv10popSppSpieEv@plt
 224      E7800000 
 225              	.LVL15:
GAS LISTING /tmp/cc1ezoBo.s 			page 7


  53:src/tcb.cpp   ****     running->body(running->arg);
 226              		.loc 1 53 5 is_stmt 1
 227              		.loc 1 53 14 is_stmt 0
 228 0134 97040000 		lla	s1,.LANCHOR0
 228      93840400 
 229 013c 83B70400 		ld	a5,0(s1)
 230 0140 03B70700 		ld	a4,0(a5)
 231              		.loc 1 53 18
 232 0144 03B58700 		ld	a0,8(a5)
 233 0148 E7000700 		jalr	a4
 234              	.LVL16:
  54:src/tcb.cpp   ****     running->setFinished(true);
 235              		.loc 1 54 5 is_stmt 1
 236              		.loc 1 54 25 is_stmt 0
 237 014c 83B70400 		ld	a5,0(s1)
 238              	.LVL17:
 239              	.LBB13:
 240              	.LBB14:
  18:src/../h/tcb.hpp **** 
 241              		.loc 2 18 36 is_stmt 1
  18:src/../h/tcb.hpp **** 
 242              		.loc 2 18 45 is_stmt 0
 243 0150 13071000 		li	a4,1
 244 0154 2388E702 		sb	a4,48(a5)
 245              	.LVL18:
 246              	.LBE14:
 247              	.LBE13:
  55:src/tcb.cpp   ****     TCB::yield();
 248              		.loc 1 55 5 is_stmt 1
 249              		.loc 1 55 15 is_stmt 0
 250 0158 97000000 		call	_ZN3TCB5yieldEv
 250      E7800000 
 251              	.LVL19:
  56:src/tcb.cpp   **** }...
 252              		.loc 1 56 1
 253 0160 83308101 		ld	ra,24(sp)
 254              		.cfi_restore 1
 255 0164 03340101 		ld	s0,16(sp)
 256              		.cfi_restore 8
 257              		.cfi_def_cfa 2, 32
 258 0168 83348100 		ld	s1,8(sp)
 259              		.cfi_restore 9
 260 016c 13010102 		addi	sp,sp,32
 261              		.cfi_def_cfa_offset 0
 262 0170 67800000 		jr	ra
 263              		.cfi_endproc
 264              	.LFE36:
 266              		.section	.rodata.str1.8
 267 000b 00000000 		.align	3
 267      00
 268              	.LC1:
 269 0010 0A092D2D 		.string	"\n\t--- DISPECTH \n"
 269      2D204449 
 269      53504543 
 269      5448200A 
 269      00
 270              		.text
GAS LISTING /tmp/cc1ezoBo.s 			page 8


 271              		.align	2
 272              		.globl	_ZN3TCB8dispatchEv
 274              	_ZN3TCB8dispatchEv:
 275              	.LFB35:
  36:src/tcb.cpp   **** {
 276              		.loc 1 36 1 is_stmt 1
 277              		.cfi_startproc
 278 0174 130101FE 		addi	sp,sp,-32
 279              		.cfi_def_cfa_offset 32
 280 0178 233C1100 		sd	ra,24(sp)
 281 017c 23388100 		sd	s0,16(sp)
 282 0180 23349100 		sd	s1,8(sp)
 283              		.cfi_offset 1, -8
 284              		.cfi_offset 8, -16
 285              		.cfi_offset 9, -24
 286 0184 13040102 		addi	s0,sp,32
 287              		.cfi_def_cfa 8, 0
  37:src/tcb.cpp   ****     printString("\n\t--- DISPECTH \n");
 288              		.loc 1 37 5
  37:src/tcb.cpp   ****     printString("\n\t--- DISPECTH \n");
 289              		.loc 1 37 16 is_stmt 0
 290 0188 17050000 		lla	a0,.LC1
 290      13050500 
 291 0190 97000000 		call	_Z11printStringPKc@plt
 291      E7800000 
 292              	.LVL20:
  38:src/tcb.cpp   ****     TCB *old = running;
 293              		.loc 1 38 5 is_stmt 1
  38:src/tcb.cpp   ****     TCB *old = running;
 294              		.loc 1 38 10 is_stmt 0
 295 0198 97040000 		ld	s1,.LANCHOR0
 295      83B40400 
 296              	.LVL21:
  40:src/tcb.cpp   ****     if (!old->isFinished())
 297              		.loc 1 40 5 is_stmt 1
 298              	.LBB15:
 299              	.LBB16:
  16:src/../h/tcb.hpp **** 
 300              		.loc 2 16 31
  16:src/../h/tcb.hpp **** 
 301              		.loc 2 16 38 is_stmt 0
 302 01a0 83C70403 		lbu	a5,48(s1)
 303              	.LVL22:
 304              	.LBE16:
 305              	.LBE15:
  40:src/tcb.cpp   ****     if (!old->isFinished())
 306              		.loc 1 40 5
 307 01a4 638C0702 		beqz	a5,.L19
 308              	.L17:
  43:src/tcb.cpp   ****     running = Scheduler::get();
 309              		.loc 1 43 5 is_stmt 1
  43:src/tcb.cpp   ****     running = Scheduler::get();
 310              		.loc 1 43 29 is_stmt 0
 311 01a8 97000000 		call	_ZN9Scheduler3getEv@plt
 311      E7800000 
 312              	.LVL23:
  43:src/tcb.cpp   ****     running = Scheduler::get();
GAS LISTING /tmp/cc1ezoBo.s 			page 9


 313              		.loc 1 43 13
 314 01b0 97070000 		sd	a0,.LANCHOR0,a5
 314      23B0A700 
  45:src/tcb.cpp   ****     TCB::contextSwitch(&old->context, &running->context);
 315              		.loc 1 45 5 is_stmt 1
  45:src/tcb.cpp   ****     TCB::contextSwitch(&old->context, &running->context);
 316              		.loc 1 45 23 is_stmt 0
 317 01b8 93058501 		addi	a1,a0,24
 318 01bc 13858401 		addi	a0,s1,24
 319 01c0 97000000 		call	_ZN3TCB13contextSwitchEPNS_7ContextES1_@plt
 319      E7800000 
 320              	.LVL24:
  46:src/tcb.cpp   **** }
 321              		.loc 1 46 1
 322 01c8 83308101 		ld	ra,24(sp)
 323              		.cfi_remember_state
 324              		.cfi_restore 1
 325 01cc 03340101 		ld	s0,16(sp)
 326              		.cfi_restore 8
 327              		.cfi_def_cfa 2, 32
 328 01d0 83348100 		ld	s1,8(sp)
 329              		.cfi_restore 9
 330              	.LVL25:
 331 01d4 13010102 		addi	sp,sp,32
 332              		.cfi_def_cfa_offset 0
 333 01d8 67800000 		jr	ra
 334              	.LVL26:
 335              	.L19:
 336              		.cfi_restore_state
  41:src/tcb.cpp   ****         Scheduler::put(old);
 337              		.loc 1 41 9 is_stmt 1
  41:src/tcb.cpp   ****         Scheduler::put(old);
 338              		.loc 1 41 23 is_stmt 0
 339 01dc 13850400 		mv	a0,s1
 340 01e0 97000000 		call	_ZN9Scheduler3putEP3TCB@plt
 340      E7800000 
 341              	.LVL27:
 342 01e8 6FF01FFC 		j	.L17
 343              		.cfi_endproc
 344              	.LFE35:
 346              		.globl	_ZN3TCB16timeSliceCounterE
 347              		.globl	_ZN3TCB7runningE
 348              		.bss
 349              		.align	3
 350              		.set	.LANCHOR0,. + 0
 353              	_ZN3TCB7runningE:
 354 0000 00000000 		.zero	8
 354      00000000 
 357              	_ZN3TCB16timeSliceCounterE:
 358 0008 00000000 		.zero	8
 358      00000000 
 359              		.text
 360              	.Letext0:
 361              		.file 3 "src/../h/../lib/hw.h"
 362              		.file 4 "src/../h/scheduler.hpp"
 363              		.file 5 "src/../h/riscv.hpp"
 364              		.file 6 "src/../h/print.hpp"
GAS LISTING /tmp/cc1ezoBo.s 			page 10


 2723              		.align	3
 2726              	DW.ref.__gxx_personality_v0:
 2727 0000 00000000 		.dword	__gxx_personality_v0
 2727      00000000 
 2728              		.ident	"GCC: (Ubuntu 9.4.0-1ubuntu1~20.04) 9.4.0"
 2729              		.section	.note.GNU-stack,"",@progbits
GAS LISTING /tmp/cc1ezoBo.s 			page 11

