GAS LISTING /tmp/ccVuOBMG.s 			page 1


   1              		.file	"tcb.cpp"
   2              		.option pic
   3              		.option norelax
   4              		.text
   5              	.Ltext0:
   6              		.align	2
   7              		.globl	_ZN3TCB12createThreadEPFvPvES0_S0_b
   9              	_ZN3TCB12createThreadEPFvPvES0_S0_b:
  10              	.LFB33:
  11              		.file 1 "src/tcb.cpp"
   1:src/tcb.cpp   **** //
   2:src/tcb.cpp   **** // Created by os on 2/11/23.
   3:src/tcb.cpp   **** //
   4:src/tcb.cpp   **** 
   5:src/tcb.cpp   **** #include "../h/tcb.hpp"
   6:src/tcb.cpp   **** #include "../h/riscv.hpp"
   7:src/tcb.cpp   **** #include "../h/print.hpp"
   8:src/tcb.cpp   **** 
   9:src/tcb.cpp   **** TCB *TCB::running = nullptr;
  10:src/tcb.cpp   **** 
  11:src/tcb.cpp   **** uint64 TCB::timeSliceCounter = 0;
  12:src/tcb.cpp   **** 
  13:src/tcb.cpp   **** //TCB* TCB::createThread(Body body)
  14:src/tcb.cpp   **** //{
  15:src/tcb.cpp   **** //    if (body == nullptr)
  16:src/tcb.cpp   **** //        printString("\n\t========== MAIN =============\n");
  17:src/tcb.cpp   **** //    else
  18:src/tcb.cpp   **** //        printString("\n\t########## NIJE MAIN =============\n");
  19:src/tcb.cpp   **** //
  20:src/tcb.cpp   **** //    return new TCB(body, TIME_SLICE);
  21:src/tcb.cpp   **** //}
  22:src/tcb.cpp   **** 
  23:src/tcb.cpp   **** TCB* TCB::createThread(Body body, void* arg, void* stack_space, bool start_immediately)
  24:src/tcb.cpp   **** {
  12              		.loc 1 24 1
  13              		.cfi_startproc
  14              		.cfi_personality 0x9b,DW.ref.__gxx_personality_v0
  15              		.cfi_lsda 0x1b,.LLSDA33
  16              	.LVL0:
  17 0000 130101FC 		addi	sp,sp,-64
  18              		.cfi_def_cfa_offset 64
  19 0004 233C1102 		sd	ra,56(sp)
  20 0008 23388102 		sd	s0,48(sp)
  21 000c 23349102 		sd	s1,40(sp)
  22 0010 23302103 		sd	s2,32(sp)
  23 0014 233C3101 		sd	s3,24(sp)
  24 0018 23384101 		sd	s4,16(sp)
  25 001c 23345101 		sd	s5,8(sp)
  26              		.cfi_offset 1, -8
  27              		.cfi_offset 8, -16
  28              		.cfi_offset 9, -24
  29              		.cfi_offset 18, -32
  30              		.cfi_offset 19, -40
  31              		.cfi_offset 20, -48
  32              		.cfi_offset 21, -56
  33 0020 13040104 		addi	s0,sp,64
  34              		.cfi_def_cfa 8, 0
GAS LISTING /tmp/ccVuOBMG.s 			page 2


  35 0024 93090500 		mv	s3,a0
  36 0028 938A0500 		mv	s5,a1
  37 002c 13090600 		mv	s2,a2
  38 0030 138A0600 		mv	s4,a3
  25:src/tcb.cpp   **** 
  26:src/tcb.cpp   ****     return new TCB(body, arg, stack_space, start_immediately);
  39              		.loc 1 26 5
  40              		.loc 1 26 61 is_stmt 0
  41 0034 13058003 		li	a0,56
  42              	.LVL1:
  43              	.LEHB0:
  44 0038 97000000 		call	_Znwm@plt
  44      E7800000 
  45              	.LVL2:
  46              	.LEHE0:
  47 0040 93040500 		mv	s1,a0
  48              	.LVL3:
  49              	.LBB9:
  50              	.LBB10:
  51              		.file 2 "src/../h/tcb.hpp"
   1:src/../h/tcb.hpp **** //
   2:src/../h/tcb.hpp **** // Created by os on 2/11/23.
   3:src/../h/tcb.hpp **** //
   4:src/../h/tcb.hpp **** 
   5:src/../h/tcb.hpp **** #ifndef PROJECT_BASE_TCB_HPP
   6:src/../h/tcb.hpp **** #define PROJECT_BASE_TCB_HPP
   7:src/../h/tcb.hpp **** 
   8:src/../h/tcb.hpp **** #include "../lib/hw.h"
   9:src/../h/tcb.hpp **** #include "scheduler.hpp"
  10:src/../h/tcb.hpp **** 
  11:src/../h/tcb.hpp **** // Thread Control Block
  12:src/../h/tcb.hpp **** class TCB {
  13:src/../h/tcb.hpp **** public:
  14:src/../h/tcb.hpp ****     ~TCB() { delete[] stack; }
  15:src/../h/tcb.hpp **** 
  16:src/../h/tcb.hpp ****     bool isFinished() const { return finished; }
  17:src/../h/tcb.hpp **** 
  18:src/../h/tcb.hpp ****     void setFinished(bool value) { finished = value; }
  19:src/../h/tcb.hpp **** 
  20:src/../h/tcb.hpp ****     uint64 getTimeSlice() const { return timeSlice; }
  21:src/../h/tcb.hpp **** 
  22:src/../h/tcb.hpp ****     using Body = void (*)(void*);
  23:src/../h/tcb.hpp **** 
  24:src/../h/tcb.hpp ****     // static TCB *createThread(Body body);
  25:src/../h/tcb.hpp ****     static TCB *createThread(Body body, void* arg, void* stack_space, bool start_immediately);
  26:src/../h/tcb.hpp **** 
  27:src/../h/tcb.hpp ****     static void yield();
  28:src/../h/tcb.hpp **** 
  29:src/../h/tcb.hpp ****     static TCB *running;
  30:src/../h/tcb.hpp **** 
  31:src/../h/tcb.hpp **** private:
  32:src/../h/tcb.hpp **** //    explicit TCB(Body body, uint64 timeSlice) :
  33:src/../h/tcb.hpp **** //            body(body),
  34:src/../h/tcb.hpp **** //            stack(body != nullptr ? new uint64[STACK_SIZE] : nullptr),
  35:src/../h/tcb.hpp **** //            context({(uint64)&threadWrapper,
  36:src/../h/tcb.hpp **** //                     stack != nullptr ? (uint64) &stack[STACK_SIZE] : 0
  37:src/../h/tcb.hpp **** //                    }),
GAS LISTING /tmp/ccVuOBMG.s 			page 3


  38:src/../h/tcb.hpp **** //            timeSlice(timeSlice),
  39:src/../h/tcb.hpp **** //            finished(false) {
  40:src/../h/tcb.hpp **** //        if (body != nullptr)
  41:src/../h/tcb.hpp **** //            Scheduler::put(this);
  42:src/../h/tcb.hpp **** //    }
  43:src/../h/tcb.hpp ****     explicit TCB(Body body, void* arg, void* stack_space, bool start_immediately) :
  44:src/../h/tcb.hpp ****             body(body),
  45:src/../h/tcb.hpp ****             arg(arg),
  46:src/../h/tcb.hpp ****             stack(body != nullptr ? (uint64*)stack_space : nullptr),
  47:src/../h/tcb.hpp ****             context({(uint64)&threadWrapper,
  48:src/../h/tcb.hpp ****                      stack != nullptr ? (uint64) &stack[DEFAULT_STACK_SIZE] : 0
  49:src/../h/tcb.hpp ****                     }),
  50:src/../h/tcb.hpp ****             timeSlice(DEFAULT_TIME_SLICE),
  51:src/../h/tcb.hpp ****             finished(false),
  52:src/../h/tcb.hpp ****             start_immediately(start_immediately){
  52              		.loc 2 52 48
  53 0044 23303501 		sd	s3,0(a0)
  54 0048 23345501 		sd	s5,8(a0)
  46:src/../h/tcb.hpp ****             context({(uint64)&threadWrapper,
  55              		.loc 2 46 35
  56 004c 63820906 		beqz	s3,.L10
  57              	.LVL4:
  58              	.L2:
  59              		.loc 2 52 48
  60 0050 23B82401 		sd	s2,16(s1)
  61 0054 97070000 		lla	a5,_ZN3TCB13threadWrapperEv
  61      93870700 
  62 005c 23BCF400 		sd	a5,24(s1)
  48:src/../h/tcb.hpp ****                     }),
  63              		.loc 2 48 39
  64 0060 630C0904 		beqz	s2,.L7
  48:src/../h/tcb.hpp ****                     }),
  65              		.loc 2 48 50
  66 0064 37860000 		li	a2,32768
  67 0068 3309C900 		add	s2,s2,a2
  68              	.L3:
  69              		.loc 2 52 48
  70 006c 23B02403 		sd	s2,32(s1)
  71 0070 93072000 		li	a5,2
  72 0074 23B4F402 		sd	a5,40(s1)
  73 0078 23880402 		sb	zero,48(s1)
  74 007c A3884403 		sb	s4,49(s1)
  53:src/../h/tcb.hpp ****         if (body != nullptr && start_immediately == true)
  75              		.loc 2 53 9 is_stmt 1
  76 0080 63840900 		beqz	s3,.L1
  77              		.loc 2 53 29 is_stmt 0
  78 0084 631E0A02 		bnez	s4,.L11
  79              	.L1:
  80              	.LBE10:
  81              	.LBE9:
  27:src/tcb.cpp   **** }
  82              		.loc 1 27 1
  83 0088 13850400 		mv	a0,s1
  84 008c 83308103 		ld	ra,56(sp)
  85              		.cfi_remember_state
  86              		.cfi_restore 1
  87 0090 03340103 		ld	s0,48(sp)
GAS LISTING /tmp/ccVuOBMG.s 			page 4


  88              		.cfi_restore 8
  89              		.cfi_def_cfa 2, 64
  90 0094 83348102 		ld	s1,40(sp)
  91              		.cfi_restore 9
  92              	.LVL5:
  93 0098 03390102 		ld	s2,32(sp)
  94              		.cfi_restore 18
  95 009c 83398101 		ld	s3,24(sp)
  96              		.cfi_restore 19
  97              	.LVL6:
  98 00a0 033A0101 		ld	s4,16(sp)
  99              		.cfi_restore 20
 100              	.LVL7:
 101 00a4 833A8100 		ld	s5,8(sp)
 102              		.cfi_restore 21
 103              	.LVL8:
 104 00a8 13010104 		addi	sp,sp,64
 105              		.cfi_def_cfa_offset 0
 106 00ac 67800000 		jr	ra
 107              	.LVL9:
 108              	.L10:
 109              		.cfi_restore_state
 110              	.LBB12:
 111              	.LBB11:
  46:src/../h/tcb.hpp ****             context({(uint64)&threadWrapper,
 112              		.loc 2 46 35
 113 00b0 13090000 		li	s2,0
 114              	.LVL10:
 115 00b4 6FF0DFF9 		j	.L2
 116              	.L7:
  48:src/../h/tcb.hpp ****                     }),
 117              		.loc 2 48 39
 118 00b8 13090000 		li	s2,0
 119 00bc 6FF01FFB 		j	.L3
 120              	.L11:
  54:src/../h/tcb.hpp ****             Scheduler::put(this);
 121              		.loc 2 54 13 is_stmt 1
 122              		.loc 2 54 27 is_stmt 0
 123 00c0 13850400 		mv	a0,s1
 124              	.LEHB1:
 125 00c4 97000000 		call	_ZN9Scheduler3putEP3TCB@plt
 125      E7800000 
 126              	.LVL11:
 127              	.LEHE1:
 128 00cc 6FF0DFFB 		j	.L1
 129              	.L8:
 130 00d0 13090500 		mv	s2,a0
 131              	.LBE11:
 132              	.LBE12:
  26:src/tcb.cpp   **** }
 133              		.loc 1 26 61
 134 00d4 13850400 		mv	a0,s1
 135 00d8 97000000 		call	_ZdlPv@plt
 135      E7800000 
 136              	.LVL12:
 137 00e0 13050900 		mv	a0,s2
 138              	.LEHB2:
GAS LISTING /tmp/ccVuOBMG.s 			page 5


 139 00e4 97000000 		call	_Unwind_Resume@plt
 139      E7800000 
 140              	.LVL13:
 141              	.LEHE2:
 142              		.cfi_endproc
 143              	.LFE33:
 144              		.globl	__gxx_personality_v0
 145              		.section	.gcc_except_table,"a",@progbits
 146              	.LLSDA33:
 147 0000 FF       		.byte	0xff
 148 0001 FF       		.byte	0xff
 149 0002 03       		.byte	0x3
 150 0003 27       		.byte	0x27
 151 0004 00000000 		.4byte	.LEHB0-.LFB33
 152 0008 00000000 		.4byte	.LEHE0-.LEHB0
 153 000c 00000000 		.4byte	0
 154 0010 00       		.byte	0
 155 0011 00000000 		.4byte	.LEHB1-.LFB33
 156 0015 00000000 		.4byte	.LEHE1-.LEHB1
 157 0019 00000000 		.4byte	.L8-.LFB33
 158 001d 00       		.byte	0
 159 001e 00000000 		.4byte	.LEHB2-.LFB33
 160 0022 00000000 		.4byte	.LEHE2-.LEHB2
 161 0026 00000000 		.4byte	0
 162 002a 00       		.byte	0
 163              		.text
 165              		.section	.rodata.str1.8,"aMS",@progbits,1
 166              		.align	3
 167              	.LC0:
 168 0000 0A092D2D 		.string	"\n\t--- YIELD \n"
 168      2D205949 
 168      454C4420 
 168      0A00
 169              		.text
 170              		.align	2
 171              		.globl	_ZN3TCB5yieldEv
 173              	_ZN3TCB5yieldEv:
 174              	.LFB34:
  28:src/tcb.cpp   **** 
  29:src/tcb.cpp   **** 
  30:src/tcb.cpp   **** void TCB::yield()
  31:src/tcb.cpp   **** {
 175              		.loc 1 31 1 is_stmt 1
 176              		.cfi_startproc
 177 00ec 130101FF 		addi	sp,sp,-16
 178              		.cfi_def_cfa_offset 16
 179 00f0 23341100 		sd	ra,8(sp)
 180 00f4 23308100 		sd	s0,0(sp)
 181              		.cfi_offset 1, -8
 182              		.cfi_offset 8, -16
 183 00f8 13040101 		addi	s0,sp,16
 184              		.cfi_def_cfa 8, 0
  32:src/tcb.cpp   ****     printString("\n\t--- YIELD \n");
 185              		.loc 1 32 5
 186              		.loc 1 32 16 is_stmt 0
 187 00fc 17050000 		lla	a0,.LC0
 187      13050500 
GAS LISTING /tmp/ccVuOBMG.s 			page 6


 188 0104 97000000 		call	_Z11printStringPKc@plt
 188      E7800000 
 189              	.LVL14:
  33:src/tcb.cpp   ****     __asm__ volatile("ecall");
 190              		.loc 1 33 5 is_stmt 1
 191              		.loc 1 33 30 is_stmt 0
 192              	#APP
 193              	# 33 "src/tcb.cpp" 1
  34              	}
 194              		ecall
 195              	# 0 "" 2
 196              		.loc 1 34 1
 197              	#NO_APP
 198 0110 83308100 		ld	ra,8(sp)
 199              		.cfi_restore 1
 200 0114 03340100 		ld	s0,0(sp)
 201              		.cfi_restore 8
 202              		.cfi_def_cfa 2, 16
 203 0118 13010101 		addi	sp,sp,16
 204              		.cfi_def_cfa_offset 0
 205 011c 67800000 		jr	ra
 206              		.cfi_endproc
 207              	.LFE34:
 209              		.section	.rodata.str1.8
 210 000e 0000     		.align	3
 211              	.LC1:
 212 0010 0A092D2D 		.string	"\n\t--- DISPECTH \n"
 212      2D204449 
 212      53504543 
 212      5448200A 
 212      00
 213              		.text
 214              		.align	2
 215              		.globl	_ZN3TCB8dispatchEv
 217              	_ZN3TCB8dispatchEv:
 218              	.LFB35:
  35:src/tcb.cpp   **** 
  36:src/tcb.cpp   **** void TCB::dispatch()
  37:src/tcb.cpp   **** {
 219              		.loc 1 37 1 is_stmt 1
 220              		.cfi_startproc
 221 0120 130101FE 		addi	sp,sp,-32
 222              		.cfi_def_cfa_offset 32
 223 0124 233C1100 		sd	ra,24(sp)
 224 0128 23388100 		sd	s0,16(sp)
 225 012c 23349100 		sd	s1,8(sp)
 226              		.cfi_offset 1, -8
 227              		.cfi_offset 8, -16
 228              		.cfi_offset 9, -24
 229 0130 13040102 		addi	s0,sp,32
 230              		.cfi_def_cfa 8, 0
  38:src/tcb.cpp   ****     printString("\n\t--- DISPECTH \n");
 231              		.loc 1 38 5
 232              		.loc 1 38 16 is_stmt 0
 233 0134 17050000 		lla	a0,.LC1
 233      13050500 
 234 013c 97000000 		call	_Z11printStringPKc@plt
GAS LISTING /tmp/ccVuOBMG.s 			page 7


 234      E7800000 
 235              	.LVL15:
  39:src/tcb.cpp   ****     TCB *old = running;
 236              		.loc 1 39 5 is_stmt 1
 237              		.loc 1 39 10 is_stmt 0
 238 0144 97040000 		ld	s1,.LANCHOR0
 238      83B40400 
 239              	.LVL16:
  40:src/tcb.cpp   **** 
  41:src/tcb.cpp   ****     if (!old->isFinished())
 240              		.loc 1 41 5 is_stmt 1
 241              	.LBB13:
 242              	.LBB14:
  16:src/../h/tcb.hpp **** 
 243              		.loc 2 16 31
  16:src/../h/tcb.hpp **** 
 244              		.loc 2 16 38 is_stmt 0
 245 014c 83C70403 		lbu	a5,48(s1)
 246              	.LVL17:
 247              	.LBE14:
 248              	.LBE13:
 249              		.loc 1 41 5
 250 0150 638C0702 		beqz	a5,.L17
 251              	.L15:
  42:src/tcb.cpp   ****         Scheduler::put(old);
  43:src/tcb.cpp   **** 
  44:src/tcb.cpp   ****     running = Scheduler::get();
 252              		.loc 1 44 5 is_stmt 1
 253              		.loc 1 44 29 is_stmt 0
 254 0154 97000000 		call	_ZN9Scheduler3getEv@plt
 254      E7800000 
 255              	.LVL18:
 256              		.loc 1 44 13
 257 015c 97070000 		sd	a0,.LANCHOR0,a5
 257      23B0A700 
  45:src/tcb.cpp   **** 
  46:src/tcb.cpp   ****     TCB::contextSwitch(&old->context, &running->context);
 258              		.loc 1 46 5 is_stmt 1
 259              		.loc 1 46 23 is_stmt 0
 260 0164 93058501 		addi	a1,a0,24
 261 0168 13858401 		addi	a0,s1,24
 262 016c 97000000 		call	_ZN3TCB13contextSwitchEPNS_7ContextES1_@plt
 262      E7800000 
 263              	.LVL19:
  47:src/tcb.cpp   **** }
 264              		.loc 1 47 1
 265 0174 83308101 		ld	ra,24(sp)
 266              		.cfi_remember_state
 267              		.cfi_restore 1
 268 0178 03340101 		ld	s0,16(sp)
 269              		.cfi_restore 8
 270              		.cfi_def_cfa 2, 32
 271 017c 83348100 		ld	s1,8(sp)
 272              		.cfi_restore 9
 273              	.LVL20:
 274 0180 13010102 		addi	sp,sp,32
 275              		.cfi_def_cfa_offset 0
GAS LISTING /tmp/ccVuOBMG.s 			page 8


 276 0184 67800000 		jr	ra
 277              	.LVL21:
 278              	.L17:
 279              		.cfi_restore_state
  42:src/tcb.cpp   ****         Scheduler::put(old);
 280              		.loc 1 42 9 is_stmt 1
  42:src/tcb.cpp   ****         Scheduler::put(old);
 281              		.loc 1 42 23 is_stmt 0
 282 0188 13850400 		mv	a0,s1
 283 018c 97000000 		call	_ZN9Scheduler3putEP3TCB@plt
 283      E7800000 
 284              	.LVL22:
 285 0194 6FF01FFC 		j	.L15
 286              		.cfi_endproc
 287              	.LFE35:
 289              		.section	.rodata.str1.8
 290 0021 00000000 		.align	3
 290      000000
 291              	.LC2:
 292 0028 0A095772 		.string	"\n\tWrapper\n"
 292      61707065 
 292      720A00
 293              		.text
 294              		.align	2
 295              		.globl	_ZN3TCB13threadWrapperEv
 297              	_ZN3TCB13threadWrapperEv:
 298              	.LFB36:
  48:src/tcb.cpp   **** 
  49:src/tcb.cpp   **** void TCB::threadWrapper()
  50:src/tcb.cpp   **** {
 299              		.loc 1 50 1 is_stmt 1
 300              		.cfi_startproc
 301 0198 130101FE 		addi	sp,sp,-32
 302              		.cfi_def_cfa_offset 32
 303 019c 233C1100 		sd	ra,24(sp)
 304 01a0 23388100 		sd	s0,16(sp)
 305 01a4 23349100 		sd	s1,8(sp)
 306              		.cfi_offset 1, -8
 307              		.cfi_offset 8, -16
 308              		.cfi_offset 9, -24
 309 01a8 13040102 		addi	s0,sp,32
 310              		.cfi_def_cfa 8, 0
  51:src/tcb.cpp   ****     printString("\n\tWrapper\n");
 311              		.loc 1 51 5
 312              		.loc 1 51 16 is_stmt 0
 313 01ac 17050000 		lla	a0,.LC2
 313      13050500 
 314 01b4 97000000 		call	_Z11printStringPKc@plt
 314      E7800000 
 315              	.LVL23:
  52:src/tcb.cpp   **** 
  53:src/tcb.cpp   ****     Riscv::popSppSpie();
 316              		.loc 1 53 5 is_stmt 1
 317              		.loc 1 53 22 is_stmt 0
 318 01bc 97000000 		call	_ZN5Riscv10popSppSpieEv@plt
 318      E7800000 
 319              	.LVL24:
GAS LISTING /tmp/ccVuOBMG.s 			page 9


  54:src/tcb.cpp   ****     running->body(running->arg);
 320              		.loc 1 54 5 is_stmt 1
 321              		.loc 1 54 14 is_stmt 0
 322 01c4 97040000 		lla	s1,.LANCHOR0
 322      93840400 
 323 01cc 83B70400 		ld	a5,0(s1)
 324 01d0 03B70700 		ld	a4,0(a5)
 325              		.loc 1 54 18
 326 01d4 03B58700 		ld	a0,8(a5)
 327 01d8 E7000700 		jalr	a4
 328              	.LVL25:
  55:src/tcb.cpp   ****     running->setFinished(true);
 329              		.loc 1 55 5 is_stmt 1
 330              		.loc 1 55 25 is_stmt 0
 331 01dc 83B70400 		ld	a5,0(s1)
 332              	.LVL26:
 333              	.LBB15:
 334              	.LBB16:
  18:src/../h/tcb.hpp **** 
 335              		.loc 2 18 36 is_stmt 1
  18:src/../h/tcb.hpp **** 
 336              		.loc 2 18 45 is_stmt 0
 337 01e0 13071000 		li	a4,1
 338 01e4 2388E702 		sb	a4,48(a5)
 339              	.LVL27:
 340              	.LBE16:
 341              	.LBE15:
  56:src/tcb.cpp   ****     //TCB::yield();
  57:src/tcb.cpp   ****     TCB::dispatch();
 342              		.loc 1 57 5 is_stmt 1
 343              		.loc 1 57 18 is_stmt 0
 344 01e8 97000000 		call	_ZN3TCB8dispatchEv
 344      E7800000 
 345              	.LVL28:
  58:src/tcb.cpp   **** }...
 346              		.loc 1 58 1
 347 01f0 83308101 		ld	ra,24(sp)
 348              		.cfi_restore 1
 349 01f4 03340101 		ld	s0,16(sp)
 350              		.cfi_restore 8
 351              		.cfi_def_cfa 2, 32
 352 01f8 83348100 		ld	s1,8(sp)
 353              		.cfi_restore 9
 354 01fc 13010102 		addi	sp,sp,32
 355              		.cfi_def_cfa_offset 0
 356 0200 67800000 		jr	ra
 357              		.cfi_endproc
 358              	.LFE36:
 360              		.globl	_ZN3TCB16timeSliceCounterE
 361              		.globl	_ZN3TCB7runningE
 362              		.bss
 363              		.align	3
 364              		.set	.LANCHOR0,. + 0
 367              	_ZN3TCB7runningE:
 368 0000 00000000 		.zero	8
 368      00000000 
 371              	_ZN3TCB16timeSliceCounterE:
GAS LISTING /tmp/ccVuOBMG.s 			page 10


 372 0008 00000000 		.zero	8
 372      00000000 
 373              		.text
 374              	.Letext0:
 375              		.file 3 "src/../h/../lib/hw.h"
 376              		.file 4 "src/../h/scheduler.hpp"
 377              		.file 5 "src/../h/riscv.hpp"
 378              		.file 6 "src/../h/print.hpp"
 2728              		.align	3
 2731              	DW.ref.__gxx_personality_v0:
 2732 0000 00000000 		.dword	__gxx_personality_v0
 2732      00000000 
 2733              		.ident	"GCC: (Ubuntu 9.4.0-1ubuntu1~20.04) 9.4.0"
 2734              		.section	.note.GNU-stack,"",@progbits
GAS LISTING /tmp/ccVuOBMG.s 			page 11


DEFINED SYMBOLS
                            *ABS*:0000000000000000 tcb.cpp
     /tmp/ccVuOBMG.s:9      .text:0000000000000000 _ZN3TCB12createThreadEPFvPvES0_S0_b
     /tmp/ccVuOBMG.s:13     .text:0000000000000000 .L0 
     /tmp/ccVuOBMG.s:2731   .data.rel.local.DW.ref.__gxx_personality_v0:0000000000000000 DW.ref.__gxx_personality_v0
     /tmp/ccVuOBMG.s:17     .text:0000000000000000 .L0 
     /tmp/ccVuOBMG.s:18     .text:0000000000000004 .L0 
     /tmp/ccVuOBMG.s:26     .text:0000000000000020 .L0 
     /tmp/ccVuOBMG.s:27     .text:0000000000000020 .L0 
     /tmp/ccVuOBMG.s:28     .text:0000000000000020 .L0 
     /tmp/ccVuOBMG.s:29     .text:0000000000000020 .L0 
     /tmp/ccVuOBMG.s:30     .text:0000000000000020 .L0 
     /tmp/ccVuOBMG.s:31     .text:0000000000000020 .L0 
     /tmp/ccVuOBMG.s:32     .text:0000000000000020 .L0 
     /tmp/ccVuOBMG.s:34     .text:0000000000000024 .L0 
     /tmp/ccVuOBMG.s:40     .text:0000000000000034 .L0 
     /tmp/ccVuOBMG.s:41     .text:0000000000000034 .L0 
     /tmp/ccVuOBMG.s:53     .text:0000000000000044 .L0 
     /tmp/ccVuOBMG.s:56     .text:000000000000004c .L0 
     /tmp/ccVuOBMG.s:60     .text:0000000000000050 .L0 
     /tmp/ccVuOBMG.s:297    .text:0000000000000198 _ZN3TCB13threadWrapperEv
     /tmp/ccVuOBMG.s:64     .text:0000000000000060 .L0 
     /tmp/ccVuOBMG.s:66     .text:0000000000000064 .L0 
     /tmp/ccVuOBMG.s:70     .text:000000000000006c .L0 
     /tmp/ccVuOBMG.s:76     .text:0000000000000080 .L0 
     /tmp/ccVuOBMG.s:78     .text:0000000000000084 .L0 
     /tmp/ccVuOBMG.s:83     .text:0000000000000088 .L0 
     /tmp/ccVuOBMG.s:85     .text:0000000000000090 .L0 
     /tmp/ccVuOBMG.s:86     .text:0000000000000090 .L0 
     /tmp/ccVuOBMG.s:88     .text:0000000000000094 .L0 
     /tmp/ccVuOBMG.s:89     .text:0000000000000094 .L0 
     /tmp/ccVuOBMG.s:91     .text:0000000000000098 .L0 
     /tmp/ccVuOBMG.s:94     .text:000000000000009c .L0 
     /tmp/ccVuOBMG.s:96     .text:00000000000000a0 .L0 
     /tmp/ccVuOBMG.s:99     .text:00000000000000a4 .L0 
     /tmp/ccVuOBMG.s:102    .text:00000000000000a8 .L0 
     /tmp/ccVuOBMG.s:105    .text:00000000000000ac .L0 
     /tmp/ccVuOBMG.s:109    .text:00000000000000b0 .L0 
     /tmp/ccVuOBMG.s:113    .text:00000000000000b0 .L0 
     /tmp/ccVuOBMG.s:118    .text:00000000000000b8 .L0 
     /tmp/ccVuOBMG.s:122    .text:00000000000000c0 .L0 
     /tmp/ccVuOBMG.s:123    .text:00000000000000c0 .L0 
     /tmp/ccVuOBMG.s:134    .text:00000000000000d4 .L0 
     /tmp/ccVuOBMG.s:142    .text:00000000000000ec .L0 
     /tmp/ccVuOBMG.s:173    .text:00000000000000ec _ZN3TCB5yieldEv
     /tmp/ccVuOBMG.s:176    .text:00000000000000ec .L0 
     /tmp/ccVuOBMG.s:177    .text:00000000000000ec .L0 
     /tmp/ccVuOBMG.s:178    .text:00000000000000f0 .L0 
     /tmp/ccVuOBMG.s:181    .text:00000000000000f8 .L0 
     /tmp/ccVuOBMG.s:182    .text:00000000000000f8 .L0 
     /tmp/ccVuOBMG.s:184    .text:00000000000000fc .L0 
     /tmp/ccVuOBMG.s:186    .text:00000000000000fc .L0 
     /tmp/ccVuOBMG.s:187    .text:00000000000000fc .L0 
     /tmp/ccVuOBMG.s:191    .text:000000000000010c .L0 
         src/tcb.cpp:33     .text:000000000000010c .L0 
     /tmp/ccVuOBMG.s:198    .text:0000000000000110 .L0 
     /tmp/ccVuOBMG.s:199    .text:0000000000000114 .L0 
GAS LISTING /tmp/ccVuOBMG.s 			page 12


     /tmp/ccVuOBMG.s:201    .text:0000000000000118 .L0 
     /tmp/ccVuOBMG.s:202    .text:0000000000000118 .L0 
     /tmp/ccVuOBMG.s:204    .text:000000000000011c .L0 
     /tmp/ccVuOBMG.s:206    .text:0000000000000120 .L0 
     /tmp/ccVuOBMG.s:217    .text:0000000000000120 _ZN3TCB8dispatchEv
     /tmp/ccVuOBMG.s:220    .text:0000000000000120 .L0 
     /tmp/ccVuOBMG.s:221    .text:0000000000000120 .L0 
     /tmp/ccVuOBMG.s:222    .text:0000000000000124 .L0 
     /tmp/ccVuOBMG.s:226    .text:0000000000000130 .L0 
     /tmp/ccVuOBMG.s:227    .text:0000000000000130 .L0 
     /tmp/ccVuOBMG.s:228    .text:0000000000000130 .L0 
     /tmp/ccVuOBMG.s:230    .text:0000000000000134 .L0 
     /tmp/ccVuOBMG.s:232    .text:0000000000000134 .L0 
     /tmp/ccVuOBMG.s:233    .text:0000000000000134 .L0 
     /tmp/ccVuOBMG.s:237    .text:0000000000000144 .L0 
     /tmp/ccVuOBMG.s:238    .text:0000000000000144 .L0 
     /tmp/ccVuOBMG.s:243    .text:000000000000014c .L0 
     /tmp/ccVuOBMG.s:244    .text:000000000000014c .L0 
     /tmp/ccVuOBMG.s:245    .text:000000000000014c .L0 
     /tmp/ccVuOBMG.s:250    .text:0000000000000150 .L0 
     /tmp/ccVuOBMG.s:253    .text:0000000000000154 .L0 
     /tmp/ccVuOBMG.s:254    .text:0000000000000154 .L0 
     /tmp/ccVuOBMG.s:257    .text:000000000000015c .L0 
     /tmp/ccVuOBMG.s:259    .text:0000000000000164 .L0 
     /tmp/ccVuOBMG.s:260    .text:0000000000000164 .L0 
     /tmp/ccVuOBMG.s:265    .text:0000000000000174 .L0 
     /tmp/ccVuOBMG.s:266    .text:0000000000000178 .L0 
     /tmp/ccVuOBMG.s:267    .text:0000000000000178 .L0 
     /tmp/ccVuOBMG.s:269    .text:000000000000017c .L0 
     /tmp/ccVuOBMG.s:270    .text:000000000000017c .L0 
     /tmp/ccVuOBMG.s:272    .text:0000000000000180 .L0 
     /tmp/ccVuOBMG.s:275    .text:0000000000000184 .L0 
     /tmp/ccVuOBMG.s:279    .text:0000000000000188 .L0 
     /tmp/ccVuOBMG.s:281    .text:0000000000000188 .L0 
     /tmp/ccVuOBMG.s:282    .text:0000000000000188 .L0 
     /tmp/ccVuOBMG.s:286    .text:0000000000000198 .L0 
     /tmp/ccVuOBMG.s:300    .text:0000000000000198 .L0 
     /tmp/ccVuOBMG.s:301    .text:0000000000000198 .L0 
     /tmp/ccVuOBMG.s:302    .text:000000000000019c .L0 
     /tmp/ccVuOBMG.s:306    .text:00000000000001a8 .L0 
     /tmp/ccVuOBMG.s:307    .text:00000000000001a8 .L0 
     /tmp/ccVuOBMG.s:308    .text:00000000000001a8 .L0 
     /tmp/ccVuOBMG.s:310    .text:00000000000001ac .L0 
     /tmp/ccVuOBMG.s:312    .text:00000000000001ac .L0 
     /tmp/ccVuOBMG.s:313    .text:00000000000001ac .L0 
     /tmp/ccVuOBMG.s:317    .text:00000000000001bc .L0 
     /tmp/ccVuOBMG.s:318    .text:00000000000001bc .L0 
     /tmp/ccVuOBMG.s:321    .text:00000000000001c4 .L0 
     /tmp/ccVuOBMG.s:322    .text:00000000000001c4 .L0 
     /tmp/ccVuOBMG.s:326    .text:00000000000001d4 .L0 
     /tmp/ccVuOBMG.s:330    .text:00000000000001dc .L0 
     /tmp/ccVuOBMG.s:331    .text:00000000000001dc .L0 
     /tmp/ccVuOBMG.s:336    .text:00000000000001e0 .L0 
     /tmp/ccVuOBMG.s:337    .text:00000000000001e0 .L0 
     /tmp/ccVuOBMG.s:343    .text:00000000000001e8 .L0 
     /tmp/ccVuOBMG.s:344    .text:00000000000001e8 .L0 
     /tmp/ccVuOBMG.s:347    .text:00000000000001f0 .L0 
GAS LISTING /tmp/ccVuOBMG.s 			page 13


     /tmp/ccVuOBMG.s:348    .text:00000000000001f4 .L0 
     /tmp/ccVuOBMG.s:350    .text:00000000000001f8 .L0 
     /tmp/ccVuOBMG.s:351    .text:00000000000001f8 .L0 
     /tmp/ccVuOBMG.s:353    .text:00000000000001fc .L0 
     /tmp/ccVuOBMG.s:355    .text:0000000000000200 .L0 
     /tmp/ccVuOBMG.s:357    .text:0000000000000204 .L0 
     /tmp/ccVuOBMG.s:371    .bss:0000000000000008 _ZN3TCB16timeSliceCounterE
     /tmp/ccVuOBMG.s:367    .bss:0000000000000000 _ZN3TCB7runningE
     /tmp/ccVuOBMG.s:364    .bss:0000000000000000 .LANCHOR0
     /tmp/ccVuOBMG.s:379    .text:0000000000000204 .L0 
     /tmp/ccVuOBMG.s:61     .text:0000000000000054 .L0 
     /tmp/ccVuOBMG.s:167    .rodata.str1.8:0000000000000000 .LC0
     /tmp/ccVuOBMG.s:187    .text:00000000000000fc .L0 
     /tmp/ccVuOBMG.s:211    .rodata.str1.8:0000000000000010 .LC1
     /tmp/ccVuOBMG.s:233    .text:0000000000000134 .L0 
     /tmp/ccVuOBMG.s:238    .text:0000000000000144 .L0 
     /tmp/ccVuOBMG.s:257    .text:000000000000015c .L0 
     /tmp/ccVuOBMG.s:291    .rodata.str1.8:0000000000000028 .LC2
     /tmp/ccVuOBMG.s:313    .text:00000000000001ac .L0 
     /tmp/ccVuOBMG.s:322    .text:00000000000001c4 .L0 
     /tmp/ccVuOBMG.s:108    .text:00000000000000b0 .L10
     /tmp/ccVuOBMG.s:116    .text:00000000000000b8 .L7
     /tmp/ccVuOBMG.s:79     .text:0000000000000088 .L1
     /tmp/ccVuOBMG.s:120    .text:00000000000000c0 .L11
     /tmp/ccVuOBMG.s:58     .text:0000000000000050 .L2
     /tmp/ccVuOBMG.s:68     .text:000000000000006c .L3
     /tmp/ccVuOBMG.s:278    .text:0000000000000188 .L17
     /tmp/ccVuOBMG.s:251    .text:0000000000000154 .L15
     /tmp/ccVuOBMG.s:43     .text:0000000000000038 .LEHB0
     /tmp/ccVuOBMG.s:10     .text:0000000000000000 .LFB33
     /tmp/ccVuOBMG.s:46     .text:0000000000000040 .LEHE0
     /tmp/ccVuOBMG.s:124    .text:00000000000000c4 .LEHB1
     /tmp/ccVuOBMG.s:127    .text:00000000000000cc .LEHE1
     /tmp/ccVuOBMG.s:129    .text:00000000000000d0 .L8
     /tmp/ccVuOBMG.s:138    .text:00000000000000e4 .LEHB2
     /tmp/ccVuOBMG.s:141    .text:00000000000000ec .LEHE2
     /tmp/ccVuOBMG.s:1348   .debug_abbrev:0000000000000000 .Ldebug_abbrev0
     /tmp/ccVuOBMG.s:2695   .debug_str:00000000000005d5 .LASF100
     /tmp/ccVuOBMG.s:2619   .debug_str:00000000000003cd .LASF101
     /tmp/ccVuOBMG.s:2567   .debug_str:0000000000000228 .LASF102
     /tmp/ccVuOBMG.s:5      .text:0000000000000000 .Ltext0
     /tmp/ccVuOBMG.s:374    .text:0000000000000204 .Letext0
     /tmp/ccVuOBMG.s:2495   .debug_line:0000000000000000 .Ldebug_line0
     /tmp/ccVuOBMG.s:2633   .debug_str:0000000000000427 .LASF0
     /tmp/ccVuOBMG.s:2643   .debug_str:0000000000000454 .LASF1
     /tmp/ccVuOBMG.s:2623   .debug_str:00000000000003e0 .LASF2
     /tmp/ccVuOBMG.s:2593   .debug_str:0000000000000329 .LASF4
     /tmp/ccVuOBMG.s:2671   .debug_str:000000000000051d .LASF3
     /tmp/ccVuOBMG.s:2521   .debug_str:00000000000000a4 .LASF5
     /tmp/ccVuOBMG.s:2645   .debug_str:0000000000000467 .LASF6
     /tmp/ccVuOBMG.s:2631   .debug_str:0000000000000414 .LASF7
     /tmp/ccVuOBMG.s:2699   .debug_str:00000000000006a8 .LASF8
     /tmp/ccVuOBMG.s:2577   .debug_str:000000000000027e .LASF9
     /tmp/ccVuOBMG.s:2653   .debug_str:00000000000004a5 .LASF10
     /tmp/ccVuOBMG.s:2697   .debug_str:0000000000000699 .LASF11
     /tmp/ccVuOBMG.s:2523   .debug_str:00000000000000ab .LASF12
     /tmp/ccVuOBMG.s:2501   .debug_str:0000000000000022 .LASF13
GAS LISTING /tmp/ccVuOBMG.s 			page 14


     /tmp/ccVuOBMG.s:2533   .debug_str:000000000000010d .LASF14
     /tmp/ccVuOBMG.s:2665   .debug_str:00000000000004e9 .LASF15
     /tmp/ccVuOBMG.s:2541   .debug_str:000000000000014c .LASF16
     /tmp/ccVuOBMG.s:2651   .debug_str:000000000000049b .LASF17
     /tmp/ccVuOBMG.s:2701   .debug_str:00000000000006b8 .LASF39
     /tmp/ccVuOBMG.s:2589   .debug_str:00000000000002ed .LASF103
     /tmp/ccVuOBMG.s:2529   .debug_str:00000000000000eb .LASF104
     /tmp/ccVuOBMG.s:2613   .debug_str:00000000000003a4 .LASF105
     /tmp/ccVuOBMG.s:2509   .debug_str:000000000000004d .LASF106
     /tmp/ccVuOBMG.s:2549   .debug_str:00000000000001ab .LASF18
     /tmp/ccVuOBMG.s:2659   .debug_str:00000000000004cd .LASF20
     /tmp/ccVuOBMG.s:2647   .debug_str:000000000000047a .LASF22
     /tmp/ccVuOBMG.s:2575   .debug_str:0000000000000267 .LASF24
     /tmp/ccVuOBMG.s:2625   .debug_str:00000000000003ee .LASF19
     /tmp/ccVuOBMG.s:2717   .debug_str:0000000000000729 .LASF21
     /tmp/ccVuOBMG.s:2615   .debug_str:00000000000003ae .LASF23
     /tmp/ccVuOBMG.s:2519   .debug_str:000000000000008b .LASF25
     /tmp/ccVuOBMG.s:2605   .debug_str:0000000000000366 .LASF26
     /tmp/ccVuOBMG.s:2719   .debug_str:0000000000000740 .LASF27
     /tmp/ccVuOBMG.s:2661   .debug_str:00000000000004d9 .LASF107
     /tmp/ccVuOBMG.s:2667   .debug_str:00000000000004ff .LASF45
     /tmp/ccVuOBMG.s:2629   .debug_str:0000000000000404 .LASF47
     /tmp/ccVuOBMG.s:2557   .debug_str:00000000000001ec .LASF108
     /tmp/ccVuOBMG.s:2579   .debug_str:000000000000028c .LASF109
     /tmp/ccVuOBMG.s:2599   .debug_str:000000000000034e .LASF28
     /tmp/ccVuOBMG.s:2535   .debug_str:0000000000000119 .LASF29
     /tmp/ccVuOBMG.s:2603   .debug_str:000000000000035e .LASF30
     /tmp/ccVuOBMG.s:2639   .debug_str:0000000000000444 .LASF31
     /tmp/ccVuOBMG.s:2597   .debug_str:0000000000000345 .LASF32
     /tmp/ccVuOBMG.s:2617   .debug_str:00000000000003bb .LASF33
     /tmp/ccVuOBMG.s:2609   .debug_str:000000000000037e .LASF35
     /tmp/ccVuOBMG.s:2583   .debug_str:00000000000002ba .LASF37
     /tmp/ccVuOBMG.s:2703   .debug_str:00000000000006cc .LASF34
     /tmp/ccVuOBMG.s:2591   .debug_str:0000000000000301 .LASF110
     /tmp/ccVuOBMG.s:2637   .debug_str:000000000000043b .LASF36
     /tmp/ccVuOBMG.s:2563   .debug_str:0000000000000210 .LASF38
     /tmp/ccVuOBMG.s:2673   .debug_str:000000000000052f .LASF40
     /tmp/ccVuOBMG.s:2607   .debug_str:0000000000000373 .LASF41
     /tmp/ccVuOBMG.s:2585   .debug_str:00000000000002d3 .LASF42
     /tmp/ccVuOBMG.s:2565   .debug_str:0000000000000223 .LASF43
     /tmp/ccVuOBMG.s:2641   .debug_str:000000000000044e .LASF44
     /tmp/ccVuOBMG.s:2663   .debug_str:00000000000004de .LASF46
     /tmp/ccVuOBMG.s:2711   .debug_str:00000000000006fe .LASF48
     /tmp/ccVuOBMG.s:2517   .debug_str:000000000000007d .LASF49
     /tmp/ccVuOBMG.s:2555   .debug_str:00000000000001d1 .LASF50
     /tmp/ccVuOBMG.s:2687   .debug_str:000000000000059c .LASF51
     /tmp/ccVuOBMG.s:2499   .debug_str:0000000000000008 .LASF52
     /tmp/ccVuOBMG.s:2503   .debug_str:0000000000000032 .LASF53
     /tmp/ccVuOBMG.s:2685   .debug_str:0000000000000587 .LASF55
     /tmp/ccVuOBMG.s:2551   .debug_str:00000000000001b0 .LASF57
     /tmp/ccVuOBMG.s:2537   .debug_str:000000000000011f .LASF59
     /tmp/ccVuOBMG.s:2675   .debug_str:0000000000000540 .LASF54
     /tmp/ccVuOBMG.s:2657   .debug_str:00000000000004ba .LASF56
     /tmp/ccVuOBMG.s:2693   .debug_str:00000000000005ce .LASF58
     /tmp/ccVuOBMG.s:2689   .debug_str:00000000000005a9 .LASF60
     /tmp/ccVuOBMG.s:2571   .debug_str:0000000000000259 .LASF61
     /tmp/ccVuOBMG.s:2543   .debug_str:0000000000000162 .LASF62
GAS LISTING /tmp/ccVuOBMG.s 			page 15


     /tmp/ccVuOBMG.s:2497   .debug_str:0000000000000000 .LASF63
     /tmp/ccVuOBMG.s:2677   .debug_str:0000000000000547 .LASF64
     /tmp/ccVuOBMG.s:2559   .debug_str:00000000000001f4 .LASF65
     /tmp/ccVuOBMG.s:2525   .debug_str:00000000000000bb .LASF66
     /tmp/ccVuOBMG.s:2715   .debug_str:0000000000000721 .LASF67
     /tmp/ccVuOBMG.s:2561   .debug_str:00000000000001fc .LASF68
     /tmp/ccVuOBMG.s:2635   .debug_str:0000000000000434 .LASF69
     /tmp/ccVuOBMG.s:2707   .debug_str:00000000000006e6 .LASF70
     /tmp/ccVuOBMG.s:2513   .debug_str:000000000000005b .LASF71
     /tmp/ccVuOBMG.s:2569   .debug_str:0000000000000246 .LASF72
     /tmp/ccVuOBMG.s:2573   .debug_str:0000000000000261 .LASF73
     /tmp/ccVuOBMG.s:2691   .debug_str:00000000000005bc .LASF74
     /tmp/ccVuOBMG.s:2511   .debug_str:0000000000000055 .LASF75
     /tmp/ccVuOBMG.s:2723   .debug_str:0000000000000775 .LASF76
     /tmp/ccVuOBMG.s:2713   .debug_str:0000000000000716 .LASF77
     /tmp/ccVuOBMG.s:2669   .debug_str:0000000000000505 .LASF78
     /tmp/ccVuOBMG.s:2601   .debug_str:0000000000000353 .LASF79
     /tmp/ccVuOBMG.s:2611   .debug_str:000000000000038c .LASF80
     /tmp/ccVuOBMG.s:2531   .debug_str:0000000000000103 .LASF81
     /tmp/ccVuOBMG.s:2649   .debug_str:0000000000000485 .LASF82
     /tmp/ccVuOBMG.s:2627   .debug_str:00000000000003fa .LASF83
     /tmp/ccVuOBMG.s:2581   .debug_str:00000000000002a4 .LASF84
     /tmp/ccVuOBMG.s:2679   .debug_str:000000000000055b .LASF85
     /tmp/ccVuOBMG.s:2527   .debug_str:00000000000000cf .LASF86
     /tmp/ccVuOBMG.s:2595   .debug_str:0000000000000330 .LASF87
     /tmp/ccVuOBMG.s:2545   .debug_str:0000000000000176 .LASF88
     /tmp/ccVuOBMG.s:2721   .debug_str:0000000000000764 .LASF89
     /tmp/ccVuOBMG.s:2515   .debug_str:0000000000000062 .LASF90
     /tmp/ccVuOBMG.s:298    .text:0000000000000198 .LFB36
     /tmp/ccVuOBMG.s:358    .text:0000000000000204 .LFE36
     /tmp/ccVuOBMG.s:333    .text:00000000000001e0 .LBB15
     /tmp/ccVuOBMG.s:341    .text:00000000000001e8 .LBE15
     /tmp/ccVuOBMG.s:2267   .debug_loc:0000000000000000 .LLST11
     /tmp/ccVuOBMG.s:2275   .debug_loc:0000000000000024 .LLST12
     /tmp/ccVuOBMG.s:315    .text:00000000000001bc .LVL23
     /tmp/ccVuOBMG.s:319    .text:00000000000001c4 .LVL24
     /tmp/ccVuOBMG.s:345    .text:00000000000001f0 .LVL28
     /tmp/ccVuOBMG.s:218    .text:0000000000000120 .LFB35
     /tmp/ccVuOBMG.s:287    .text:0000000000000198 .LFE35
     /tmp/ccVuOBMG.s:2282   .debug_loc:0000000000000047 .LLST9
     /tmp/ccVuOBMG.s:241    .text:000000000000014c .LBB13
     /tmp/ccVuOBMG.s:248    .text:0000000000000150 .LBE13
     /tmp/ccVuOBMG.s:2293   .debug_loc:000000000000007d .LLST10
     /tmp/ccVuOBMG.s:235    .text:0000000000000144 .LVL15
     /tmp/ccVuOBMG.s:255    .text:000000000000015c .LVL18
     /tmp/ccVuOBMG.s:263    .text:0000000000000174 .LVL19
     /tmp/ccVuOBMG.s:284    .text:0000000000000194 .LVL22
     /tmp/ccVuOBMG.s:174    .text:00000000000000ec .LFB34
     /tmp/ccVuOBMG.s:207    .text:0000000000000120 .LFE34
     /tmp/ccVuOBMG.s:189    .text:000000000000010c .LVL14
     /tmp/ccVuOBMG.s:143    .text:00000000000000ec .LFE33
     /tmp/ccVuOBMG.s:2300   .debug_loc:00000000000000a0 .LLST0
     /tmp/ccVuOBMG.s:2322   .debug_loc:00000000000000ff .LLST1
     /tmp/ccVuOBMG.s:2705   .debug_str:00000000000006da .LASF91
     /tmp/ccVuOBMG.s:2344   .debug_loc:000000000000015e .LLST2
     /tmp/ccVuOBMG.s:2373   .debug_loc:00000000000001d3 .LLST3
     /tmp/ccVuOBMG.s:49     .text:0000000000000044 .LBB9
GAS LISTING /tmp/ccVuOBMG.s 			page 16


     /tmp/ccVuOBMG.s:2487   .debug_ranges:0000000000000000 .Ldebug_ranges0
     /tmp/ccVuOBMG.s:2387   .debug_loc:000000000000020c .LLST4
     /tmp/ccVuOBMG.s:2398   .debug_loc:0000000000000242 .LLST5
     /tmp/ccVuOBMG.s:2423   .debug_loc:00000000000002a4 .LLST6
     /tmp/ccVuOBMG.s:2441   .debug_loc:00000000000002f0 .LLST7
     /tmp/ccVuOBMG.s:2459   .debug_loc:000000000000033c .LLST8
     /tmp/ccVuOBMG.s:126    .text:00000000000000cc .LVL11
     /tmp/ccVuOBMG.s:45     .text:0000000000000040 .LVL2
     /tmp/ccVuOBMG.s:136    .text:00000000000000e0 .LVL12
     /tmp/ccVuOBMG.s:140    .text:00000000000000ec .LVL13
     /tmp/ccVuOBMG.s:2709   .debug_str:00000000000006f9 .LASF92
     /tmp/ccVuOBMG.s:2553   .debug_str:00000000000001b9 .LASF111
     /tmp/ccVuOBMG.s:2655   .debug_str:00000000000004b4 .LASF93
     /tmp/ccVuOBMG.s:2547   .debug_str:0000000000000198 .LASF112
     /tmp/ccVuOBMG.s:2507   .debug_str:0000000000000041 .LASF113
     /tmp/ccVuOBMG.s:2505   .debug_str:000000000000003b .LASF94
     /tmp/ccVuOBMG.s:2683   .debug_str:000000000000057a .LASF96
     /tmp/ccVuOBMG.s:2621   .debug_str:00000000000003d9 .LASF95
     /tmp/ccVuOBMG.s:2681   .debug_str:000000000000056a .LASF97
     /tmp/ccVuOBMG.s:2587   .debug_str:00000000000002de .LASF98
     /tmp/ccVuOBMG.s:2539   .debug_str:0000000000000134 .LASF99
     /tmp/ccVuOBMG.s:332    .text:00000000000001e0 .LVL26
     /tmp/ccVuOBMG.s:339    .text:00000000000001e8 .LVL27
     /tmp/ccVuOBMG.s:239    .text:000000000000014c .LVL16
     /tmp/ccVuOBMG.s:273    .text:0000000000000180 .LVL20
     /tmp/ccVuOBMG.s:277    .text:0000000000000188 .LVL21
     /tmp/ccVuOBMG.s:246    .text:0000000000000150 .LVL17
     /tmp/ccVuOBMG.s:16     .text:0000000000000000 .LVL0
     /tmp/ccVuOBMG.s:42     .text:0000000000000038 .LVL1
     /tmp/ccVuOBMG.s:97     .text:00000000000000a0 .LVL6
     /tmp/ccVuOBMG.s:107    .text:00000000000000b0 .LVL9
     /tmp/ccVuOBMG.s:103    .text:00000000000000a8 .LVL8
     /tmp/ccVuOBMG.s:57     .text:0000000000000050 .LVL4
     /tmp/ccVuOBMG.s:114    .text:00000000000000b4 .LVL10
     /tmp/ccVuOBMG.s:48     .text:0000000000000044 .LVL3
     /tmp/ccVuOBMG.s:100    .text:00000000000000a4 .LVL7
     /tmp/ccVuOBMG.s:92     .text:0000000000000098 .LVL5
     /tmp/ccVuOBMG.s:380    .debug_info:0000000000000000 .Ldebug_info0
     /tmp/ccVuOBMG.s:81     .text:0000000000000088 .LBE9
     /tmp/ccVuOBMG.s:110    .text:00000000000000b0 .LBB12
     /tmp/ccVuOBMG.s:132    .text:00000000000000d4 .LBE12
     /tmp/ccVuOBMG.s:146    .gcc_except_table:0000000000000000 .LLSDA33

UNDEFINED SYMBOLS
_Znwm
_ZN9Scheduler3putEP3TCB
_ZdlPv
_Unwind_Resume
__gxx_personality_v0
_Z11printStringPKc
_ZN9Scheduler3getEv
_ZN3TCB13contextSwitchEPNS_7ContextES1_
_ZN5Riscv10popSppSpieEv
