GAS LISTING /tmp/ccIzdoeJ.s 			page 1


   1              		.file	"tcb.cpp"
   2              		.option pic
   3              		.option norelax
   4              		.text
   5              	.Ltext0:
   6              		.align	2
   7              		.globl	_ZN3TCB12createThreadEPFvPvES0_S0_b
   9              	_ZN3TCB12createThreadEPFvPvES0_S0_b:
  10              	.LFB35:
  11              		.file 1 "src/tcb.cpp"
   1:src/tcb.cpp   **** //
   2:src/tcb.cpp   **** // Created by os on 2/11/23.
   3:src/tcb.cpp   **** //
   4:src/tcb.cpp   **** 
   5:src/tcb.cpp   **** #include "../h/tcb.hpp"
   6:src/tcb.cpp   **** #include "../h/riscv.hpp"
   7:src/tcb.cpp   **** #include "../test/printing.hpp"
   8:src/tcb.cpp   **** 
   9:src/tcb.cpp   **** TCB *TCB::running = nullptr;
  10:src/tcb.cpp   **** uint64 TCB::timeSliceCounter = 0;
  11:src/tcb.cpp   **** 
  12:src/tcb.cpp   **** //TCB* TCB::createThread(Body body)
  13:src/tcb.cpp   **** //{
  14:src/tcb.cpp   **** //    return new TCB(body, TIME_SLICE);
  15:src/tcb.cpp   **** //}
  16:src/tcb.cpp   **** 
  17:src/tcb.cpp   **** TCB*
  18:src/tcb.cpp   **** TCB::createThread(Body body, void* arg, void* stack_space, bool start_immediately)
  19:src/tcb.cpp   **** {
  12              		.loc 1 19 1
  13              		.cfi_startproc
  14              		.cfi_personality 0x9b,DW.ref.__gxx_personality_v0
  15              		.cfi_lsda 0x1b,.LLSDA35
  16              	.LVL0:
  17 0000 130101FC 		addi	sp,sp,-64
  18              		.cfi_def_cfa_offset 64
  19 0004 233C1102 		sd	ra,56(sp)
  20 0008 23388102 		sd	s0,48(sp)
  21 000c 23349102 		sd	s1,40(sp)
  22 0010 23302103 		sd	s2,32(sp)
  23 0014 233C3101 		sd	s3,24(sp)
  24 0018 23384101 		sd	s4,16(sp)
  25 001c 23345101 		sd	s5,8(sp)
  26              		.cfi_offset 1, -8
  27              		.cfi_offset 8, -16
  28              		.cfi_offset 9, -24
  29              		.cfi_offset 18, -32
  30              		.cfi_offset 19, -40
  31              		.cfi_offset 20, -48
  32              		.cfi_offset 21, -56
  33 0020 13040104 		addi	s0,sp,64
  34              		.cfi_def_cfa 8, 0
  35 0024 93090500 		mv	s3,a0
  36 0028 938A0500 		mv	s5,a1
  37 002c 13090600 		mv	s2,a2
  38 0030 138A0600 		mv	s4,a3
  20:src/tcb.cpp   ****     return new TCB(body, arg, stack_space, start_immediately);
GAS LISTING /tmp/ccIzdoeJ.s 			page 2


  39              		.loc 1 20 5
  40              		.loc 1 20 61 is_stmt 0
  41 0034 13058003 		li	a0,56
  42              	.LVL1:
  43              	.LEHB0:
  44 0038 97000000 		call	_Znwm@plt
  44      E7800000 
  45              	.LVL2:
  46              	.LEHE0:
  47 0040 93040500 		mv	s1,a0
  48              	.LVL3:
  49              	.LBB21:
  50              	.LBB22:
  51              		.file 2 "src/../h/tcb.hpp"
   1:src/../h/tcb.hpp **** //
   2:src/../h/tcb.hpp **** // Created by os on 2/11/23.
   3:src/../h/tcb.hpp **** //
   4:src/../h/tcb.hpp **** 
   5:src/../h/tcb.hpp **** #ifndef PROJECT_BASE_TCB_HPP
   6:src/../h/tcb.hpp **** #define PROJECT_BASE_TCB_HPP
   7:src/../h/tcb.hpp **** 
   8:src/../h/tcb.hpp **** #include "../lib/hw.h"
   9:src/../h/tcb.hpp **** #include "scheduler.hpp"
  10:src/../h/tcb.hpp **** 
  11:src/../h/tcb.hpp **** typedef enum State{ NEW, ACTIVE, READY, BLOCKED, FINISHED } State;
  12:src/../h/tcb.hpp **** 
  13:src/../h/tcb.hpp **** // Thread Control Block
  14:src/../h/tcb.hpp **** class TCB {
  15:src/../h/tcb.hpp **** public:
  16:src/../h/tcb.hpp ****     ~TCB() { delete[] stack; }
  17:src/../h/tcb.hpp **** 
  18:src/../h/tcb.hpp ****     bool isFinished() const      { return finished;  }
  19:src/../h/tcb.hpp ****     void setFinished(bool value) { finished = value; }
  20:src/../h/tcb.hpp ****     uint64 getTimeSlice() const  { return timeSlice; }
  21:src/../h/tcb.hpp **** 
  22:src/../h/tcb.hpp ****     static void dispatch();
  23:src/../h/tcb.hpp **** 
  24:src/../h/tcb.hpp **** 
  25:src/../h/tcb.hpp ****     State getState()            { return state;     }
  26:src/../h/tcb.hpp ****     void  setState(State state) {TCB::state = state;}
  27:src/../h/tcb.hpp **** 
  28:src/../h/tcb.hpp ****     using Body = void (*)(void*);
  29:src/../h/tcb.hpp **** 
  30:src/../h/tcb.hpp ****     // static TCB *createThread(Body body);
  31:src/../h/tcb.hpp ****     static TCB *createThread(Body body, void* arg, void* stack_space, bool start_immediately);
  32:src/../h/tcb.hpp **** //  static void yield();
  33:src/../h/tcb.hpp **** 
  34:src/../h/tcb.hpp ****     static TCB *running;
  35:src/../h/tcb.hpp **** 
  36:src/../h/tcb.hpp **** private:
  37:src/../h/tcb.hpp **** //    explicit TCB(Body body, uint64 timeSlice) :
  38:src/../h/tcb.hpp **** //            body(body),
  39:src/../h/tcb.hpp **** //            stack(body != nullptr ? new uint64[STACK_SIZE] : nullptr),
  40:src/../h/tcb.hpp **** //            context({(uint64)&threadWrapper,
  41:src/../h/tcb.hpp **** //                     stack != nullptr ? (uint64) &stack[STACK_SIZE] : 0
  42:src/../h/tcb.hpp **** //                    }),
  43:src/../h/tcb.hpp **** //            timeSlice(timeSlice),
GAS LISTING /tmp/ccIzdoeJ.s 			page 3


  44:src/../h/tcb.hpp **** //            finished(false) {
  45:src/../h/tcb.hpp **** //        if (body != nullptr)
  46:src/../h/tcb.hpp **** //            Scheduler::put(this);
  47:src/../h/tcb.hpp **** //    }
  48:src/../h/tcb.hpp ****     explicit TCB(Body body, void* arg, void* stack_space, bool start_immediately) :
  49:src/../h/tcb.hpp ****             body(body),
  50:src/../h/tcb.hpp ****             arg(arg),
  51:src/../h/tcb.hpp ****             stack(body != nullptr ? (uint64*)stack_space : nullptr),
  52:src/../h/tcb.hpp ****             context({(uint64)&threadWrapper,
  53:src/../h/tcb.hpp ****                      stack != nullptr ? (uint64) &stack[DEFAULT_STACK_SIZE] : 0
  54:src/../h/tcb.hpp ****                     }),
  55:src/../h/tcb.hpp ****             timeSlice(DEFAULT_TIME_SLICE),
  56:src/../h/tcb.hpp ****             finished(false),
  57:src/../h/tcb.hpp ****             start_immediately(start_immediately)
  52              		.loc 2 57 48
  53 0044 23303501 		sd	s3,0(a0)
  54 0048 23345501 		sd	s5,8(a0)
  51:src/../h/tcb.hpp ****             context({(uint64)&threadWrapper,
  55              		.loc 2 51 35
  56 004c 63840906 		beqz	s3,.L12
  57              	.LVL4:
  58              	.L2:
  59              		.loc 2 57 48
  60 0050 23B82401 		sd	s2,16(s1)
  61 0054 97070000 		lla	a5,_ZN3TCB13threadWrapperEv
  61      93870700 
  62 005c 23BCF400 		sd	a5,24(s1)
  53:src/../h/tcb.hpp ****                     }),
  63              		.loc 2 53 39
  64 0060 630E0904 		beqz	s2,.L9
  53:src/../h/tcb.hpp ****                     }),
  65              		.loc 2 53 50
  66 0064 37860000 		li	a2,32768
  67 0068 3309C900 		add	s2,s2,a2
  68              	.L3:
  69              		.loc 2 57 48
  70 006c 23B02403 		sd	s2,32(s1)
  71 0070 93072000 		li	a5,2
  72 0074 23B4F402 		sd	a5,40(s1)
  73 0078 238A0402 		sb	zero,52(s1)
  74 007c A38A4403 		sb	s4,53(s1)
  58:src/../h/tcb.hpp ****     {
  59:src/../h/tcb.hpp ****         if (body != nullptr)
  75              		.loc 2 59 9 is_stmt 1
  76 0080 638C0904 		beqz	s3,.L4
  60:src/../h/tcb.hpp ****         {
  61:src/../h/tcb.hpp ****             if (start_immediately == true)
  77              		.loc 2 61 13
  78 0084 63100A04 		bnez	s4,.L13
  62:src/../h/tcb.hpp ****             {
  63:src/../h/tcb.hpp ****                 this->state = READY;
  64:src/../h/tcb.hpp ****                 Scheduler::put(this);
  65:src/../h/tcb.hpp ****             }
  66:src/../h/tcb.hpp ****             else
  67:src/../h/tcb.hpp ****                 this->state = NEW;
  79              		.loc 2 67 17
  80              		.loc 2 67 29 is_stmt 0
GAS LISTING /tmp/ccIzdoeJ.s 			page 4


  81 0088 23A80402 		sw	zero,48(s1)
  82              	.LVL5:
  83              	.L1:
  84              	.LBE22:
  85              	.LBE21:
  21:src/tcb.cpp   **** }
  86              		.loc 1 21 1
  87 008c 13850400 		mv	a0,s1
  88 0090 83308103 		ld	ra,56(sp)
  89              		.cfi_remember_state
  90              		.cfi_restore 1
  91 0094 03340103 		ld	s0,48(sp)
  92              		.cfi_restore 8
  93              		.cfi_def_cfa 2, 64
  94 0098 83348102 		ld	s1,40(sp)
  95              		.cfi_restore 9
  96 009c 03390102 		ld	s2,32(sp)
  97              		.cfi_restore 18
  98 00a0 83398101 		ld	s3,24(sp)
  99              		.cfi_restore 19
 100              	.LVL6:
 101 00a4 033A0101 		ld	s4,16(sp)
 102              		.cfi_restore 20
 103 00a8 833A8100 		ld	s5,8(sp)
 104              		.cfi_restore 21
 105              	.LVL7:
 106 00ac 13010104 		addi	sp,sp,64
 107              		.cfi_def_cfa_offset 0
 108 00b0 67800000 		jr	ra
 109              	.LVL8:
 110              	.L12:
 111              		.cfi_restore_state
 112              	.LBB24:
 113              	.LBB23:
  51:src/../h/tcb.hpp ****             context({(uint64)&threadWrapper,
 114              		.loc 2 51 35
 115 00b4 13090000 		li	s2,0
 116              	.LVL9:
 117 00b8 6FF09FF9 		j	.L2
 118              	.L9:
  53:src/../h/tcb.hpp ****                     }),
 119              		.loc 2 53 39
 120 00bc 13090000 		li	s2,0
 121 00c0 6FF0DFFA 		j	.L3
 122              	.L13:
  63:src/../h/tcb.hpp ****                 Scheduler::put(this);
 123              		.loc 2 63 17 is_stmt 1
  63:src/../h/tcb.hpp ****                 Scheduler::put(this);
 124              		.loc 2 63 29 is_stmt 0
 125 00c4 23A8F402 		sw	a5,48(s1)
  64:src/../h/tcb.hpp ****             }
 126              		.loc 2 64 17 is_stmt 1
  64:src/../h/tcb.hpp ****             }
 127              		.loc 2 64 31 is_stmt 0
 128 00c8 13850400 		mv	a0,s1
 129              	.LEHB1:
 130 00cc 97000000 		call	_ZN9Scheduler3putEP3TCB@plt
GAS LISTING /tmp/ccIzdoeJ.s 			page 5


 130      E7800000 
 131              	.LVL10:
 132              	.LEHE1:
 133 00d4 6FF09FFB 		j	.L1
 134              	.L4:
  68:src/../h/tcb.hpp ****         }
  69:src/../h/tcb.hpp ****         else
  70:src/../h/tcb.hpp ****             this->state = ACTIVE;
 135              		.loc 2 70 13 is_stmt 1
 136              		.loc 2 70 25 is_stmt 0
 137 00d8 93071000 		li	a5,1
 138 00dc 23A8F402 		sw	a5,48(s1)
 139              	.LVL11:
 140              	.LBE23:
 141              	.LBE24:
  20:src/tcb.cpp   **** }
 142              		.loc 1 20 61
 143 00e0 6FF0DFFA 		j	.L1
 144              	.LVL12:
 145              	.L10:
 146 00e4 13090500 		mv	s2,a0
 147 00e8 13850400 		mv	a0,s1
 148 00ec 97000000 		call	_ZdlPv@plt
 148      E7800000 
 149              	.LVL13:
 150 00f4 13050900 		mv	a0,s2
 151              	.LEHB2:
 152 00f8 97000000 		call	_Unwind_Resume@plt
 152      E7800000 
 153              	.LVL14:
 154              	.LEHE2:
 155              		.cfi_endproc
 156              	.LFE35:
 157              		.globl	__gxx_personality_v0
 158              		.section	.gcc_except_table,"a",@progbits
 159              	.LLSDA35:
 160 0000 FF       		.byte	0xff
 161 0001 FF       		.byte	0xff
 162 0002 03       		.byte	0x3
 163 0003 27       		.byte	0x27
 164 0004 00000000 		.4byte	.LEHB0-.LFB35
 165 0008 00000000 		.4byte	.LEHE0-.LEHB0
 166 000c 00000000 		.4byte	0
 167 0010 00       		.byte	0
 168 0011 00000000 		.4byte	.LEHB1-.LFB35
 169 0015 00000000 		.4byte	.LEHE1-.LEHB1
 170 0019 00000000 		.4byte	.L10-.LFB35
 171 001d 00       		.byte	0
 172 001e 00000000 		.4byte	.LEHB2-.LFB35
 173 0022 00000000 		.4byte	.LEHE2-.LEHB2
 174 0026 00000000 		.4byte	0
 175 002a 00       		.byte	0
 176              		.text
 178              		.section	.rodata.str1.8,"aMS",@progbits,1
 179              		.align	3
 180              	.LC0:
 181 0000 0A2D2D2D 		.string	"\n------- NESTO ---\n"
GAS LISTING /tmp/ccIzdoeJ.s 			page 6


 181      2D2D2D2D 
 181      204E4553 
 181      544F202D 
 181      2D2D0A00 
 182              		.text
 183              		.align	2
 184              		.globl	_ZN3TCB8dispatchEv
 186              	_ZN3TCB8dispatchEv:
 187              	.LFB37:
  22:src/tcb.cpp   **** 
  23:src/tcb.cpp   **** //void TCB::yield()
  24:src/tcb.cpp   **** //{
  25:src/tcb.cpp   **** //    __asm__ volatile("ecall");
  26:src/tcb.cpp   **** //}
  27:src/tcb.cpp   **** 
  28:src/tcb.cpp   **** 
  29:src/tcb.cpp   **** int
  30:src/tcb.cpp   **** TCB::threadExit()
  31:src/tcb.cpp   **** {
  32:src/tcb.cpp   ****     if (running->isFinished() || running->getState() != State::ACTIVE)
  33:src/tcb.cpp   ****         return -1;
  34:src/tcb.cpp   **** 
  35:src/tcb.cpp   ****     running->setFinished(true);
  36:src/tcb.cpp   ****     running->state = State::FINISHED;
  37:src/tcb.cpp   ****     TCB::dispatch();
  38:src/tcb.cpp   **** 
  39:src/tcb.cpp   ****     return 0;
  40:src/tcb.cpp   **** }
  41:src/tcb.cpp   **** 
  42:src/tcb.cpp   **** 
  43:src/tcb.cpp   **** void
  44:src/tcb.cpp   **** TCB::dispatch()
  45:src/tcb.cpp   **** {
 188              		.loc 1 45 1 is_stmt 1
 189              		.cfi_startproc
 190 0100 130101FE 		addi	sp,sp,-32
 191              		.cfi_def_cfa_offset 32
 192 0104 233C1100 		sd	ra,24(sp)
 193 0108 23388100 		sd	s0,16(sp)
 194 010c 23349100 		sd	s1,8(sp)
 195              		.cfi_offset 1, -8
 196              		.cfi_offset 8, -16
 197              		.cfi_offset 9, -24
 198 0110 13040102 		addi	s0,sp,32
 199              		.cfi_def_cfa 8, 0
  46:src/tcb.cpp   ****     TCB *old = running;
 200              		.loc 1 46 5
 201              		.loc 1 46 10 is_stmt 0
 202 0114 97040000 		ld	s1,.LANCHOR0
 202      83B40400 
 203              	.LVL15:
  47:src/tcb.cpp   **** 
  48:src/tcb.cpp   ****     if (old->state == State::ACTIVE)
 204              		.loc 1 48 5 is_stmt 1
 205              		.loc 1 48 14 is_stmt 0
 206 011c 03A70403 		lw	a4,48(s1)
 207              		.loc 1 48 5
GAS LISTING /tmp/ccIzdoeJ.s 			page 7


 208 0120 93071000 		li	a5,1
 209 0124 6302F704 		beq	a4,a5,.L19
 210              	.L15:
  49:src/tcb.cpp   ****     {
  50:src/tcb.cpp   ****         old->state = State::READY;
  51:src/tcb.cpp   ****         Scheduler::put(old);
  52:src/tcb.cpp   ****     }
  53:src/tcb.cpp   **** 
  54:src/tcb.cpp   ****     running = Scheduler::get();
 211              		.loc 1 54 5 is_stmt 1
 212              		.loc 1 54 29 is_stmt 0
 213 0128 97000000 		call	_ZN9Scheduler3getEv@plt
 213      E7800000 
 214              	.LVL16:
 215              		.loc 1 54 13
 216 0130 97070000 		sd	a0,.LANCHOR0,a5
 216      23B0A700 
  55:src/tcb.cpp   **** 
  56:src/tcb.cpp   ****     if (running)
 217              		.loc 1 56 5 is_stmt 1
 218 0138 63040504 		beqz	a0,.L16
  57:src/tcb.cpp   ****     {
  58:src/tcb.cpp   ****         running->setState(State::ACTIVE);
 219              		.loc 1 58 9
 220              	.LVL17:
 221              	.LBB25:
 222              	.LBB26:
  26:src/../h/tcb.hpp **** 
 223              		.loc 2 26 34
  26:src/../h/tcb.hpp **** 
 224              		.loc 2 26 45 is_stmt 0
 225 013c 93071000 		li	a5,1
 226 0140 2328F502 		sw	a5,48(a0)
 227              	.LVL18:
 228              	.LBE26:
 229              	.LBE25:
  59:src/tcb.cpp   ****         TCB::contextSwitch(&old->context, &running->context);
 230              		.loc 1 59 9 is_stmt 1
 231              		.loc 1 59 27 is_stmt 0
 232 0144 93058501 		addi	a1,a0,24
 233 0148 13858401 		addi	a0,s1,24
 234 014c 97000000 		call	_ZN3TCB13contextSwitchEPNS_7ContextES1_@plt
 234      E7800000 
 235              	.LVL19:
 236              	.L14:
  60:src/tcb.cpp   ****     }
  61:src/tcb.cpp   ****     else
  62:src/tcb.cpp   ****         printString("\n------- NESTO ---\n");
  63:src/tcb.cpp   **** 
  64:src/tcb.cpp   **** }
 237              		.loc 1 64 1
 238 0154 83308101 		ld	ra,24(sp)
 239              		.cfi_remember_state
 240              		.cfi_restore 1
 241 0158 03340101 		ld	s0,16(sp)
 242              		.cfi_restore 8
 243              		.cfi_def_cfa 2, 32
GAS LISTING /tmp/ccIzdoeJ.s 			page 8


 244 015c 83348100 		ld	s1,8(sp)
 245              		.cfi_restore 9
 246              	.LVL20:
 247 0160 13010102 		addi	sp,sp,32
 248              		.cfi_def_cfa_offset 0
 249 0164 67800000 		jr	ra
 250              	.LVL21:
 251              	.L19:
 252              		.cfi_restore_state
  50:src/tcb.cpp   ****         Scheduler::put(old);
 253              		.loc 1 50 9 is_stmt 1
  50:src/tcb.cpp   ****         Scheduler::put(old);
 254              		.loc 1 50 20 is_stmt 0
 255 0168 93072000 		li	a5,2
 256 016c 23A8F402 		sw	a5,48(s1)
  51:src/tcb.cpp   ****     }
 257              		.loc 1 51 9 is_stmt 1
  51:src/tcb.cpp   ****     }
 258              		.loc 1 51 23 is_stmt 0
 259 0170 13850400 		mv	a0,s1
 260 0174 97000000 		call	_ZN9Scheduler3putEP3TCB@plt
 260      E7800000 
 261              	.LVL22:
 262 017c 6FF0DFFA 		j	.L15
 263              	.L16:
  62:src/tcb.cpp   **** 
 264              		.loc 1 62 9 is_stmt 1
  62:src/tcb.cpp   **** 
 265              		.loc 1 62 20 is_stmt 0
 266 0180 17050000 		lla	a0,.LC0
 266      13050500 
 267 0188 97000000 		call	_Z11printStringPKc@plt
 267      E7800000 
 268              	.LVL23:
 269              		.loc 1 64 1
 270 0190 6FF05FFC 		j	.L14
 271              		.cfi_endproc
 272              	.LFE37:
 274              		.align	2
 275              		.globl	_ZN3TCB10threadExitEv
 277              	_ZN3TCB10threadExitEv:
 278              	.LFB36:
  31:src/tcb.cpp   ****     if (running->isFinished() || running->getState() != State::ACTIVE)
 279              		.loc 1 31 1 is_stmt 1
 280              		.cfi_startproc
  32:src/tcb.cpp   ****         return -1;
 281              		.loc 1 32 5
  32:src/tcb.cpp   ****         return -1;
 282              		.loc 1 32 28 is_stmt 0
 283 0194 97070000 		ld	a5,.LANCHOR0
 283      83B70700 
 284              	.LVL24:
 285              	.LBB27:
 286              	.LBB28:
  18:src/../h/tcb.hpp ****     void setFinished(bool value) { finished = value; }
 287              		.loc 2 18 36 is_stmt 1
  18:src/../h/tcb.hpp ****     void setFinished(bool value) { finished = value; }
GAS LISTING /tmp/ccIzdoeJ.s 			page 9


 288              		.loc 2 18 43 is_stmt 0
 289 019c 03C74703 		lbu	a4,52(a5)
 290              	.LVL25:
 291              	.LBE28:
 292              	.LBE27:
  32:src/tcb.cpp   ****         return -1;
 293              		.loc 1 32 31
 294 01a0 63140704 		bnez	a4,.L22
 295              	.LVL26:
 296              	.LBB29:
 297              	.LBB30:
  25:src/../h/tcb.hpp ****     void  setState(State state) {TCB::state = state;}
 298              		.loc 2 25 35 is_stmt 1 discriminator 2
  25:src/../h/tcb.hpp ****     void  setState(State state) {TCB::state = state;}
 299              		.loc 2 25 42 is_stmt 0 discriminator 2
 300 01a4 83A60703 		lw	a3,48(a5)
 301              	.LVL27:
 302              	.LBE30:
 303              	.LBE29:
  32:src/tcb.cpp   ****         return -1;
 304              		.loc 1 32 31 discriminator 2
 305 01a8 13071000 		li	a4,1
 306 01ac 6392E604 		bne	a3,a4,.L23
  31:src/tcb.cpp   ****     if (running->isFinished() || running->getState() != State::ACTIVE)
 307              		.loc 1 31 1
 308 01b0 130101FF 		addi	sp,sp,-16
 309              		.cfi_def_cfa_offset 16
 310 01b4 23341100 		sd	ra,8(sp)
 311 01b8 23308100 		sd	s0,0(sp)
 312              		.cfi_offset 1, -8
 313              		.cfi_offset 8, -16
 314 01bc 13040101 		addi	s0,sp,16
 315              		.cfi_def_cfa 8, 0
  35:src/tcb.cpp   ****     running->state = State::FINISHED;
 316              		.loc 1 35 5 is_stmt 1
 317              	.LVL28:
 318              	.LBB31:
 319              	.LBB32:
  19:src/../h/tcb.hpp ****     uint64 getTimeSlice() const  { return timeSlice; }
 320              		.loc 2 19 36
  19:src/../h/tcb.hpp ****     uint64 getTimeSlice() const  { return timeSlice; }
 321              		.loc 2 19 45 is_stmt 0
 322 01c0 238AE702 		sb	a4,52(a5)
 323              	.LVL29:
 324              	.LBE32:
 325              	.LBE31:
  36:src/tcb.cpp   ****     TCB::dispatch();
 326              		.loc 1 36 5 is_stmt 1
  36:src/tcb.cpp   ****     TCB::dispatch();
 327              		.loc 1 36 20 is_stmt 0
 328 01c4 13074000 		li	a4,4
 329 01c8 23A8E702 		sw	a4,48(a5)
  37:src/tcb.cpp   **** 
 330              		.loc 1 37 5 is_stmt 1
  37:src/tcb.cpp   **** 
 331              		.loc 1 37 18 is_stmt 0
 332 01cc 97000000 		call	_ZN3TCB8dispatchEv
GAS LISTING /tmp/ccIzdoeJ.s 			page 10


 332      E7800000 
 333              	.LVL30:
  39:src/tcb.cpp   **** }
 334              		.loc 1 39 5 is_stmt 1
  39:src/tcb.cpp   **** }
 335              		.loc 1 39 12 is_stmt 0
 336 01d4 13050000 		li	a0,0
  40:src/tcb.cpp   **** 
 337              		.loc 1 40 1
 338 01d8 83308100 		ld	ra,8(sp)
 339              		.cfi_restore 1
 340 01dc 03340100 		ld	s0,0(sp)
 341              		.cfi_restore 8
 342              		.cfi_def_cfa 2, 16
 343 01e0 13010101 		addi	sp,sp,16
 344              		.cfi_def_cfa_offset 0
 345 01e4 67800000 		jr	ra
 346              	.L22:
  33:src/tcb.cpp   **** 
 347              		.loc 1 33 17
 348 01e8 1305F0FF 		li	a0,-1
 349 01ec 67800000 		ret
 350              	.L23:
 351 01f0 1305F0FF 		li	a0,-1
  40:src/tcb.cpp   **** 
 352              		.loc 1 40 1
 353 01f4 67800000 		ret
 354              		.cfi_endproc
 355              	.LFE36:
 357              		.align	2
 358              		.globl	_ZN3TCB13threadWrapperEv
 360              	_ZN3TCB13threadWrapperEv:
 361              	.LFB38:
  65:src/tcb.cpp   **** 
  66:src/tcb.cpp   **** 
  67:src/tcb.cpp   **** void
  68:src/tcb.cpp   **** TCB::threadWrapper()
  69:src/tcb.cpp   **** {
 362              		.loc 1 69 1 is_stmt 1
 363              		.cfi_startproc
 364 01f8 130101FE 		addi	sp,sp,-32
 365              		.cfi_def_cfa_offset 32
 366 01fc 233C1100 		sd	ra,24(sp)
 367 0200 23388100 		sd	s0,16(sp)
 368 0204 23349100 		sd	s1,8(sp)
 369              		.cfi_offset 1, -8
 370              		.cfi_offset 8, -16
 371              		.cfi_offset 9, -24
 372 0208 13040102 		addi	s0,sp,32
 373              		.cfi_def_cfa 8, 0
  70:src/tcb.cpp   ****     Riscv::popSppSpie();
 374              		.loc 1 70 5
 375              		.loc 1 70 22 is_stmt 0
 376 020c 97000000 		call	_ZN5Riscv10popSppSpieEv@plt
 376      E7800000 
 377              	.LVL31:
  71:src/tcb.cpp   ****     running->body(running->arg);
GAS LISTING /tmp/ccIzdoeJ.s 			page 11


 378              		.loc 1 71 5 is_stmt 1
 379              		.loc 1 71 14 is_stmt 0
 380 0214 97040000 		lla	s1,.LANCHOR0
 380      93840400 
 381 021c 83B70400 		ld	a5,0(s1)
 382 0220 03B70700 		ld	a4,0(a5)
 383              		.loc 1 71 18
 384 0224 03B58700 		ld	a0,8(a5)
 385 0228 E7000700 		jalr	a4
 386              	.LVL32:
  72:src/tcb.cpp   ****     running->setFinished(true);
 387              		.loc 1 72 5 is_stmt 1
 388              		.loc 1 72 25 is_stmt 0
 389 022c 83B70400 		ld	a5,0(s1)
 390              	.LVL33:
 391              	.LBB33:
 392              	.LBB34:
  19:src/../h/tcb.hpp ****     uint64 getTimeSlice() const  { return timeSlice; }
 393              		.loc 2 19 36 is_stmt 1
  19:src/../h/tcb.hpp ****     uint64 getTimeSlice() const  { return timeSlice; }
 394              		.loc 2 19 45 is_stmt 0
 395 0230 13071000 		li	a4,1
 396 0234 238AE702 		sb	a4,52(a5)
 397              	.LVL34:
 398              	.LBE34:
 399              	.LBE33:
  73:src/tcb.cpp   ****     running->setState(State::FINISHED);
 400              		.loc 1 73 5 is_stmt 1
 401              	.LBB35:
 402              	.LBB36:
  26:src/../h/tcb.hpp **** 
 403              		.loc 2 26 34
  26:src/../h/tcb.hpp **** 
 404              		.loc 2 26 45 is_stmt 0
 405 0238 13074000 		li	a4,4
 406 023c 23A8E702 		sw	a4,48(a5)
 407              	.LVL35:
 408              	.LBE36:
 409              	.LBE35:
  74:src/tcb.cpp   **** 
  75:src/tcb.cpp   ****     TCB::dispatch();
 410              		.loc 1 75 5 is_stmt 1
 411              		.loc 1 75 18 is_stmt 0
 412 0240 97000000 		call	_ZN3TCB8dispatchEv
 412      E7800000 
 413              	.LVL36:
  76:src/tcb.cpp   **** }
 414              		.loc 1 76 1
 415 0248 83308101 		ld	ra,24(sp)
 416              		.cfi_restore 1
 417 024c 03340101 		ld	s0,16(sp)
 418              		.cfi_restore 8
 419              		.cfi_def_cfa 2, 32
 420 0250 83348100 		ld	s1,8(sp)
 421              		.cfi_restore 9
 422 0254 13010102 		addi	sp,sp,32
 423              		.cfi_def_cfa_offset 0
GAS LISTING /tmp/ccIzdoeJ.s 			page 12


 424 0258 67800000 		jr	ra
 425              		.cfi_endproc
 426              	.LFE38:
 428              		.align	2
 429              		.globl	_ZN3TCB11threadStartEPS_
 431              	_ZN3TCB11threadStartEPS_:
 432              	.LFB39:
  77:src/tcb.cpp   **** 
  78:src/tcb.cpp   **** 
  79:src/tcb.cpp   **** int
  80:src/tcb.cpp   **** TCB::threadStart(TCB *handle)
  81:src/tcb.cpp   **** {
 433              		.loc 1 81 1 is_stmt 1
 434              		.cfi_startproc
 435              	.LVL37:
  82:src/tcb.cpp   ****     if (handle)
 436              		.loc 1 82 5
 437 025c 63020504 		beqz	a0,.L32
  83:src/tcb.cpp   ****     {
  84:src/tcb.cpp   ****         if (handle->getState() != State::NEW)
 438              		.loc 1 84 9
 439              	.LVL38:
 440              	.LBB37:
 441              	.LBB38:
  25:src/../h/tcb.hpp ****     void  setState(State state) {TCB::state = state;}
 442              		.loc 2 25 35
  25:src/../h/tcb.hpp ****     void  setState(State state) {TCB::state = state;}
 443              		.loc 2 25 42 is_stmt 0
 444 0260 83270503 		lw	a5,48(a0)
 445              	.LVL39:
 446              	.LBE38:
 447              	.LBE37:
 448              		.loc 1 84 9
 449 0264 63920704 		bnez	a5,.L33
  81:src/tcb.cpp   ****     if (handle)
 450              		.loc 1 81 1
 451 0268 130101FF 		addi	sp,sp,-16
 452              		.cfi_def_cfa_offset 16
 453 026c 23341100 		sd	ra,8(sp)
 454 0270 23308100 		sd	s0,0(sp)
 455              		.cfi_offset 1, -8
 456              		.cfi_offset 8, -16
 457 0274 13040101 		addi	s0,sp,16
 458              		.cfi_def_cfa 8, 0
  85:src/tcb.cpp   ****             return -1;
  86:src/tcb.cpp   **** 
  87:src/tcb.cpp   ****         handle->setFinished(false);
 459              		.loc 1 87 9 is_stmt 1
 460              	.LVL40:
 461              	.LBB39:
 462              	.LBB40:
  19:src/../h/tcb.hpp ****     uint64 getTimeSlice() const  { return timeSlice; }
 463              		.loc 2 19 36
  19:src/../h/tcb.hpp ****     uint64 getTimeSlice() const  { return timeSlice; }
 464              		.loc 2 19 45 is_stmt 0
 465 0278 230A0502 		sb	zero,52(a0)
 466              	.LVL41:
GAS LISTING /tmp/ccIzdoeJ.s 			page 13


 467              	.LBE40:
 468              	.LBE39:
  88:src/tcb.cpp   ****         handle->state = State::READY;
 469              		.loc 1 88 9 is_stmt 1
 470              		.loc 1 88 23 is_stmt 0
 471 027c 93072000 		li	a5,2
 472 0280 2328F502 		sw	a5,48(a0)
  89:src/tcb.cpp   ****         Scheduler::put(handle);
 473              		.loc 1 89 9 is_stmt 1
 474              		.loc 1 89 23 is_stmt 0
 475 0284 97000000 		call	_ZN9Scheduler3putEP3TCB@plt
 475      E7800000 
 476              	.LVL42:
  90:src/tcb.cpp   **** 
  91:src/tcb.cpp   ****         return 0;
 477              		.loc 1 91 9 is_stmt 1
 478              		.loc 1 91 16 is_stmt 0
 479 028c 13050000 		li	a0,0
  92:src/tcb.cpp   ****     }
  93:src/tcb.cpp   **** 
  94:src/tcb.cpp   ****     return -1;
  95:src/tcb.cpp   **** }
 480              		.loc 1 95 1
 481 0290 83308100 		ld	ra,8(sp)
 482              		.cfi_restore 1
 483 0294 03340100 		ld	s0,0(sp)
 484              		.cfi_restore 8
 485              		.cfi_def_cfa 2, 16
 486 0298 13010101 		addi	sp,sp,16
 487              		.cfi_def_cfa_offset 0
 488 029c 67800000 		jr	ra
 489              	.LVL43:
 490              	.L32:
  94:src/tcb.cpp   **** }
 491              		.loc 1 94 13
 492 02a0 1305F0FF 		li	a0,-1
 493              	.LVL44:
 494 02a4 67800000 		ret
 495              	.LVL45:
 496              	.L33:
  85:src/tcb.cpp   **** 
 497              		.loc 1 85 21
 498 02a8 1305F0FF 		li	a0,-1
 499              	.LVL46:
 500              		.loc 1 95 1
 501 02ac 67800000 		ret
 502              		.cfi_endproc
 503              	.LFE39:
 505              		.globl	_ZN3TCB16timeSliceCounterE
 506              		.globl	_ZN3TCB7runningE
 507              		.bss
 508              		.align	3
 509              		.set	.LANCHOR0,. + 0
 512              	_ZN3TCB7runningE:
 513 0000 00000000 		.zero	8
 513      00000000 
 516              	_ZN3TCB16timeSliceCounterE:
GAS LISTING /tmp/ccIzdoeJ.s 			page 14


 517 0008 00000000 		.zero	8
 517      00000000 
 518              		.text
 519              	.Letext0:
 520              		.file 3 "src/../h/../lib/hw.h"
 521              		.file 4 "src/../h/scheduler.hpp"
 522              		.file 5 "src/../h/riscv.hpp"
 523              		.file 6 "src/../test/../h/syscall_c.h"
 524              		.file 7 "src/../test/printing.hpp"
 3320              		.align	3
 3323              	DW.ref.__gxx_personality_v0:
 3324 0000 00000000 		.dword	__gxx_personality_v0
 3324      00000000 
 3325              		.ident	"GCC: (Ubuntu 9.4.0-1ubuntu1~20.04) 9.4.0"
 3326              		.section	.note.GNU-stack,"",@progbits
GAS LISTING /tmp/ccIzdoeJ.s 			page 15


DEFINED SYMBOLS
                            *ABS*:0000000000000000 tcb.cpp
     /tmp/ccIzdoeJ.s:9      .text:0000000000000000 _ZN3TCB12createThreadEPFvPvES0_S0_b
     /tmp/ccIzdoeJ.s:13     .text:0000000000000000 .L0 
     /tmp/ccIzdoeJ.s:3323   .data.rel.local.DW.ref.__gxx_personality_v0:0000000000000000 DW.ref.__gxx_personality_v0
     /tmp/ccIzdoeJ.s:17     .text:0000000000000000 .L0 
     /tmp/ccIzdoeJ.s:18     .text:0000000000000004 .L0 
     /tmp/ccIzdoeJ.s:26     .text:0000000000000020 .L0 
     /tmp/ccIzdoeJ.s:27     .text:0000000000000020 .L0 
     /tmp/ccIzdoeJ.s:28     .text:0000000000000020 .L0 
     /tmp/ccIzdoeJ.s:29     .text:0000000000000020 .L0 
     /tmp/ccIzdoeJ.s:30     .text:0000000000000020 .L0 
     /tmp/ccIzdoeJ.s:31     .text:0000000000000020 .L0 
     /tmp/ccIzdoeJ.s:32     .text:0000000000000020 .L0 
     /tmp/ccIzdoeJ.s:34     .text:0000000000000024 .L0 
     /tmp/ccIzdoeJ.s:40     .text:0000000000000034 .L0 
     /tmp/ccIzdoeJ.s:41     .text:0000000000000034 .L0 
     /tmp/ccIzdoeJ.s:53     .text:0000000000000044 .L0 
     /tmp/ccIzdoeJ.s:56     .text:000000000000004c .L0 
     /tmp/ccIzdoeJ.s:60     .text:0000000000000050 .L0 
     /tmp/ccIzdoeJ.s:360    .text:00000000000001f8 _ZN3TCB13threadWrapperEv
     /tmp/ccIzdoeJ.s:64     .text:0000000000000060 .L0 
     /tmp/ccIzdoeJ.s:66     .text:0000000000000064 .L0 
     /tmp/ccIzdoeJ.s:70     .text:000000000000006c .L0 
     /tmp/ccIzdoeJ.s:76     .text:0000000000000080 .L0 
     /tmp/ccIzdoeJ.s:78     .text:0000000000000084 .L0 
     /tmp/ccIzdoeJ.s:80     .text:0000000000000088 .L0 
     /tmp/ccIzdoeJ.s:81     .text:0000000000000088 .L0 
     /tmp/ccIzdoeJ.s:87     .text:000000000000008c .L0 
     /tmp/ccIzdoeJ.s:89     .text:0000000000000094 .L0 
     /tmp/ccIzdoeJ.s:90     .text:0000000000000094 .L0 
     /tmp/ccIzdoeJ.s:92     .text:0000000000000098 .L0 
     /tmp/ccIzdoeJ.s:93     .text:0000000000000098 .L0 
     /tmp/ccIzdoeJ.s:95     .text:000000000000009c .L0 
     /tmp/ccIzdoeJ.s:97     .text:00000000000000a0 .L0 
     /tmp/ccIzdoeJ.s:99     .text:00000000000000a4 .L0 
     /tmp/ccIzdoeJ.s:102    .text:00000000000000a8 .L0 
     /tmp/ccIzdoeJ.s:104    .text:00000000000000ac .L0 
     /tmp/ccIzdoeJ.s:107    .text:00000000000000b0 .L0 
     /tmp/ccIzdoeJ.s:111    .text:00000000000000b4 .L0 
     /tmp/ccIzdoeJ.s:115    .text:00000000000000b4 .L0 
     /tmp/ccIzdoeJ.s:120    .text:00000000000000bc .L0 
     /tmp/ccIzdoeJ.s:124    .text:00000000000000c4 .L0 
     /tmp/ccIzdoeJ.s:125    .text:00000000000000c4 .L0 
     /tmp/ccIzdoeJ.s:127    .text:00000000000000c8 .L0 
     /tmp/ccIzdoeJ.s:128    .text:00000000000000c8 .L0 
     /tmp/ccIzdoeJ.s:136    .text:00000000000000d8 .L0 
     /tmp/ccIzdoeJ.s:137    .text:00000000000000d8 .L0 
     /tmp/ccIzdoeJ.s:143    .text:00000000000000e0 .L0 
     /tmp/ccIzdoeJ.s:155    .text:0000000000000100 .L0 
     /tmp/ccIzdoeJ.s:186    .text:0000000000000100 _ZN3TCB8dispatchEv
     /tmp/ccIzdoeJ.s:189    .text:0000000000000100 .L0 
     /tmp/ccIzdoeJ.s:190    .text:0000000000000100 .L0 
     /tmp/ccIzdoeJ.s:191    .text:0000000000000104 .L0 
     /tmp/ccIzdoeJ.s:195    .text:0000000000000110 .L0 
     /tmp/ccIzdoeJ.s:196    .text:0000000000000110 .L0 
     /tmp/ccIzdoeJ.s:197    .text:0000000000000110 .L0 
GAS LISTING /tmp/ccIzdoeJ.s 			page 16


     /tmp/ccIzdoeJ.s:199    .text:0000000000000114 .L0 
     /tmp/ccIzdoeJ.s:201    .text:0000000000000114 .L0 
     /tmp/ccIzdoeJ.s:202    .text:0000000000000114 .L0 
     /tmp/ccIzdoeJ.s:205    .text:000000000000011c .L0 
     /tmp/ccIzdoeJ.s:206    .text:000000000000011c .L0 
     /tmp/ccIzdoeJ.s:208    .text:0000000000000120 .L0 
     /tmp/ccIzdoeJ.s:212    .text:0000000000000128 .L0 
     /tmp/ccIzdoeJ.s:213    .text:0000000000000128 .L0 
     /tmp/ccIzdoeJ.s:216    .text:0000000000000130 .L0 
     /tmp/ccIzdoeJ.s:218    .text:0000000000000138 .L0 
     /tmp/ccIzdoeJ.s:223    .text:000000000000013c .L0 
     /tmp/ccIzdoeJ.s:224    .text:000000000000013c .L0 
     /tmp/ccIzdoeJ.s:225    .text:000000000000013c .L0 
     /tmp/ccIzdoeJ.s:231    .text:0000000000000144 .L0 
     /tmp/ccIzdoeJ.s:232    .text:0000000000000144 .L0 
     /tmp/ccIzdoeJ.s:238    .text:0000000000000154 .L0 
     /tmp/ccIzdoeJ.s:239    .text:0000000000000158 .L0 
     /tmp/ccIzdoeJ.s:240    .text:0000000000000158 .L0 
     /tmp/ccIzdoeJ.s:242    .text:000000000000015c .L0 
     /tmp/ccIzdoeJ.s:243    .text:000000000000015c .L0 
     /tmp/ccIzdoeJ.s:245    .text:0000000000000160 .L0 
     /tmp/ccIzdoeJ.s:248    .text:0000000000000164 .L0 
     /tmp/ccIzdoeJ.s:252    .text:0000000000000168 .L0 
     /tmp/ccIzdoeJ.s:254    .text:0000000000000168 .L0 
     /tmp/ccIzdoeJ.s:255    .text:0000000000000168 .L0 
     /tmp/ccIzdoeJ.s:258    .text:0000000000000170 .L0 
     /tmp/ccIzdoeJ.s:259    .text:0000000000000170 .L0 
     /tmp/ccIzdoeJ.s:265    .text:0000000000000180 .L0 
     /tmp/ccIzdoeJ.s:266    .text:0000000000000180 .L0 
     /tmp/ccIzdoeJ.s:270    .text:0000000000000190 .L0 
     /tmp/ccIzdoeJ.s:271    .text:0000000000000194 .L0 
     /tmp/ccIzdoeJ.s:277    .text:0000000000000194 _ZN3TCB10threadExitEv
     /tmp/ccIzdoeJ.s:280    .text:0000000000000194 .L0 
     /tmp/ccIzdoeJ.s:281    .text:0000000000000194 .L0 
     /tmp/ccIzdoeJ.s:282    .text:0000000000000194 .L0 
     /tmp/ccIzdoeJ.s:283    .text:0000000000000194 .L0 
     /tmp/ccIzdoeJ.s:288    .text:000000000000019c .L0 
     /tmp/ccIzdoeJ.s:289    .text:000000000000019c .L0 
     /tmp/ccIzdoeJ.s:294    .text:00000000000001a0 .L0 
     /tmp/ccIzdoeJ.s:299    .text:00000000000001a4 .L0 
     /tmp/ccIzdoeJ.s:300    .text:00000000000001a4 .L0 
     /tmp/ccIzdoeJ.s:305    .text:00000000000001a8 .L0 
     /tmp/ccIzdoeJ.s:308    .text:00000000000001b0 .L0 
     /tmp/ccIzdoeJ.s:309    .text:00000000000001b4 .L0 
     /tmp/ccIzdoeJ.s:312    .text:00000000000001bc .L0 
     /tmp/ccIzdoeJ.s:313    .text:00000000000001bc .L0 
     /tmp/ccIzdoeJ.s:315    .text:00000000000001c0 .L0 
     /tmp/ccIzdoeJ.s:320    .text:00000000000001c0 .L0 
     /tmp/ccIzdoeJ.s:321    .text:00000000000001c0 .L0 
     /tmp/ccIzdoeJ.s:322    .text:00000000000001c0 .L0 
     /tmp/ccIzdoeJ.s:327    .text:00000000000001c4 .L0 
     /tmp/ccIzdoeJ.s:328    .text:00000000000001c4 .L0 
     /tmp/ccIzdoeJ.s:331    .text:00000000000001cc .L0 
     /tmp/ccIzdoeJ.s:332    .text:00000000000001cc .L0 
     /tmp/ccIzdoeJ.s:335    .text:00000000000001d4 .L0 
     /tmp/ccIzdoeJ.s:336    .text:00000000000001d4 .L0 
     /tmp/ccIzdoeJ.s:338    .text:00000000000001d8 .L0 
GAS LISTING /tmp/ccIzdoeJ.s 			page 17


     /tmp/ccIzdoeJ.s:339    .text:00000000000001dc .L0 
     /tmp/ccIzdoeJ.s:341    .text:00000000000001e0 .L0 
     /tmp/ccIzdoeJ.s:342    .text:00000000000001e0 .L0 
     /tmp/ccIzdoeJ.s:344    .text:00000000000001e4 .L0 
     /tmp/ccIzdoeJ.s:348    .text:00000000000001e8 .L0 
     /tmp/ccIzdoeJ.s:353    .text:00000000000001f4 .L0 
     /tmp/ccIzdoeJ.s:354    .text:00000000000001f8 .L0 
     /tmp/ccIzdoeJ.s:363    .text:00000000000001f8 .L0 
     /tmp/ccIzdoeJ.s:364    .text:00000000000001f8 .L0 
     /tmp/ccIzdoeJ.s:365    .text:00000000000001fc .L0 
     /tmp/ccIzdoeJ.s:369    .text:0000000000000208 .L0 
     /tmp/ccIzdoeJ.s:370    .text:0000000000000208 .L0 
     /tmp/ccIzdoeJ.s:371    .text:0000000000000208 .L0 
     /tmp/ccIzdoeJ.s:373    .text:000000000000020c .L0 
     /tmp/ccIzdoeJ.s:375    .text:000000000000020c .L0 
     /tmp/ccIzdoeJ.s:376    .text:000000000000020c .L0 
     /tmp/ccIzdoeJ.s:379    .text:0000000000000214 .L0 
     /tmp/ccIzdoeJ.s:380    .text:0000000000000214 .L0 
     /tmp/ccIzdoeJ.s:384    .text:0000000000000224 .L0 
     /tmp/ccIzdoeJ.s:388    .text:000000000000022c .L0 
     /tmp/ccIzdoeJ.s:389    .text:000000000000022c .L0 
     /tmp/ccIzdoeJ.s:394    .text:0000000000000230 .L0 
     /tmp/ccIzdoeJ.s:395    .text:0000000000000230 .L0 
     /tmp/ccIzdoeJ.s:403    .text:0000000000000238 .L0 
     /tmp/ccIzdoeJ.s:404    .text:0000000000000238 .L0 
     /tmp/ccIzdoeJ.s:405    .text:0000000000000238 .L0 
     /tmp/ccIzdoeJ.s:411    .text:0000000000000240 .L0 
     /tmp/ccIzdoeJ.s:412    .text:0000000000000240 .L0 
     /tmp/ccIzdoeJ.s:415    .text:0000000000000248 .L0 
     /tmp/ccIzdoeJ.s:416    .text:000000000000024c .L0 
     /tmp/ccIzdoeJ.s:418    .text:0000000000000250 .L0 
     /tmp/ccIzdoeJ.s:419    .text:0000000000000250 .L0 
     /tmp/ccIzdoeJ.s:421    .text:0000000000000254 .L0 
     /tmp/ccIzdoeJ.s:423    .text:0000000000000258 .L0 
     /tmp/ccIzdoeJ.s:425    .text:000000000000025c .L0 
     /tmp/ccIzdoeJ.s:431    .text:000000000000025c _ZN3TCB11threadStartEPS_
     /tmp/ccIzdoeJ.s:434    .text:000000000000025c .L0 
     /tmp/ccIzdoeJ.s:436    .text:000000000000025c .L0 
     /tmp/ccIzdoeJ.s:437    .text:000000000000025c .L0 
     /tmp/ccIzdoeJ.s:442    .text:0000000000000260 .L0 
     /tmp/ccIzdoeJ.s:443    .text:0000000000000260 .L0 
     /tmp/ccIzdoeJ.s:444    .text:0000000000000260 .L0 
     /tmp/ccIzdoeJ.s:449    .text:0000000000000264 .L0 
     /tmp/ccIzdoeJ.s:451    .text:0000000000000268 .L0 
     /tmp/ccIzdoeJ.s:452    .text:000000000000026c .L0 
     /tmp/ccIzdoeJ.s:455    .text:0000000000000274 .L0 
     /tmp/ccIzdoeJ.s:456    .text:0000000000000274 .L0 
     /tmp/ccIzdoeJ.s:458    .text:0000000000000278 .L0 
     /tmp/ccIzdoeJ.s:463    .text:0000000000000278 .L0 
     /tmp/ccIzdoeJ.s:464    .text:0000000000000278 .L0 
     /tmp/ccIzdoeJ.s:465    .text:0000000000000278 .L0 
     /tmp/ccIzdoeJ.s:470    .text:000000000000027c .L0 
     /tmp/ccIzdoeJ.s:471    .text:000000000000027c .L0 
     /tmp/ccIzdoeJ.s:474    .text:0000000000000284 .L0 
     /tmp/ccIzdoeJ.s:475    .text:0000000000000284 .L0 
     /tmp/ccIzdoeJ.s:478    .text:000000000000028c .L0 
     /tmp/ccIzdoeJ.s:479    .text:000000000000028c .L0 
GAS LISTING /tmp/ccIzdoeJ.s 			page 18


     /tmp/ccIzdoeJ.s:481    .text:0000000000000290 .L0 
     /tmp/ccIzdoeJ.s:482    .text:0000000000000294 .L0 
     /tmp/ccIzdoeJ.s:484    .text:0000000000000298 .L0 
     /tmp/ccIzdoeJ.s:485    .text:0000000000000298 .L0 
     /tmp/ccIzdoeJ.s:487    .text:000000000000029c .L0 
     /tmp/ccIzdoeJ.s:492    .text:00000000000002a0 .L0 
     /tmp/ccIzdoeJ.s:498    .text:00000000000002a8 .L0 
     /tmp/ccIzdoeJ.s:501    .text:00000000000002ac .L0 
     /tmp/ccIzdoeJ.s:502    .text:00000000000002b0 .L0 
     /tmp/ccIzdoeJ.s:516    .bss:0000000000000008 _ZN3TCB16timeSliceCounterE
     /tmp/ccIzdoeJ.s:512    .bss:0000000000000000 _ZN3TCB7runningE
     /tmp/ccIzdoeJ.s:509    .bss:0000000000000000 .LANCHOR0
     /tmp/ccIzdoeJ.s:525    .text:00000000000002b0 .L0 
     /tmp/ccIzdoeJ.s:61     .text:0000000000000054 .L0 
     /tmp/ccIzdoeJ.s:202    .text:0000000000000114 .L0 
     /tmp/ccIzdoeJ.s:216    .text:0000000000000130 .L0 
     /tmp/ccIzdoeJ.s:180    .rodata.str1.8:0000000000000000 .LC0
     /tmp/ccIzdoeJ.s:266    .text:0000000000000180 .L0 
     /tmp/ccIzdoeJ.s:283    .text:0000000000000194 .L0 
     /tmp/ccIzdoeJ.s:380    .text:0000000000000214 .L0 
     /tmp/ccIzdoeJ.s:110    .text:00000000000000b4 .L12
     /tmp/ccIzdoeJ.s:118    .text:00000000000000bc .L9
     /tmp/ccIzdoeJ.s:134    .text:00000000000000d8 .L4
     /tmp/ccIzdoeJ.s:122    .text:00000000000000c4 .L13
     /tmp/ccIzdoeJ.s:58     .text:0000000000000050 .L2
     /tmp/ccIzdoeJ.s:68     .text:000000000000006c .L3
     /tmp/ccIzdoeJ.s:83     .text:000000000000008c .L1
     /tmp/ccIzdoeJ.s:251    .text:0000000000000168 .L19
     /tmp/ccIzdoeJ.s:263    .text:0000000000000180 .L16
     /tmp/ccIzdoeJ.s:210    .text:0000000000000128 .L15
     /tmp/ccIzdoeJ.s:236    .text:0000000000000154 .L14
     /tmp/ccIzdoeJ.s:346    .text:00000000000001e8 .L22
     /tmp/ccIzdoeJ.s:350    .text:00000000000001f0 .L23
     /tmp/ccIzdoeJ.s:490    .text:00000000000002a0 .L32
     /tmp/ccIzdoeJ.s:496    .text:00000000000002a8 .L33
     /tmp/ccIzdoeJ.s:43     .text:0000000000000038 .LEHB0
     /tmp/ccIzdoeJ.s:10     .text:0000000000000000 .LFB35
     /tmp/ccIzdoeJ.s:46     .text:0000000000000040 .LEHE0
     /tmp/ccIzdoeJ.s:129    .text:00000000000000cc .LEHB1
     /tmp/ccIzdoeJ.s:132    .text:00000000000000d4 .LEHE1
     /tmp/ccIzdoeJ.s:145    .text:00000000000000e4 .L10
     /tmp/ccIzdoeJ.s:151    .text:00000000000000f8 .LEHB2
     /tmp/ccIzdoeJ.s:154    .text:0000000000000100 .LEHE2
     /tmp/ccIzdoeJ.s:1699   .debug_abbrev:0000000000000000 .Ldebug_abbrev0
     /tmp/ccIzdoeJ.s:3279   .debug_str:0000000000000638 .LASF113
     /tmp/ccIzdoeJ.s:3197   .debug_str:0000000000000432 .LASF114
     /tmp/ccIzdoeJ.s:3137   .debug_str:000000000000024f .LASF115
     /tmp/ccIzdoeJ.s:5      .text:0000000000000000 .Ltext0
     /tmp/ccIzdoeJ.s:519    .text:00000000000002b0 .Letext0
     /tmp/ccIzdoeJ.s:3061   .debug_line:0000000000000000 .Ldebug_line0
     /tmp/ccIzdoeJ.s:3213   .debug_str:0000000000000490 .LASF0
     /tmp/ccIzdoeJ.s:3223   .debug_str:00000000000004bd .LASF1
     /tmp/ccIzdoeJ.s:3201   .debug_str:0000000000000445 .LASF2
     /tmp/ccIzdoeJ.s:3167   .debug_str:0000000000000379 .LASF4
     /tmp/ccIzdoeJ.s:3251   .debug_str:0000000000000574 .LASF3
     /tmp/ccIzdoeJ.s:3087   .debug_str:00000000000000a3 .LASF5
     /tmp/ccIzdoeJ.s:3225   .debug_str:00000000000004d0 .LASF6
GAS LISTING /tmp/ccIzdoeJ.s 			page 19


     /tmp/ccIzdoeJ.s:3211   .debug_str:000000000000047d .LASF7
     /tmp/ccIzdoeJ.s:3289   .debug_str:0000000000000733 .LASF8
     /tmp/ccIzdoeJ.s:3149   .debug_str:00000000000002b8 .LASF9
     /tmp/ccIzdoeJ.s:3235   .debug_str:0000000000000514 .LASF10
     /tmp/ccIzdoeJ.s:3281   .debug_str:00000000000006fc .LASF11
     /tmp/ccIzdoeJ.s:3089   .debug_str:00000000000000aa .LASF12
     /tmp/ccIzdoeJ.s:3067   .debug_str:0000000000000022 .LASF13
     /tmp/ccIzdoeJ.s:3101   .debug_str:0000000000000124 .LASF14
     /tmp/ccIzdoeJ.s:3247   .debug_str:0000000000000558 .LASF15
     /tmp/ccIzdoeJ.s:3111   .debug_str:0000000000000173 .LASF16
     /tmp/ccIzdoeJ.s:3231   .debug_str:0000000000000504 .LASF17
     /tmp/ccIzdoeJ.s:3291   .debug_str:0000000000000743 .LASF44
     /tmp/ccIzdoeJ.s:3163   .debug_str:000000000000033d .LASF116
     /tmp/ccIzdoeJ.s:3097   .debug_str:0000000000000102 .LASF117
     /tmp/ccIzdoeJ.s:3191   .debug_str:0000000000000409 .LASF118
     /tmp/ccIzdoeJ.s:3075   .debug_str:000000000000004d .LASF119
     /tmp/ccIzdoeJ.s:3119   .debug_str:00000000000001d2 .LASF18
     /tmp/ccIzdoeJ.s:3241   .debug_str:000000000000053c .LASF20
     /tmp/ccIzdoeJ.s:3227   .debug_str:00000000000004e3 .LASF22
     /tmp/ccIzdoeJ.s:3147   .debug_str:00000000000002a1 .LASF24
     /tmp/ccIzdoeJ.s:3203   .debug_str:0000000000000453 .LASF19
     /tmp/ccIzdoeJ.s:3309   .debug_str:00000000000007c7 .LASF21
     /tmp/ccIzdoeJ.s:3193   .debug_str:0000000000000413 .LASF23
     /tmp/ccIzdoeJ.s:3085   .debug_str:000000000000008a .LASF25
     /tmp/ccIzdoeJ.s:3217   .debug_str:00000000000004a4 .LASF40
     /tmp/ccIzdoeJ.s:3133   .debug_str:0000000000000237 .LASF42
     /tmp/ccIzdoeJ.s:3181   .debug_str:00000000000003c2 .LASF26
     /tmp/ccIzdoeJ.s:3139   .debug_str:000000000000026d .LASF27
     /tmp/ccIzdoeJ.s:3207   .debug_str:0000000000000469 .LASF28
     /tmp/ccIzdoeJ.s:3295   .debug_str:0000000000000765 .LASF29
     /tmp/ccIzdoeJ.s:3183   .debug_str:00000000000003cb .LASF30
     /tmp/ccIzdoeJ.s:3311   .debug_str:00000000000007de .LASF31
     /tmp/ccIzdoeJ.s:3243   .debug_str:0000000000000548 .LASF120
     /tmp/ccIzdoeJ.s:3127   .debug_str:0000000000000213 .LASF121
     /tmp/ccIzdoeJ.s:3153   .debug_str:00000000000002dc .LASF122
     /tmp/ccIzdoeJ.s:3175   .debug_str:00000000000003aa .LASF32
     /tmp/ccIzdoeJ.s:3105   .debug_str:0000000000000140 .LASF33
     /tmp/ccIzdoeJ.s:3179   .debug_str:00000000000003ba .LASF34
     /tmp/ccIzdoeJ.s:3219   .debug_str:00000000000004ad .LASF35
     /tmp/ccIzdoeJ.s:3079   .debug_str:000000000000005b .LASF36
     /tmp/ccIzdoeJ.s:3173   .debug_str:00000000000003a1 .LASF37
     /tmp/ccIzdoeJ.s:3195   .debug_str:0000000000000420 .LASF38
     /tmp/ccIzdoeJ.s:3187   .debug_str:00000000000003e3 .LASF97
     /tmp/ccIzdoeJ.s:3157   .debug_str:000000000000030a .LASF99
     /tmp/ccIzdoeJ.s:3293   .debug_str:0000000000000757 .LASF39
     /tmp/ccIzdoeJ.s:3165   .debug_str:0000000000000351 .LASF123
     /tmp/ccIzdoeJ.s:3299   .debug_str:0000000000000784 .LASF41
     /tmp/ccIzdoeJ.s:3151   .debug_str:00000000000002c6 .LASF43
     /tmp/ccIzdoeJ.s:3273   .debug_str:0000000000000613 .LASF62
     /tmp/ccIzdoeJ.s:3171   .debug_str:0000000000000388 .LASF64
     /tmp/ccIzdoeJ.s:3253   .debug_str:0000000000000586 .LASF45
     /tmp/ccIzdoeJ.s:3185   .debug_str:00000000000003d8 .LASF46
     /tmp/ccIzdoeJ.s:3159   .debug_str:0000000000000323 .LASF47
     /tmp/ccIzdoeJ.s:3249   .debug_str:000000000000056e .LASF52
     /tmp/ccIzdoeJ.s:3297   .debug_str:000000000000077d .LASF48
     /tmp/ccIzdoeJ.s:3233   .debug_str:000000000000050e .LASF49
     /tmp/ccIzdoeJ.s:3169   .debug_str:0000000000000380 .LASF50
GAS LISTING /tmp/ccIzdoeJ.s 			page 20


     /tmp/ccIzdoeJ.s:3261   .debug_str:00000000000005c1 .LASF51
     /tmp/ccIzdoeJ.s:3135   .debug_str:000000000000024a .LASF53
     /tmp/ccIzdoeJ.s:3221   .debug_str:00000000000004b7 .LASF54
     /tmp/ccIzdoeJ.s:3245   .debug_str:000000000000054d .LASF55
     /tmp/ccIzdoeJ.s:3303   .debug_str:0000000000000794 .LASF56
     /tmp/ccIzdoeJ.s:3083   .debug_str:000000000000007c .LASF57
     /tmp/ccIzdoeJ.s:3125   .debug_str:00000000000001f8 .LASF58
     /tmp/ccIzdoeJ.s:3267   .debug_str:00000000000005ec .LASF59
     /tmp/ccIzdoeJ.s:3065   .debug_str:0000000000000008 .LASF60
     /tmp/ccIzdoeJ.s:3069   .debug_str:0000000000000032 .LASF61
     /tmp/ccIzdoeJ.s:3265   .debug_str:00000000000005d7 .LASF67
     /tmp/ccIzdoeJ.s:3121   .debug_str:00000000000001d7 .LASF63
     /tmp/ccIzdoeJ.s:3107   .debug_str:0000000000000146 .LASF65
     /tmp/ccIzdoeJ.s:3255   .debug_str:0000000000000597 .LASF66
     /tmp/ccIzdoeJ.s:3239   .debug_str:0000000000000529 .LASF68
     /tmp/ccIzdoeJ.s:3277   .debug_str:0000000000000631 .LASF69
     /tmp/ccIzdoeJ.s:3271   .debug_str:0000000000000600 .LASF70
     /tmp/ccIzdoeJ.s:3143   .debug_str:0000000000000293 .LASF71
     /tmp/ccIzdoeJ.s:3113   .debug_str:0000000000000189 .LASF72
     /tmp/ccIzdoeJ.s:3063   .debug_str:0000000000000000 .LASF73
     /tmp/ccIzdoeJ.s:3257   .debug_str:000000000000059e .LASF74
     /tmp/ccIzdoeJ.s:3129   .debug_str:000000000000021b .LASF75
     /tmp/ccIzdoeJ.s:3093   .debug_str:00000000000000d2 .LASF76
     /tmp/ccIzdoeJ.s:3307   .debug_str:00000000000007bf .LASF77
     /tmp/ccIzdoeJ.s:3131   .debug_str:0000000000000223 .LASF78
     /tmp/ccIzdoeJ.s:3215   .debug_str:000000000000049d .LASF79
     /tmp/ccIzdoeJ.s:3305   .debug_str:00000000000007ac .LASF80
     /tmp/ccIzdoeJ.s:3285   .debug_str:0000000000000717 .LASF81
     /tmp/ccIzdoeJ.s:3141   .debug_str:0000000000000280 .LASF82
     /tmp/ccIzdoeJ.s:3145   .debug_str:000000000000029b .LASF83
     /tmp/ccIzdoeJ.s:3275   .debug_str:000000000000061f .LASF84
     /tmp/ccIzdoeJ.s:3077   .debug_str:0000000000000055 .LASF85
     /tmp/ccIzdoeJ.s:3315   .debug_str:0000000000000813 .LASF86
     /tmp/ccIzdoeJ.s:3209   .debug_str:0000000000000472 .LASF87
     /tmp/ccIzdoeJ.s:3091   .debug_str:00000000000000ba .LASF88
     /tmp/ccIzdoeJ.s:3177   .debug_str:00000000000003af .LASF89
     /tmp/ccIzdoeJ.s:3189   .debug_str:00000000000003f1 .LASF90
     /tmp/ccIzdoeJ.s:3099   .debug_str:000000000000011a .LASF91
     /tmp/ccIzdoeJ.s:3229   .debug_str:00000000000004ee .LASF92
     /tmp/ccIzdoeJ.s:3205   .debug_str:000000000000045f .LASF93
     /tmp/ccIzdoeJ.s:3155   .debug_str:00000000000002f4 .LASF94
     /tmp/ccIzdoeJ.s:3259   .debug_str:00000000000005b2 .LASF95
     /tmp/ccIzdoeJ.s:3095   .debug_str:00000000000000e6 .LASF96
     /tmp/ccIzdoeJ.s:3287   .debug_str:000000000000071e .LASF98
     /tmp/ccIzdoeJ.s:3115   .debug_str:000000000000019d .LASF100
     /tmp/ccIzdoeJ.s:3313   .debug_str:0000000000000802 .LASF101
     /tmp/ccIzdoeJ.s:3081   .debug_str:0000000000000061 .LASF102
     /tmp/ccIzdoeJ.s:432    .text:000000000000025c .LFB39
     /tmp/ccIzdoeJ.s:503    .text:00000000000002b0 .LFE39
     /tmp/ccIzdoeJ.s:3269   .debug_str:00000000000005f9 .LASF103
     /tmp/ccIzdoeJ.s:2718   .debug_loc:0000000000000000 .LLST20
     /tmp/ccIzdoeJ.s:440    .text:0000000000000260 .LBB37
     /tmp/ccIzdoeJ.s:447    .text:0000000000000264 .LBE37
     /tmp/ccIzdoeJ.s:2754   .debug_loc:000000000000008b .LLST21
     /tmp/ccIzdoeJ.s:461    .text:0000000000000278 .LBB39
     /tmp/ccIzdoeJ.s:468    .text:000000000000027c .LBE39
     /tmp/ccIzdoeJ.s:2761   .debug_loc:00000000000000ae .LLST22
GAS LISTING /tmp/ccIzdoeJ.s 			page 21


     /tmp/ccIzdoeJ.s:2769   .debug_loc:00000000000000d2 .LLST23
     /tmp/ccIzdoeJ.s:476    .text:000000000000028c .LVL42
     /tmp/ccIzdoeJ.s:361    .text:00000000000001f8 .LFB38
     /tmp/ccIzdoeJ.s:426    .text:000000000000025c .LFE38
     /tmp/ccIzdoeJ.s:391    .text:0000000000000230 .LBB33
     /tmp/ccIzdoeJ.s:399    .text:0000000000000238 .LBE33
     /tmp/ccIzdoeJ.s:2776   .debug_loc:00000000000000f5 .LLST16
     /tmp/ccIzdoeJ.s:2784   .debug_loc:0000000000000119 .LLST17
     /tmp/ccIzdoeJ.s:401    .text:0000000000000238 .LBB35
     /tmp/ccIzdoeJ.s:409    .text:0000000000000240 .LBE35
     /tmp/ccIzdoeJ.s:2791   .debug_loc:000000000000013c .LLST18
     /tmp/ccIzdoeJ.s:2799   .debug_loc:0000000000000160 .LLST19
     /tmp/ccIzdoeJ.s:377    .text:0000000000000214 .LVL31
     /tmp/ccIzdoeJ.s:413    .text:0000000000000248 .LVL36
     /tmp/ccIzdoeJ.s:187    .text:0000000000000100 .LFB37
     /tmp/ccIzdoeJ.s:272    .text:0000000000000194 .LFE37
     /tmp/ccIzdoeJ.s:2806   .debug_loc:0000000000000183 .LLST9
     /tmp/ccIzdoeJ.s:221    .text:000000000000013c .LBB25
     /tmp/ccIzdoeJ.s:229    .text:0000000000000144 .LBE25
     /tmp/ccIzdoeJ.s:2817   .debug_loc:00000000000001b9 .LLST10
     /tmp/ccIzdoeJ.s:2825   .debug_loc:00000000000001dd .LLST11
     /tmp/ccIzdoeJ.s:214    .text:0000000000000130 .LVL16
     /tmp/ccIzdoeJ.s:235    .text:0000000000000154 .LVL19
     /tmp/ccIzdoeJ.s:261    .text:000000000000017c .LVL22
     /tmp/ccIzdoeJ.s:268    .text:0000000000000190 .LVL23
     /tmp/ccIzdoeJ.s:278    .text:0000000000000194 .LFB36
     /tmp/ccIzdoeJ.s:355    .text:00000000000001f8 .LFE36
     /tmp/ccIzdoeJ.s:285    .text:000000000000019c .LBB27
     /tmp/ccIzdoeJ.s:292    .text:00000000000001a0 .LBE27
     /tmp/ccIzdoeJ.s:2832   .debug_loc:0000000000000200 .LLST12
     /tmp/ccIzdoeJ.s:296    .text:00000000000001a4 .LBB29
     /tmp/ccIzdoeJ.s:303    .text:00000000000001a8 .LBE29
     /tmp/ccIzdoeJ.s:2839   .debug_loc:0000000000000223 .LLST13
     /tmp/ccIzdoeJ.s:318    .text:00000000000001c0 .LBB31
     /tmp/ccIzdoeJ.s:325    .text:00000000000001c4 .LBE31
     /tmp/ccIzdoeJ.s:2846   .debug_loc:0000000000000246 .LLST14
     /tmp/ccIzdoeJ.s:2854   .debug_loc:000000000000026a .LLST15
     /tmp/ccIzdoeJ.s:333    .text:00000000000001d4 .LVL30
     /tmp/ccIzdoeJ.s:156    .text:0000000000000100 .LFE35
     /tmp/ccIzdoeJ.s:2861   .debug_loc:000000000000028d .LLST0
     /tmp/ccIzdoeJ.s:2883   .debug_loc:00000000000002ec .LLST1
     /tmp/ccIzdoeJ.s:3283   .debug_str:000000000000070b .LASF104
     /tmp/ccIzdoeJ.s:2905   .debug_loc:000000000000034b .LLST2
     /tmp/ccIzdoeJ.s:2934   .debug_loc:00000000000003c0 .LLST3
     /tmp/ccIzdoeJ.s:49     .text:0000000000000044 .LBB21
     /tmp/ccIzdoeJ.s:3053   .debug_ranges:0000000000000000 .Ldebug_ranges0
     /tmp/ccIzdoeJ.s:2948   .debug_loc:00000000000003f9 .LLST4
     /tmp/ccIzdoeJ.s:2963   .debug_loc:0000000000000442 .LLST5
     /tmp/ccIzdoeJ.s:2995   .debug_loc:00000000000004ba .LLST6
     /tmp/ccIzdoeJ.s:3010   .debug_loc:0000000000000503 .LLST7
     /tmp/ccIzdoeJ.s:3025   .debug_loc:000000000000054c .LLST8
     /tmp/ccIzdoeJ.s:131    .text:00000000000000d4 .LVL10
     /tmp/ccIzdoeJ.s:45     .text:0000000000000040 .LVL2
     /tmp/ccIzdoeJ.s:149    .text:00000000000000f4 .LVL13
     /tmp/ccIzdoeJ.s:153    .text:0000000000000100 .LVL14
     /tmp/ccIzdoeJ.s:3301   .debug_str:000000000000078f .LASF105
     /tmp/ccIzdoeJ.s:3123   .debug_str:00000000000001e0 .LASF124
GAS LISTING /tmp/ccIzdoeJ.s 			page 22


     /tmp/ccIzdoeJ.s:3237   .debug_str:0000000000000523 .LASF106
     /tmp/ccIzdoeJ.s:3117   .debug_str:00000000000001bf .LASF125
     /tmp/ccIzdoeJ.s:3073   .debug_str:0000000000000041 .LASF126
     /tmp/ccIzdoeJ.s:3071   .debug_str:000000000000003b .LASF107
     /tmp/ccIzdoeJ.s:3263   .debug_str:00000000000005ca .LASF109
     /tmp/ccIzdoeJ.s:3199   .debug_str:000000000000043e .LASF108
     /tmp/ccIzdoeJ.s:3103   .debug_str:0000000000000130 .LASF110
     /tmp/ccIzdoeJ.s:3161   .debug_str:000000000000032e .LASF111
     /tmp/ccIzdoeJ.s:3109   .debug_str:000000000000015b .LASF112
     /tmp/ccIzdoeJ.s:435    .text:000000000000025c .LVL37
     /tmp/ccIzdoeJ.s:489    .text:00000000000002a0 .LVL43
     /tmp/ccIzdoeJ.s:493    .text:00000000000002a4 .LVL44
     /tmp/ccIzdoeJ.s:495    .text:00000000000002a8 .LVL45
     /tmp/ccIzdoeJ.s:499    .text:00000000000002ac .LVL46
     /tmp/ccIzdoeJ.s:439    .text:0000000000000260 .LVL38
     /tmp/ccIzdoeJ.s:445    .text:0000000000000264 .LVL39
     /tmp/ccIzdoeJ.s:460    .text:0000000000000278 .LVL40
     /tmp/ccIzdoeJ.s:466    .text:000000000000027c .LVL41
     /tmp/ccIzdoeJ.s:390    .text:0000000000000230 .LVL33
     /tmp/ccIzdoeJ.s:397    .text:0000000000000238 .LVL34
     /tmp/ccIzdoeJ.s:407    .text:0000000000000240 .LVL35
     /tmp/ccIzdoeJ.s:203    .text:000000000000011c .LVL15
     /tmp/ccIzdoeJ.s:246    .text:0000000000000160 .LVL20
     /tmp/ccIzdoeJ.s:250    .text:0000000000000168 .LVL21
     /tmp/ccIzdoeJ.s:220    .text:000000000000013c .LVL17
     /tmp/ccIzdoeJ.s:227    .text:0000000000000144 .LVL18
     /tmp/ccIzdoeJ.s:284    .text:000000000000019c .LVL24
     /tmp/ccIzdoeJ.s:290    .text:00000000000001a0 .LVL25
     /tmp/ccIzdoeJ.s:295    .text:00000000000001a4 .LVL26
     /tmp/ccIzdoeJ.s:301    .text:00000000000001a8 .LVL27
     /tmp/ccIzdoeJ.s:317    .text:00000000000001c0 .LVL28
     /tmp/ccIzdoeJ.s:323    .text:00000000000001c4 .LVL29
     /tmp/ccIzdoeJ.s:16     .text:0000000000000000 .LVL0
     /tmp/ccIzdoeJ.s:42     .text:0000000000000038 .LVL1
     /tmp/ccIzdoeJ.s:100    .text:00000000000000a4 .LVL6
     /tmp/ccIzdoeJ.s:109    .text:00000000000000b4 .LVL8
     /tmp/ccIzdoeJ.s:105    .text:00000000000000ac .LVL7
     /tmp/ccIzdoeJ.s:57     .text:0000000000000050 .LVL4
     /tmp/ccIzdoeJ.s:116    .text:00000000000000b8 .LVL9
     /tmp/ccIzdoeJ.s:48     .text:0000000000000044 .LVL3
     /tmp/ccIzdoeJ.s:82     .text:000000000000008c .LVL5
     /tmp/ccIzdoeJ.s:139    .text:00000000000000e0 .LVL11
     /tmp/ccIzdoeJ.s:144    .text:00000000000000e4 .LVL12
     /tmp/ccIzdoeJ.s:526    .debug_info:0000000000000000 .Ldebug_info0
     /tmp/ccIzdoeJ.s:85     .text:000000000000008c .LBE21
     /tmp/ccIzdoeJ.s:112    .text:00000000000000b4 .LBB24
     /tmp/ccIzdoeJ.s:141    .text:00000000000000e0 .LBE24
     /tmp/ccIzdoeJ.s:159    .gcc_except_table:0000000000000000 .LLSDA35

UNDEFINED SYMBOLS
_Znwm
_ZN9Scheduler3putEP3TCB
_ZdlPv
_Unwind_Resume
__gxx_personality_v0
_ZN9Scheduler3getEv
_ZN3TCB13contextSwitchEPNS_7ContextES1_
GAS LISTING /tmp/ccIzdoeJ.s 			page 23


_Z11printStringPKc
_ZN5Riscv10popSppSpieEv
