GAS LISTING /tmp/cc63N2MB.s 			page 1


   1              		.file	"thread.cpp"
   2              		.option pic
   3              		.option norelax
   4              		.text
   5              	.Ltext0:
   6              		.section	.text._ZN6Thread3runEv,"axG",@progbits,_ZN6Thread3runEv,comdat
   7              		.align	2
   8              		.weak	_ZN6Thread3runEv
  10              	_ZN6Thread3runEv:
  11              	.LFB17:
  12              		.file 1 "src/../h/syscall_cpp.hpp"
   1:src/../h/syscall_cpp.hpp **** #ifndef _syscall_cpp
   2:src/../h/syscall_cpp.hpp **** #define _syscall_cpp
   3:src/../h/syscall_cpp.hpp **** #include "syscall_c.h"
   4:src/../h/syscall_cpp.hpp **** 
   5:src/../h/syscall_cpp.hpp **** typedef TCB* thread_t;
   6:src/../h/syscall_cpp.hpp **** 
   7:src/../h/syscall_cpp.hpp **** //void* operator new (size_t);
   8:src/../h/syscall_cpp.hpp **** //void operator delete (void*);
   9:src/../h/syscall_cpp.hpp **** 
  10:src/../h/syscall_cpp.hpp **** class Thread {
  11:src/../h/syscall_cpp.hpp **** public:
  12:src/../h/syscall_cpp.hpp ****     Thread (void (*body)(void*), void* arg);
  13:src/../h/syscall_cpp.hpp ****     virtual ~Thread ();
  14:src/../h/syscall_cpp.hpp **** 
  15:src/../h/syscall_cpp.hpp ****     int start ();
  16:src/../h/syscall_cpp.hpp **** 
  17:src/../h/syscall_cpp.hpp ****     static void dispatch ();
  18:src/../h/syscall_cpp.hpp ****     static void wrapper(void *handle);
  19:src/../h/syscall_cpp.hpp **** protected:
  20:src/../h/syscall_cpp.hpp ****     Thread ();
  21:src/../h/syscall_cpp.hpp ****     virtual void run () {}
  13              		.loc 1 21 18
  14              		.cfi_startproc
  15              	.LVL0:
  16 0000 130101FF 		addi	sp,sp,-16
  17              		.cfi_def_cfa_offset 16
  18 0004 23348100 		sd	s0,8(sp)
  19              		.cfi_offset 8, -8
  20 0008 13040101 		addi	s0,sp,16
  21              		.cfi_def_cfa 8, 0
  22              		.loc 1 21 26 is_stmt 0
  23 000c 03348100 		ld	s0,8(sp)
  24              		.cfi_restore 8
  25              		.cfi_def_cfa 2, 16
  26 0010 13010101 		addi	sp,sp,16
  27              		.cfi_def_cfa_offset 0
  28 0014 67800000 		jr	ra
  29              		.cfi_endproc
  30              	.LFE17:
  32              		.text
  33              		.align	2
  34              		.globl	_ZN6Thread7wrapperEPv
  36              	_ZN6Thread7wrapperEPv:
  37              	.LFB18:
  38              		.file 2 "src/thread.cpp"
   1:src/thread.cpp **** #include "../h/syscall_cpp.hpp"
GAS LISTING /tmp/cc63N2MB.s 			page 2


   2:src/thread.cpp **** #include "../h/syscall_c.h"
   3:src/thread.cpp **** 
   4:src/thread.cpp **** //void* operator new (size_t n)
   5:src/thread.cpp **** //{
   6:src/thread.cpp **** //    return mem_alloc(n);
   7:src/thread.cpp **** //}
   8:src/thread.cpp **** //
   9:src/thread.cpp **** //void* operator new[](size_t n)
  10:src/thread.cpp **** //{
  11:src/thread.cpp **** //    return mem_alloc(n);
  12:src/thread.cpp **** //}
  13:src/thread.cpp **** //
  14:src/thread.cpp **** //void operator delete(void *ptr)
  15:src/thread.cpp **** //{
  16:src/thread.cpp **** //    mem_free(ptr);
  17:src/thread.cpp **** //}
  18:src/thread.cpp **** //
  19:src/thread.cpp **** //void operator delete[](void *ptr)
  20:src/thread.cpp **** //{
  21:src/thread.cpp **** //    mem_free(ptr);
  22:src/thread.cpp **** //}
  23:src/thread.cpp **** 
  24:src/thread.cpp **** void Thread::wrapper(void *handle)
  25:src/thread.cpp **** {
  39              		.loc 2 25 1 is_stmt 1
  40              		.cfi_startproc
  41              	.LVL1:
  26:src/thread.cpp ****     if(handle)
  42              		.loc 2 26 5
  43 0000 63080502 		beqz	a0,.L6
  25:src/thread.cpp ****     if(handle)
  44              		.loc 2 25 1 is_stmt 0
  45 0004 130101FF 		addi	sp,sp,-16
  46              		.cfi_def_cfa_offset 16
  47 0008 23341100 		sd	ra,8(sp)
  48 000c 23308100 		sd	s0,0(sp)
  49              		.cfi_offset 1, -8
  50              		.cfi_offset 8, -16
  51 0010 13040101 		addi	s0,sp,16
  52              		.cfi_def_cfa 8, 0
  27:src/thread.cpp ****         ((Thread*)handle)->run();
  53              		.loc 2 27 9 is_stmt 1
  54              		.loc 2 27 32 is_stmt 0
  55 0014 83370500 		ld	a5,0(a0)
  56 0018 83B70701 		ld	a5,16(a5)
  57              		.loc 2 27 31
  58 001c E7800700 		jalr	a5
  59              	.LVL2:
  28:src/thread.cpp **** }
  60              		.loc 2 28 1
  61 0020 83308100 		ld	ra,8(sp)
  62              		.cfi_restore 1
  63 0024 03340100 		ld	s0,0(sp)
  64              		.cfi_restore 8
  65              		.cfi_def_cfa 2, 16
  66 0028 13010101 		addi	sp,sp,16
  67              		.cfi_def_cfa_offset 0
GAS LISTING /tmp/cc63N2MB.s 			page 3


  68 002c 67800000 		jr	ra
  69              	.LVL3:
  70              	.L6:
  71 0030 67800000 		ret
  72              		.cfi_endproc
  73              	.LFE18:
  75              		.align	2
  76              		.globl	_ZN6ThreadD2Ev
  78              	_ZN6ThreadD2Ev:
  79              	.LFB26:
  29:src/thread.cpp **** 
  30:src/thread.cpp **** Thread::Thread(void (*body)(void *), void *arg)
  31:src/thread.cpp **** {
  32:src/thread.cpp ****     myHandle = nullptr;
  33:src/thread.cpp ****     thread_create_wo_start(&myHandle, body, arg);
  34:src/thread.cpp **** }
  35:src/thread.cpp **** 
  36:src/thread.cpp **** Thread::Thread()
  37:src/thread.cpp **** {
  38:src/thread.cpp ****     myHandle = nullptr;
  39:src/thread.cpp ****     thread_create_wo_start(&myHandle, Thread::wrapper, this);
  40:src/thread.cpp **** }
  41:src/thread.cpp **** 
  42:src/thread.cpp **** Thread::~Thread()
  80              		.loc 2 42 1 is_stmt 1
  81              		.cfi_startproc
  82              	.LVL4:
  83 0034 130101FF 		addi	sp,sp,-16
  84              		.cfi_def_cfa_offset 16
  85 0038 23348100 		sd	s0,8(sp)
  86              		.cfi_offset 8, -8
  87 003c 13040101 		addi	s0,sp,16
  88              		.cfi_def_cfa 8, 0
  43:src/thread.cpp **** {
  44:src/thread.cpp ****     myHandle = nullptr;
  89              		.loc 2 44 5
  45:src/thread.cpp ****     delete myHandle;
  90              		.loc 2 45 5
  46:src/thread.cpp **** }
  91              		.loc 2 46 1 is_stmt 0
  92 0040 03348100 		ld	s0,8(sp)
  93              		.cfi_restore 8
  94              		.cfi_def_cfa 2, 16
  95 0044 13010101 		addi	sp,sp,16
  96              		.cfi_def_cfa_offset 0
  97 0048 67800000 		jr	ra
  98              		.cfi_endproc
  99              	.LFE26:
 101              		.globl	_ZN6ThreadD1Ev
 102              		.set	_ZN6ThreadD1Ev,_ZN6ThreadD2Ev
 103              		.align	2
 104              		.globl	_ZN6ThreadD0Ev
 106              	_ZN6ThreadD0Ev:
 107              	.LFB28:
  42:src/thread.cpp **** {
 108              		.loc 2 42 1 is_stmt 1
 109              		.cfi_startproc
GAS LISTING /tmp/cc63N2MB.s 			page 4


 110              	.LVL5:
 111 004c 130101FF 		addi	sp,sp,-16
 112              		.cfi_def_cfa_offset 16
 113 0050 23341100 		sd	ra,8(sp)
 114 0054 23308100 		sd	s0,0(sp)
 115              		.cfi_offset 1, -8
 116              		.cfi_offset 8, -16
 117 0058 13040101 		addi	s0,sp,16
 118              		.cfi_def_cfa 8, 0
 119              		.loc 2 46 1 is_stmt 0
 120 005c 97000000 		call	_ZdlPv@plt
 120      E7800000 
 121              	.LVL6:
 122 0064 83308100 		ld	ra,8(sp)
 123              		.cfi_restore 1
 124 0068 03340100 		ld	s0,0(sp)
 125              		.cfi_restore 8
 126              		.cfi_def_cfa 2, 16
 127 006c 13010101 		addi	sp,sp,16
 128              		.cfi_def_cfa_offset 0
 129 0070 67800000 		jr	ra
 130              		.cfi_endproc
 131              	.LFE28:
 133              		.align	2
 134              		.globl	_ZN6ThreadC2EPFvPvES0_
 136              	_ZN6ThreadC2EPFvPvES0_:
 137              	.LFB20:
  30:src/thread.cpp **** {
 138              		.loc 2 30 1 is_stmt 1
 139              		.cfi_startproc
 140              	.LVL7:
 141 0074 130101FF 		addi	sp,sp,-16
 142              		.cfi_def_cfa_offset 16
 143 0078 23341100 		sd	ra,8(sp)
 144 007c 23308100 		sd	s0,0(sp)
 145              		.cfi_offset 1, -8
 146              		.cfi_offset 8, -16
 147 0080 13040101 		addi	s0,sp,16
 148              		.cfi_def_cfa 8, 0
 149              	.LBB6:
  30:src/thread.cpp **** {
 150              		.loc 2 30 47 is_stmt 0
 151 0084 97070000 		lla	a5,_ZTV6Thread+16
 151      93870700 
 152 008c 2330F500 		sd	a5,0(a0)
  32:src/thread.cpp ****     thread_create_wo_start(&myHandle, body, arg);
 153              		.loc 2 32 5 is_stmt 1
  32:src/thread.cpp ****     thread_create_wo_start(&myHandle, body, arg);
 154              		.loc 2 32 14 is_stmt 0
 155 0090 23340500 		sd	zero,8(a0)
  33:src/thread.cpp **** }
 156              		.loc 2 33 5 is_stmt 1
  33:src/thread.cpp **** }
 157              		.loc 2 33 27 is_stmt 0
 158 0094 13058500 		addi	a0,a0,8
 159              	.LVL8:
 160 0098 97000000 		call	_Z22thread_create_wo_startPP3TCBPFvPvES2_@plt
GAS LISTING /tmp/cc63N2MB.s 			page 5


 160      E7800000 
 161              	.LVL9:
 162              	.LBE6:
  34:src/thread.cpp **** 
 163              		.loc 2 34 1
 164 00a0 83308100 		ld	ra,8(sp)
 165              		.cfi_restore 1
 166 00a4 03340100 		ld	s0,0(sp)
 167              		.cfi_restore 8
 168              		.cfi_def_cfa 2, 16
 169 00a8 13010101 		addi	sp,sp,16
 170              		.cfi_def_cfa_offset 0
 171 00ac 67800000 		jr	ra
 172              		.cfi_endproc
 173              	.LFE20:
 175              		.globl	_ZN6ThreadC1EPFvPvES0_
 176              		.set	_ZN6ThreadC1EPFvPvES0_,_ZN6ThreadC2EPFvPvES0_
 177              		.align	2
 178              		.globl	_ZN6ThreadC2Ev
 180              	_ZN6ThreadC2Ev:
 181              	.LFB23:
  36:src/thread.cpp **** {
 182              		.loc 2 36 1 is_stmt 1
 183              		.cfi_startproc
 184              	.LVL10:
 185 00b0 130101FF 		addi	sp,sp,-16
 186              		.cfi_def_cfa_offset 16
 187 00b4 23341100 		sd	ra,8(sp)
 188 00b8 23308100 		sd	s0,0(sp)
 189              		.cfi_offset 1, -8
 190              		.cfi_offset 8, -16
 191 00bc 13040101 		addi	s0,sp,16
 192              		.cfi_def_cfa 8, 0
 193              	.LBB7:
  36:src/thread.cpp **** {
 194              		.loc 2 36 16 is_stmt 0
 195 00c0 97070000 		lla	a5,_ZTV6Thread+16
 195      93870700 
 196 00c8 2330F500 		sd	a5,0(a0)
  38:src/thread.cpp ****     thread_create_wo_start(&myHandle, Thread::wrapper, this);
 197              		.loc 2 38 5 is_stmt 1
  38:src/thread.cpp ****     thread_create_wo_start(&myHandle, Thread::wrapper, this);
 198              		.loc 2 38 14 is_stmt 0
 199 00cc 23340500 		sd	zero,8(a0)
  39:src/thread.cpp **** }
 200              		.loc 2 39 5 is_stmt 1
  39:src/thread.cpp **** }
 201              		.loc 2 39 27 is_stmt 0
 202 00d0 13060500 		mv	a2,a0
 203 00d4 97050000 		lla	a1,_ZN6Thread7wrapperEPv
 203      93850500 
 204 00dc 13058500 		addi	a0,a0,8
 205              	.LVL11:
 206 00e0 97000000 		call	_Z22thread_create_wo_startPP3TCBPFvPvES2_@plt
 206      E7800000 
 207              	.LVL12:
 208              	.LBE7:
GAS LISTING /tmp/cc63N2MB.s 			page 6


  40:src/thread.cpp **** 
 209              		.loc 2 40 1
 210 00e8 83308100 		ld	ra,8(sp)
 211              		.cfi_restore 1
 212 00ec 03340100 		ld	s0,0(sp)
 213              		.cfi_restore 8
 214              		.cfi_def_cfa 2, 16
 215 00f0 13010101 		addi	sp,sp,16
 216              		.cfi_def_cfa_offset 0
 217 00f4 67800000 		jr	ra
 218              		.cfi_endproc
 219              	.LFE23:
 221              		.globl	_ZN6ThreadC1Ev
 222              		.set	_ZN6ThreadC1Ev,_ZN6ThreadC2Ev
 223              		.align	2
 224              		.globl	_ZN6Thread5startEv
 226              	_ZN6Thread5startEv:
 227              	.LFB29:
  47:src/thread.cpp **** 
  48:src/thread.cpp **** int Thread::start()
  49:src/thread.cpp **** {
 228              		.loc 2 49 1 is_stmt 1
 229              		.cfi_startproc
 230              	.LVL13:
  50:src/thread.cpp ****     int ret = -3;
 231              		.loc 2 50 5
  51:src/thread.cpp **** 
  52:src/thread.cpp ****     if(myHandle)
 232              		.loc 2 52 5
 233              		.loc 2 52 8 is_stmt 0
 234 00f8 03358500 		ld	a0,8(a0)
 235              	.LVL14:
 236              		.loc 2 52 5
 237 00fc 63060502 		beqz	a0,.L19
  49:src/thread.cpp ****     int ret = -3;
 238              		.loc 2 49 1
 239 0100 130101FF 		addi	sp,sp,-16
 240              		.cfi_def_cfa_offset 16
 241 0104 23341100 		sd	ra,8(sp)
 242 0108 23308100 		sd	s0,0(sp)
 243              		.cfi_offset 1, -8
 244              		.cfi_offset 8, -16
 245 010c 13040101 		addi	s0,sp,16
 246              		.cfi_def_cfa 8, 0
  53:src/thread.cpp ****         ret = thread_start(myHandle);
 247              		.loc 2 53 9 is_stmt 1
 248              		.loc 2 53 27 is_stmt 0
 249 0110 97000000 		call	_Z12thread_startP3TCB@plt
 249      E7800000 
 250              	.LVL15:
  54:src/thread.cpp **** 
  55:src/thread.cpp ****     return ret;
 251              		.loc 2 55 5 is_stmt 1
  56:src/thread.cpp **** }
 252              		.loc 2 56 1 is_stmt 0
 253 0118 83308100 		ld	ra,8(sp)
 254              		.cfi_restore 1
GAS LISTING /tmp/cc63N2MB.s 			page 7


 255 011c 03340100 		ld	s0,0(sp)
 256              		.cfi_restore 8
 257              		.cfi_def_cfa 2, 16
 258 0120 13010101 		addi	sp,sp,16
 259              		.cfi_def_cfa_offset 0
 260 0124 67800000 		jr	ra
 261              	.LVL16:
 262              	.L19:
  50:src/thread.cpp **** 
 263              		.loc 2 50 9
 264 0128 1305D0FF 		li	a0,-3
 265              	.LVL17:
  55:src/thread.cpp **** }
 266              		.loc 2 55 5 is_stmt 1
 267              		.loc 2 56 1 is_stmt 0
 268 012c 67800000 		ret
 269              		.cfi_endproc
 270              	.LFE29:
 272              		.align	2
 273              		.globl	_ZN6Thread8dispatchEv
 275              	_ZN6Thread8dispatchEv:
 276              	.LFB30:
  57:src/thread.cpp **** 
  58:src/thread.cpp **** void Thread::dispatch()
  59:src/thread.cpp **** {
 277              		.loc 2 59 1 is_stmt 1
 278              		.cfi_startproc
 279 0130 130101FF 		addi	sp,sp,-16
 280              		.cfi_def_cfa_offset 16
 281 0134 23341100 		sd	ra,8(sp)
 282 0138 23308100 		sd	s0,0(sp)
 283              		.cfi_offset 1, -8
 284              		.cfi_offset 8, -16
 285 013c 13040101 		addi	s0,sp,16
 286              		.cfi_def_cfa 8, 0
  60:src/thread.cpp ****     thread_dispatch();
 287              		.loc 2 60 5
 288              		.loc 2 60 20 is_stmt 0
 289 0140 97000000 		call	_Z15thread_dispatchv@plt
 289      E7800000 
 290              	.LVL18:
  61:src/thread.cpp **** }...
 291              		.loc 2 61 1
 292 0148 83308100 		ld	ra,8(sp)
 293              		.cfi_restore 1
 294 014c 03340100 		ld	s0,0(sp)
 295              		.cfi_restore 8
 296              		.cfi_def_cfa 2, 16
 297 0150 13010101 		addi	sp,sp,16
 298              		.cfi_def_cfa_offset 0
 299 0154 67800000 		jr	ra
 300              		.cfi_endproc
 301              	.LFE30:
 303              		.weak	_ZTV6Thread
 304              		.section	.data.rel.ro.local._ZTV6Thread,"awG",@progbits,_ZTV6Thread,comdat
 305              		.align	3
 308              	_ZTV6Thread:
GAS LISTING /tmp/cc63N2MB.s 			page 8


 309 0000 00000000 		.dword	0
 309      00000000 
 310 0008 00000000 		.dword	0
 310      00000000 
 311 0010 00000000 		.dword	_ZN6ThreadD1Ev
 311      00000000 
 312 0018 00000000 		.dword	_ZN6ThreadD0Ev
 312      00000000 
 313 0020 00000000 		.dword	_ZN6Thread3runEv
 313      00000000 
 314              		.text
 315              	.Letext0:
 316              		.file 3 "src/../h/../lib/hw.h"
 317              		.file 4 "src/../h/../h/tcb.hpp"
 318              		.file 5 "src/../h/syscall_c.h"
GAS LISTING /tmp/cc63N2MB.s 			page 9

