GAS LISTING /tmp/ccyCcMhO.s 			page 1


   1              		.file	"thread.cpp"
   2              		.option pic
   3              		.option norelax
   4              		.text
   5              	.Ltext0:
   6              		.section	.text._ZN6Thread3runEv,"axG",@progbits,_ZN6Thread3runEv,comdat
   7              		.align	2
   8              		.weak	_ZN6Thread3runEv
  10              	_ZN6Thread3runEv:
  11              	.LFB19:
  12              		.file 1 "src/../h/syscall_cpp.hpp"
   1:src/../h/syscall_cpp.hpp **** #ifndef _syscall_cpp
   2:src/../h/syscall_cpp.hpp **** #define _syscall_cpp
   3:src/../h/syscall_cpp.hpp **** #include "syscall_c.h"
   4:src/../h/syscall_cpp.hpp **** 
   5:src/../h/syscall_cpp.hpp **** typedef TCB* thread_t;
   6:src/../h/syscall_cpp.hpp **** 
   7:src/../h/syscall_cpp.hpp **** //void* operator new (size_t);
   8:src/../h/syscall_cpp.hpp **** //void operator delete (void*);
   9:src/../h/syscall_cpp.hpp **** 
  10:src/../h/syscall_cpp.hpp **** class Thread {
  11:src/../h/syscall_cpp.hpp **** public:
  12:src/../h/syscall_cpp.hpp ****     Thread (void (*body)(void*), void* arg);
  13:src/../h/syscall_cpp.hpp ****     virtual ~Thread ();
  14:src/../h/syscall_cpp.hpp **** 
  15:src/../h/syscall_cpp.hpp ****     int start ();
  16:src/../h/syscall_cpp.hpp **** 
  17:src/../h/syscall_cpp.hpp ****     static void dispatch ();
  18:src/../h/syscall_cpp.hpp ****     static void wrapper(void *handle);
  19:src/../h/syscall_cpp.hpp **** protected:
  20:src/../h/syscall_cpp.hpp ****     Thread ();
  21:src/../h/syscall_cpp.hpp ****     virtual void run () {}
  13              		.loc 1 21 18
  14              		.cfi_startproc
  15              	.LVL0:
  16 0000 130101FF 		addi	sp,sp,-16
  17              		.cfi_def_cfa_offset 16
  18 0004 23348100 		sd	s0,8(sp)
  19              		.cfi_offset 8, -8
  20 0008 13040101 		addi	s0,sp,16
  21              		.cfi_def_cfa 8, 0
  22              		.loc 1 21 26 is_stmt 0
  23 000c 03348100 		ld	s0,8(sp)
  24              		.cfi_restore 8
  25              		.cfi_def_cfa 2, 16
  26 0010 13010101 		addi	sp,sp,16
  27              		.cfi_def_cfa_offset 0
  28 0014 67800000 		jr	ra
  29              		.cfi_endproc
  30              	.LFE19:
  32              		.text
  33              		.align	2
  34              		.globl	_ZN6Thread7wrapperEPv
  36              	_ZN6Thread7wrapperEPv:
  37              	.LFB21:
  38              		.file 2 "src/thread.cpp"
   1:src/thread.cpp **** #include "../h/syscall_cpp.hpp"
GAS LISTING /tmp/ccyCcMhO.s 			page 2


   2:src/thread.cpp **** 
   3:src/thread.cpp **** void
   4:src/thread.cpp **** Thread::wrapper(void *handle)
   5:src/thread.cpp **** {
  39              		.loc 2 5 1 is_stmt 1
  40              		.cfi_startproc
  41              	.LVL1:
   6:src/thread.cpp ****     if(handle)
  42              		.loc 2 6 5
  43 0000 63080502 		beqz	a0,.L6
   5:src/thread.cpp ****     if(handle)
  44              		.loc 2 5 1 is_stmt 0
  45 0004 130101FF 		addi	sp,sp,-16
  46              		.cfi_def_cfa_offset 16
  47 0008 23341100 		sd	ra,8(sp)
  48 000c 23308100 		sd	s0,0(sp)
  49              		.cfi_offset 1, -8
  50              		.cfi_offset 8, -16
  51 0010 13040101 		addi	s0,sp,16
  52              		.cfi_def_cfa 8, 0
   7:src/thread.cpp ****         ((Thread*)handle)->run();
  53              		.loc 2 7 9 is_stmt 1
  54              		.loc 2 7 32 is_stmt 0
  55 0014 83370500 		ld	a5,0(a0)
  56 0018 83B70701 		ld	a5,16(a5)
  57              		.loc 2 7 31
  58 001c E7800700 		jalr	a5
  59              	.LVL2:
   8:src/thread.cpp **** }
  60              		.loc 2 8 1
  61 0020 83308100 		ld	ra,8(sp)
  62              		.cfi_restore 1
  63 0024 03340100 		ld	s0,0(sp)
  64              		.cfi_restore 8
  65              		.cfi_def_cfa 2, 16
  66 0028 13010101 		addi	sp,sp,16
  67              		.cfi_def_cfa_offset 0
  68 002c 67800000 		jr	ra
  69              	.LVL3:
  70              	.L6:
  71 0030 67800000 		ret
  72              		.cfi_endproc
  73              	.LFE21:
  75              		.align	2
  76              		.globl	_ZN6ThreadD2Ev
  78              	_ZN6ThreadD2Ev:
  79              	.LFB29:
   9:src/thread.cpp **** 
  10:src/thread.cpp **** Thread::Thread(void (*body)(void *), void *arg)
  11:src/thread.cpp **** {
  12:src/thread.cpp ****     myHandle = nullptr;
  13:src/thread.cpp ****     thread_create_wo_start(&myHandle, body, arg);
  14:src/thread.cpp **** }
  15:src/thread.cpp **** 
  16:src/thread.cpp **** Thread::Thread()
  17:src/thread.cpp **** {
  18:src/thread.cpp ****     myHandle = nullptr;
GAS LISTING /tmp/ccyCcMhO.s 			page 3


  19:src/thread.cpp ****     thread_create_wo_start(&myHandle, Thread::wrapper, this);
  20:src/thread.cpp **** }
  21:src/thread.cpp **** 
  22:src/thread.cpp **** Thread::~Thread()
  80              		.loc 2 22 1 is_stmt 1
  81              		.cfi_startproc
  82              	.LVL4:
  83 0034 130101FF 		addi	sp,sp,-16
  84              		.cfi_def_cfa_offset 16
  85 0038 23348100 		sd	s0,8(sp)
  86              		.cfi_offset 8, -8
  87 003c 13040101 		addi	s0,sp,16
  88              		.cfi_def_cfa 8, 0
  23:src/thread.cpp **** {
  24:src/thread.cpp ****     myHandle = nullptr;
  89              		.loc 2 24 5
  25:src/thread.cpp ****     delete myHandle;
  90              		.loc 2 25 5
  26:src/thread.cpp **** }
  91              		.loc 2 26 1 is_stmt 0
  92 0040 03348100 		ld	s0,8(sp)
  93              		.cfi_restore 8
  94              		.cfi_def_cfa 2, 16
  95 0044 13010101 		addi	sp,sp,16
  96              		.cfi_def_cfa_offset 0
  97 0048 67800000 		jr	ra
  98              		.cfi_endproc
  99              	.LFE29:
 101              		.globl	_ZN6ThreadD1Ev
 102              		.set	_ZN6ThreadD1Ev,_ZN6ThreadD2Ev
 103              		.align	2
 104              		.globl	_ZN6ThreadD0Ev
 106              	_ZN6ThreadD0Ev:
 107              	.LFB31:
  22:src/thread.cpp **** {
 108              		.loc 2 22 1 is_stmt 1
 109              		.cfi_startproc
 110              	.LVL5:
 111 004c 130101FF 		addi	sp,sp,-16
 112              		.cfi_def_cfa_offset 16
 113 0050 23341100 		sd	ra,8(sp)
 114 0054 23308100 		sd	s0,0(sp)
 115              		.cfi_offset 1, -8
 116              		.cfi_offset 8, -16
 117 0058 13040101 		addi	s0,sp,16
 118              		.cfi_def_cfa 8, 0
 119              		.loc 2 26 1 is_stmt 0
 120 005c 97000000 		call	_ZdlPv@plt
 120      E7800000 
 121              	.LVL6:
 122 0064 83308100 		ld	ra,8(sp)
 123              		.cfi_restore 1
 124 0068 03340100 		ld	s0,0(sp)
 125              		.cfi_restore 8
 126              		.cfi_def_cfa 2, 16
 127 006c 13010101 		addi	sp,sp,16
 128              		.cfi_def_cfa_offset 0
GAS LISTING /tmp/ccyCcMhO.s 			page 4


 129 0070 67800000 		jr	ra
 130              		.cfi_endproc
 131              	.LFE31:
 133              		.align	2
 134              		.globl	_ZN6ThreadC2EPFvPvES0_
 136              	_ZN6ThreadC2EPFvPvES0_:
 137              	.LFB23:
  10:src/thread.cpp **** {
 138              		.loc 2 10 1 is_stmt 1
 139              		.cfi_startproc
 140              	.LVL7:
 141 0074 130101FF 		addi	sp,sp,-16
 142              		.cfi_def_cfa_offset 16
 143 0078 23341100 		sd	ra,8(sp)
 144 007c 23308100 		sd	s0,0(sp)
 145              		.cfi_offset 1, -8
 146              		.cfi_offset 8, -16
 147 0080 13040101 		addi	s0,sp,16
 148              		.cfi_def_cfa 8, 0
 149              	.LBB6:
  10:src/thread.cpp **** {
 150              		.loc 2 10 47 is_stmt 0
 151 0084 97070000 		lla	a5,_ZTV6Thread+16
 151      93870700 
 152 008c 2330F500 		sd	a5,0(a0)
  12:src/thread.cpp ****     thread_create_wo_start(&myHandle, body, arg);
 153              		.loc 2 12 5 is_stmt 1
  12:src/thread.cpp ****     thread_create_wo_start(&myHandle, body, arg);
 154              		.loc 2 12 14 is_stmt 0
 155 0090 23340500 		sd	zero,8(a0)
  13:src/thread.cpp **** }
 156              		.loc 2 13 5 is_stmt 1
  13:src/thread.cpp **** }
 157              		.loc 2 13 27 is_stmt 0
 158 0094 13058500 		addi	a0,a0,8
 159              	.LVL8:
 160 0098 97000000 		call	_Z22thread_create_wo_startPP3TCBPFvPvES2_@plt
 160      E7800000 
 161              	.LVL9:
 162              	.LBE6:
  14:src/thread.cpp **** 
 163              		.loc 2 14 1
 164 00a0 83308100 		ld	ra,8(sp)
 165              		.cfi_restore 1
 166 00a4 03340100 		ld	s0,0(sp)
 167              		.cfi_restore 8
 168              		.cfi_def_cfa 2, 16
 169 00a8 13010101 		addi	sp,sp,16
 170              		.cfi_def_cfa_offset 0
 171 00ac 67800000 		jr	ra
 172              		.cfi_endproc
 173              	.LFE23:
 175              		.globl	_ZN6ThreadC1EPFvPvES0_
 176              		.set	_ZN6ThreadC1EPFvPvES0_,_ZN6ThreadC2EPFvPvES0_
 177              		.align	2
 178              		.globl	_ZN6ThreadC2Ev
 180              	_ZN6ThreadC2Ev:
GAS LISTING /tmp/ccyCcMhO.s 			page 5


 181              	.LFB26:
  16:src/thread.cpp **** {
 182              		.loc 2 16 1 is_stmt 1
 183              		.cfi_startproc
 184              	.LVL10:
 185 00b0 130101FF 		addi	sp,sp,-16
 186              		.cfi_def_cfa_offset 16
 187 00b4 23341100 		sd	ra,8(sp)
 188 00b8 23308100 		sd	s0,0(sp)
 189              		.cfi_offset 1, -8
 190              		.cfi_offset 8, -16
 191 00bc 13040101 		addi	s0,sp,16
 192              		.cfi_def_cfa 8, 0
 193              	.LBB7:
  16:src/thread.cpp **** {
 194              		.loc 2 16 16 is_stmt 0
 195 00c0 97070000 		lla	a5,_ZTV6Thread+16
 195      93870700 
 196 00c8 2330F500 		sd	a5,0(a0)
  18:src/thread.cpp ****     thread_create_wo_start(&myHandle, Thread::wrapper, this);
 197              		.loc 2 18 5 is_stmt 1
  18:src/thread.cpp ****     thread_create_wo_start(&myHandle, Thread::wrapper, this);
 198              		.loc 2 18 14 is_stmt 0
 199 00cc 23340500 		sd	zero,8(a0)
  19:src/thread.cpp **** }
 200              		.loc 2 19 5 is_stmt 1
  19:src/thread.cpp **** }
 201              		.loc 2 19 27 is_stmt 0
 202 00d0 13060500 		mv	a2,a0
 203 00d4 97050000 		lla	a1,_ZN6Thread7wrapperEPv
 203      93850500 
 204 00dc 13058500 		addi	a0,a0,8
 205              	.LVL11:
 206 00e0 97000000 		call	_Z22thread_create_wo_startPP3TCBPFvPvES2_@plt
 206      E7800000 
 207              	.LVL12:
 208              	.LBE7:
  20:src/thread.cpp **** 
 209              		.loc 2 20 1
 210 00e8 83308100 		ld	ra,8(sp)
 211              		.cfi_restore 1
 212 00ec 03340100 		ld	s0,0(sp)
 213              		.cfi_restore 8
 214              		.cfi_def_cfa 2, 16
 215 00f0 13010101 		addi	sp,sp,16
 216              		.cfi_def_cfa_offset 0
 217 00f4 67800000 		jr	ra
 218              		.cfi_endproc
 219              	.LFE26:
 221              		.globl	_ZN6ThreadC1Ev
 222              		.set	_ZN6ThreadC1Ev,_ZN6ThreadC2Ev
 223              		.align	2
 224              		.globl	_ZN6Thread5startEv
 226              	_ZN6Thread5startEv:
 227              	.LFB32:
  27:src/thread.cpp **** 
  28:src/thread.cpp **** int
GAS LISTING /tmp/ccyCcMhO.s 			page 6


  29:src/thread.cpp **** Thread::start()
  30:src/thread.cpp **** {
 228              		.loc 2 30 1 is_stmt 1
 229              		.cfi_startproc
 230              	.LVL13:
  31:src/thread.cpp ****     int ret = -3;
 231              		.loc 2 31 5
  32:src/thread.cpp **** 
  33:src/thread.cpp ****     if(myHandle)
 232              		.loc 2 33 5
 233              		.loc 2 33 8 is_stmt 0
 234 00f8 03358500 		ld	a0,8(a0)
 235              	.LVL14:
 236              		.loc 2 33 5
 237 00fc 63060502 		beqz	a0,.L19
  30:src/thread.cpp ****     int ret = -3;
 238              		.loc 2 30 1
 239 0100 130101FF 		addi	sp,sp,-16
 240              		.cfi_def_cfa_offset 16
 241 0104 23341100 		sd	ra,8(sp)
 242 0108 23308100 		sd	s0,0(sp)
 243              		.cfi_offset 1, -8
 244              		.cfi_offset 8, -16
 245 010c 13040101 		addi	s0,sp,16
 246              		.cfi_def_cfa 8, 0
  34:src/thread.cpp ****         ret = thread_start(myHandle);
 247              		.loc 2 34 9 is_stmt 1
 248              		.loc 2 34 27 is_stmt 0
 249 0110 97000000 		call	_Z12thread_startP3TCB@plt
 249      E7800000 
 250              	.LVL15:
  35:src/thread.cpp **** 
  36:src/thread.cpp ****     return ret;
 251              		.loc 2 36 5 is_stmt 1
  37:src/thread.cpp **** }
 252              		.loc 2 37 1 is_stmt 0
 253 0118 83308100 		ld	ra,8(sp)
 254              		.cfi_restore 1
 255 011c 03340100 		ld	s0,0(sp)
 256              		.cfi_restore 8
 257              		.cfi_def_cfa 2, 16
 258 0120 13010101 		addi	sp,sp,16
 259              		.cfi_def_cfa_offset 0
 260 0124 67800000 		jr	ra
 261              	.LVL16:
 262              	.L19:
  31:src/thread.cpp **** 
 263              		.loc 2 31 9
 264 0128 1305D0FF 		li	a0,-3
 265              	.LVL17:
  36:src/thread.cpp **** }
 266              		.loc 2 36 5 is_stmt 1
 267              		.loc 2 37 1 is_stmt 0
 268 012c 67800000 		ret
 269              		.cfi_endproc
 270              	.LFE32:
 272              		.align	2
GAS LISTING /tmp/ccyCcMhO.s 			page 7


 273              		.globl	_ZN6Thread8dispatchEv
 275              	_ZN6Thread8dispatchEv:
 276              	.LFB33:
  38:src/thread.cpp **** 
  39:src/thread.cpp **** void
  40:src/thread.cpp **** Thread::dispatch()
  41:src/thread.cpp **** {
 277              		.loc 2 41 1 is_stmt 1
 278              		.cfi_startproc
 279 0130 130101FF 		addi	sp,sp,-16
 280              		.cfi_def_cfa_offset 16
 281 0134 23341100 		sd	ra,8(sp)
 282 0138 23308100 		sd	s0,0(sp)
 283              		.cfi_offset 1, -8
 284              		.cfi_offset 8, -16
 285 013c 13040101 		addi	s0,sp,16
 286              		.cfi_def_cfa 8, 0
  42:src/thread.cpp ****     thread_dispatch();
 287              		.loc 2 42 5
 288              		.loc 2 42 20 is_stmt 0
 289 0140 97000000 		call	_Z15thread_dispatchv@plt
 289      E7800000 
 290              	.LVL18:
  43:src/thread.cpp **** }...
 291              		.loc 2 43 1
 292 0148 83308100 		ld	ra,8(sp)
 293              		.cfi_restore 1
 294 014c 03340100 		ld	s0,0(sp)
 295              		.cfi_restore 8
 296              		.cfi_def_cfa 2, 16
 297 0150 13010101 		addi	sp,sp,16
 298              		.cfi_def_cfa_offset 0
 299 0154 67800000 		jr	ra
 300              		.cfi_endproc
 301              	.LFE33:
 303              		.weak	_ZTV6Thread
 304              		.section	.data.rel.ro.local._ZTV6Thread,"awG",@progbits,_ZTV6Thread,comdat
 305              		.align	3
 308              	_ZTV6Thread:
 309 0000 00000000 		.dword	0
 309      00000000 
 310 0008 00000000 		.dword	0
 310      00000000 
 311 0010 00000000 		.dword	_ZN6ThreadD1Ev
 311      00000000 
 312 0018 00000000 		.dword	_ZN6ThreadD0Ev
 312      00000000 
 313 0020 00000000 		.dword	_ZN6Thread3runEv
 313      00000000 
 314              		.text
 315              	.Letext0:
 316              		.file 3 "src/../h/../lib/hw.h"
 317              		.file 4 "src/../h/../h/tcb.hpp"
 318              		.file 5 "src/../h/syscall_c.h"
GAS LISTING /tmp/ccyCcMhO.s 			page 8


DEFINED SYMBOLS
                            *ABS*:0000000000000000 thread.cpp
     /tmp/ccyCcMhO.s:10     .text._ZN6Thread3runEv:0000000000000000 _ZN6Thread3runEv
     /tmp/ccyCcMhO.s:14     .text._ZN6Thread3runEv:0000000000000000 .L0 
     /tmp/ccyCcMhO.s:16     .text._ZN6Thread3runEv:0000000000000000 .L0 
     /tmp/ccyCcMhO.s:17     .text._ZN6Thread3runEv:0000000000000004 .L0 
     /tmp/ccyCcMhO.s:19     .text._ZN6Thread3runEv:0000000000000008 .L0 
     /tmp/ccyCcMhO.s:21     .text._ZN6Thread3runEv:000000000000000c .L0 
     /tmp/ccyCcMhO.s:23     .text._ZN6Thread3runEv:000000000000000c .L0 
     /tmp/ccyCcMhO.s:24     .text._ZN6Thread3runEv:0000000000000010 .L0 
     /tmp/ccyCcMhO.s:25     .text._ZN6Thread3runEv:0000000000000010 .L0 
     /tmp/ccyCcMhO.s:27     .text._ZN6Thread3runEv:0000000000000014 .L0 
     /tmp/ccyCcMhO.s:29     .text._ZN6Thread3runEv:0000000000000018 .L0 
     /tmp/ccyCcMhO.s:36     .text:0000000000000000 _ZN6Thread7wrapperEPv
     /tmp/ccyCcMhO.s:40     .text:0000000000000000 .L0 
     /tmp/ccyCcMhO.s:42     .text:0000000000000000 .L0 
     /tmp/ccyCcMhO.s:43     .text:0000000000000000 .L0 
     /tmp/ccyCcMhO.s:45     .text:0000000000000004 .L0 
     /tmp/ccyCcMhO.s:46     .text:0000000000000008 .L0 
     /tmp/ccyCcMhO.s:49     .text:0000000000000010 .L0 
     /tmp/ccyCcMhO.s:50     .text:0000000000000010 .L0 
     /tmp/ccyCcMhO.s:52     .text:0000000000000014 .L0 
     /tmp/ccyCcMhO.s:54     .text:0000000000000014 .L0 
     /tmp/ccyCcMhO.s:55     .text:0000000000000014 .L0 
     /tmp/ccyCcMhO.s:58     .text:000000000000001c .L0 
     /tmp/ccyCcMhO.s:61     .text:0000000000000020 .L0 
     /tmp/ccyCcMhO.s:62     .text:0000000000000024 .L0 
     /tmp/ccyCcMhO.s:64     .text:0000000000000028 .L0 
     /tmp/ccyCcMhO.s:65     .text:0000000000000028 .L0 
     /tmp/ccyCcMhO.s:67     .text:000000000000002c .L0 
     /tmp/ccyCcMhO.s:72     .text:0000000000000034 .L0 
     /tmp/ccyCcMhO.s:78     .text:0000000000000034 _ZN6ThreadD2Ev
     /tmp/ccyCcMhO.s:81     .text:0000000000000034 .L0 
     /tmp/ccyCcMhO.s:83     .text:0000000000000034 .L0 
     /tmp/ccyCcMhO.s:84     .text:0000000000000038 .L0 
     /tmp/ccyCcMhO.s:86     .text:000000000000003c .L0 
     /tmp/ccyCcMhO.s:88     .text:0000000000000040 .L0 
     /tmp/ccyCcMhO.s:90     .text:0000000000000040 .L0 
     /tmp/ccyCcMhO.s:91     .text:0000000000000040 .L0 
     /tmp/ccyCcMhO.s:92     .text:0000000000000040 .L0 
     /tmp/ccyCcMhO.s:93     .text:0000000000000044 .L0 
     /tmp/ccyCcMhO.s:94     .text:0000000000000044 .L0 
     /tmp/ccyCcMhO.s:96     .text:0000000000000048 .L0 
     /tmp/ccyCcMhO.s:98     .text:000000000000004c .L0 
     /tmp/ccyCcMhO.s:78     .text:0000000000000034 _ZN6ThreadD1Ev
     /tmp/ccyCcMhO.s:106    .text:000000000000004c _ZN6ThreadD0Ev
     /tmp/ccyCcMhO.s:109    .text:000000000000004c .L0 
     /tmp/ccyCcMhO.s:111    .text:000000000000004c .L0 
     /tmp/ccyCcMhO.s:112    .text:0000000000000050 .L0 
     /tmp/ccyCcMhO.s:115    .text:0000000000000058 .L0 
     /tmp/ccyCcMhO.s:116    .text:0000000000000058 .L0 
     /tmp/ccyCcMhO.s:118    .text:000000000000005c .L0 
     /tmp/ccyCcMhO.s:120    .text:000000000000005c .L0 
     /tmp/ccyCcMhO.s:123    .text:0000000000000068 .L0 
     /tmp/ccyCcMhO.s:125    .text:000000000000006c .L0 
     /tmp/ccyCcMhO.s:126    .text:000000000000006c .L0 
     /tmp/ccyCcMhO.s:128    .text:0000000000000070 .L0 
GAS LISTING /tmp/ccyCcMhO.s 			page 9


     /tmp/ccyCcMhO.s:130    .text:0000000000000074 .L0 
     /tmp/ccyCcMhO.s:136    .text:0000000000000074 _ZN6ThreadC2EPFvPvES0_
     /tmp/ccyCcMhO.s:139    .text:0000000000000074 .L0 
     /tmp/ccyCcMhO.s:141    .text:0000000000000074 .L0 
     /tmp/ccyCcMhO.s:142    .text:0000000000000078 .L0 
     /tmp/ccyCcMhO.s:145    .text:0000000000000080 .L0 
     /tmp/ccyCcMhO.s:146    .text:0000000000000080 .L0 
     /tmp/ccyCcMhO.s:148    .text:0000000000000084 .L0 
     /tmp/ccyCcMhO.s:308    .data.rel.ro.local._ZTV6Thread:0000000000000000 _ZTV6Thread
     /tmp/ccyCcMhO.s:151    .text:0000000000000084 .L0 
     /tmp/ccyCcMhO.s:154    .text:0000000000000090 .L0 
     /tmp/ccyCcMhO.s:155    .text:0000000000000090 .L0 
     /tmp/ccyCcMhO.s:157    .text:0000000000000094 .L0 
     /tmp/ccyCcMhO.s:158    .text:0000000000000094 .L0 
     /tmp/ccyCcMhO.s:164    .text:00000000000000a0 .L0 
     /tmp/ccyCcMhO.s:165    .text:00000000000000a4 .L0 
     /tmp/ccyCcMhO.s:167    .text:00000000000000a8 .L0 
     /tmp/ccyCcMhO.s:168    .text:00000000000000a8 .L0 
     /tmp/ccyCcMhO.s:170    .text:00000000000000ac .L0 
     /tmp/ccyCcMhO.s:172    .text:00000000000000b0 .L0 
     /tmp/ccyCcMhO.s:136    .text:0000000000000074 _ZN6ThreadC1EPFvPvES0_
     /tmp/ccyCcMhO.s:180    .text:00000000000000b0 _ZN6ThreadC2Ev
     /tmp/ccyCcMhO.s:183    .text:00000000000000b0 .L0 
     /tmp/ccyCcMhO.s:185    .text:00000000000000b0 .L0 
     /tmp/ccyCcMhO.s:186    .text:00000000000000b4 .L0 
     /tmp/ccyCcMhO.s:189    .text:00000000000000bc .L0 
     /tmp/ccyCcMhO.s:190    .text:00000000000000bc .L0 
     /tmp/ccyCcMhO.s:192    .text:00000000000000c0 .L0 
     /tmp/ccyCcMhO.s:195    .text:00000000000000c0 .L0 
     /tmp/ccyCcMhO.s:198    .text:00000000000000cc .L0 
     /tmp/ccyCcMhO.s:199    .text:00000000000000cc .L0 
     /tmp/ccyCcMhO.s:201    .text:00000000000000d0 .L0 
     /tmp/ccyCcMhO.s:202    .text:00000000000000d0 .L0 
     /tmp/ccyCcMhO.s:210    .text:00000000000000e8 .L0 
     /tmp/ccyCcMhO.s:211    .text:00000000000000ec .L0 
     /tmp/ccyCcMhO.s:213    .text:00000000000000f0 .L0 
     /tmp/ccyCcMhO.s:214    .text:00000000000000f0 .L0 
     /tmp/ccyCcMhO.s:216    .text:00000000000000f4 .L0 
     /tmp/ccyCcMhO.s:218    .text:00000000000000f8 .L0 
     /tmp/ccyCcMhO.s:180    .text:00000000000000b0 _ZN6ThreadC1Ev
     /tmp/ccyCcMhO.s:226    .text:00000000000000f8 _ZN6Thread5startEv
     /tmp/ccyCcMhO.s:229    .text:00000000000000f8 .L0 
     /tmp/ccyCcMhO.s:231    .text:00000000000000f8 .L0 
     /tmp/ccyCcMhO.s:232    .text:00000000000000f8 .L0 
     /tmp/ccyCcMhO.s:233    .text:00000000000000f8 .L0 
     /tmp/ccyCcMhO.s:234    .text:00000000000000f8 .L0 
     /tmp/ccyCcMhO.s:237    .text:00000000000000fc .L0 
     /tmp/ccyCcMhO.s:239    .text:0000000000000100 .L0 
     /tmp/ccyCcMhO.s:240    .text:0000000000000104 .L0 
     /tmp/ccyCcMhO.s:243    .text:000000000000010c .L0 
     /tmp/ccyCcMhO.s:244    .text:000000000000010c .L0 
     /tmp/ccyCcMhO.s:246    .text:0000000000000110 .L0 
     /tmp/ccyCcMhO.s:248    .text:0000000000000110 .L0 
     /tmp/ccyCcMhO.s:249    .text:0000000000000110 .L0 
     /tmp/ccyCcMhO.s:252    .text:0000000000000118 .L0 
     /tmp/ccyCcMhO.s:253    .text:0000000000000118 .L0 
     /tmp/ccyCcMhO.s:254    .text:000000000000011c .L0 
GAS LISTING /tmp/ccyCcMhO.s 			page 10


     /tmp/ccyCcMhO.s:256    .text:0000000000000120 .L0 
     /tmp/ccyCcMhO.s:257    .text:0000000000000120 .L0 
     /tmp/ccyCcMhO.s:259    .text:0000000000000124 .L0 
     /tmp/ccyCcMhO.s:264    .text:0000000000000128 .L0 
     /tmp/ccyCcMhO.s:267    .text:000000000000012c .L0 
     /tmp/ccyCcMhO.s:268    .text:000000000000012c .L0 
     /tmp/ccyCcMhO.s:269    .text:0000000000000130 .L0 
     /tmp/ccyCcMhO.s:275    .text:0000000000000130 _ZN6Thread8dispatchEv
     /tmp/ccyCcMhO.s:278    .text:0000000000000130 .L0 
     /tmp/ccyCcMhO.s:279    .text:0000000000000130 .L0 
     /tmp/ccyCcMhO.s:280    .text:0000000000000134 .L0 
     /tmp/ccyCcMhO.s:283    .text:000000000000013c .L0 
     /tmp/ccyCcMhO.s:284    .text:000000000000013c .L0 
     /tmp/ccyCcMhO.s:286    .text:0000000000000140 .L0 
     /tmp/ccyCcMhO.s:288    .text:0000000000000140 .L0 
     /tmp/ccyCcMhO.s:289    .text:0000000000000140 .L0 
     /tmp/ccyCcMhO.s:292    .text:0000000000000148 .L0 
     /tmp/ccyCcMhO.s:293    .text:000000000000014c .L0 
     /tmp/ccyCcMhO.s:295    .text:0000000000000150 .L0 
     /tmp/ccyCcMhO.s:296    .text:0000000000000150 .L0 
     /tmp/ccyCcMhO.s:298    .text:0000000000000154 .L0 
     /tmp/ccyCcMhO.s:300    .text:0000000000000158 .L0 
     /tmp/ccyCcMhO.s:32     .text._ZN6Thread3runEv:0000000000000018 .L0 
     /tmp/ccyCcMhO.s:319    .text:0000000000000158 .L0 
     /tmp/ccyCcMhO.s:151    .text:0000000000000084 .L0 
     /tmp/ccyCcMhO.s:195    .text:00000000000000c0 .L0 
     /tmp/ccyCcMhO.s:203    .text:00000000000000d4 .L0 
     /tmp/ccyCcMhO.s:70     .text:0000000000000030 .L6
     /tmp/ccyCcMhO.s:262    .text:0000000000000128 .L19
     /tmp/ccyCcMhO.s:1233   .debug_abbrev:0000000000000000 .Ldebug_abbrev0
     /tmp/ccyCcMhO.s:2604   .debug_str:00000000000004ca .LASF76
     /tmp/ccyCcMhO.s:2458   .debug_str:000000000000007d .LASF77
     /tmp/ccyCcMhO.s:2480   .debug_str:0000000000000108 .LASF78
     /tmp/ccyCcMhO.s:2428   .debug_ranges:0000000000000000 .Ldebug_ranges0
     /tmp/ccyCcMhO.s:2436   .debug_line:0000000000000000 .Ldebug_line0
     /tmp/ccyCcMhO.s:2542   .debug_str:000000000000030f .LASF0
     /tmp/ccyCcMhO.s:2550   .debug_str:0000000000000335 .LASF1
     /tmp/ccyCcMhO.s:2534   .debug_str:00000000000002d9 .LASF2
     /tmp/ccyCcMhO.s:2506   .debug_str:000000000000022f .LASF4
     /tmp/ccyCcMhO.s:2590   .debug_str:0000000000000474 .LASF3
     /tmp/ccyCcMhO.s:2450   .debug_str:000000000000004a .LASF5
     /tmp/ccyCcMhO.s:2554   .debug_str:000000000000035a .LASF6
     /tmp/ccyCcMhO.s:2540   .debug_str:00000000000002fc .LASF7
     /tmp/ccyCcMhO.s:2610   .debug_str:00000000000005a4 .LASF8
     /tmp/ccyCcMhO.s:2492   .debug_str:0000000000000190 .LASF9
     /tmp/ccyCcMhO.s:2566   .debug_str:00000000000003b0 .LASF10
     /tmp/ccyCcMhO.s:2606   .debug_str:000000000000058e .LASF11
     /tmp/ccyCcMhO.s:2452   .debug_str:0000000000000051 .LASF12
     /tmp/ccyCcMhO.s:2440   .debug_str:0000000000000009 .LASF13
     /tmp/ccyCcMhO.s:2460   .debug_str:000000000000008c .LASF14
     /tmp/ccyCcMhO.s:2584   .debug_str:0000000000000450 .LASF15
     /tmp/ccyCcMhO.s:2468   .debug_str:00000000000000be .LASF16
     /tmp/ccyCcMhO.s:2442   .debug_str:0000000000000019 .LASF79
     /tmp/ccyCcMhO.s:2472   .debug_str:00000000000000e3 .LASF17
     /tmp/ccyCcMhO.s:2576   .debug_str:0000000000000406 .LASF19
     /tmp/ccyCcMhO.s:2556   .debug_str:000000000000036d .LASF21
     /tmp/ccyCcMhO.s:2490   .debug_str:0000000000000179 .LASF23
GAS LISTING /tmp/ccyCcMhO.s 			page 11


     /tmp/ccyCcMhO.s:2536   .debug_str:00000000000002e7 .LASF18
     /tmp/ccyCcMhO.s:2502   .debug_str:00000000000001f0 .LASF20
     /tmp/ccyCcMhO.s:2526   .debug_str:000000000000029f .LASF22
     /tmp/ccyCcMhO.s:2448   .debug_str:0000000000000031 .LASF24
     /tmp/ccyCcMhO.s:2544   .debug_str:000000000000031c .LASF38
     /tmp/ccyCcMhO.s:2476   .debug_str:00000000000000f0 .LASF40
     /tmp/ccyCcMhO.s:2518   .debug_str:000000000000026d .LASF25
     /tmp/ccyCcMhO.s:2482   .debug_str:0000000000000126 .LASF26
     /tmp/ccyCcMhO.s:2538   .debug_str:00000000000002f3 .LASF27
     /tmp/ccyCcMhO.s:2618   .debug_str:00000000000005e1 .LASF28
     /tmp/ccyCcMhO.s:2520   .debug_str:0000000000000276 .LASF29
     /tmp/ccyCcMhO.s:2628   .debug_str:0000000000000620 .LASF30
     /tmp/ccyCcMhO.s:2578   .debug_str:0000000000000412 .LASF80
     /tmp/ccyCcMhO.s:2474   .debug_str:00000000000000e8 .LASF81
     /tmp/ccyCcMhO.s:2496   .debug_str:00000000000001b4 .LASF82
     /tmp/ccyCcMhO.s:2514   .debug_str:0000000000000260 .LASF31
     /tmp/ccyCcMhO.s:2464   .debug_str:00000000000000a8 .LASF32
     /tmp/ccyCcMhO.s:2516   .debug_str:0000000000000265 .LASF33
     /tmp/ccyCcMhO.s:2546   .debug_str:0000000000000325 .LASF34
     /tmp/ccyCcMhO.s:2446   .debug_str:000000000000002b .LASF35
     /tmp/ccyCcMhO.s:2512   .debug_str:0000000000000257 .LASF36
     /tmp/ccyCcMhO.s:2528   .debug_str:00000000000002ac .LASF37
     /tmp/ccyCcMhO.s:2530   .debug_str:00000000000002be .LASF83
     /tmp/ccyCcMhO.s:2498   .debug_str:00000000000001cc .LASF84
     /tmp/ccyCcMhO.s:2616   .debug_str:00000000000005d3 .LASF52
     /tmp/ccyCcMhO.s:2504   .debug_str:0000000000000207 .LASF85
     /tmp/ccyCcMhO.s:2624   .debug_str:000000000000060c .LASF39
     /tmp/ccyCcMhO.s:2494   .debug_str:000000000000019e .LASF41
     /tmp/ccyCcMhO.s:2600   .debug_str:00000000000004af .LASF58
     /tmp/ccyCcMhO.s:2510   .debug_str:000000000000023e .LASF60
     /tmp/ccyCcMhO.s:2592   .debug_str:0000000000000486 .LASF86
     /tmp/ccyCcMhO.s:2522   .debug_str:0000000000000283 .LASF42
     /tmp/ccyCcMhO.s:2500   .debug_str:00000000000001e5 .LASF43
     /tmp/ccyCcMhO.s:2588   .debug_str:000000000000046e .LASF48
     /tmp/ccyCcMhO.s:2620   .debug_str:00000000000005f9 .LASF44
     /tmp/ccyCcMhO.s:2564   .debug_str:00000000000003aa .LASF45
     /tmp/ccyCcMhO.s:2508   .debug_str:0000000000000236 .LASF46
     /tmp/ccyCcMhO.s:2594   .debug_str:0000000000000497 .LASF47
     /tmp/ccyCcMhO.s:2478   .debug_str:0000000000000103 .LASF49
     /tmp/ccyCcMhO.s:2438   .debug_str:0000000000000000 .LASF50
     /tmp/ccyCcMhO.s:2560   .debug_str:000000000000038f .LASF51
     /tmp/ccyCcMhO.s:2608   .debug_str:000000000000059d .LASF53
     /tmp/ccyCcMhO.s:2552   .debug_str:0000000000000348 .LASF87
     /tmp/ccyCcMhO.s:2532   .debug_str:00000000000002cc .LASF88
     /tmp/ccyCcMhO.s:2570   .debug_str:00000000000003d5 .LASF54
     /tmp/ccyCcMhO.s:2586   .debug_str:0000000000000466 .LASF89
     /tmp/ccyCcMhO.s:2456   .debug_str:000000000000006e .LASF90
     /tmp/ccyCcMhO.s:2548   .debug_str:000000000000032f .LASF55
     /tmp/ccyCcMhO.s:2488   .debug_str:0000000000000166 .LASF56
     /tmp/ccyCcMhO.s:2484   .debug_str:0000000000000139 .LASF57
     /tmp/ccyCcMhO.s:2596   .debug_str:00000000000004a0 .LASF59
     /tmp/ccyCcMhO.s:2568   .debug_str:00000000000003bf .LASF61
     /tmp/ccyCcMhO.s:2580   .debug_str:0000000000000417 .LASF62
     /tmp/ccyCcMhO.s:2524   .debug_str:000000000000028e .LASF91
     /tmp/ccyCcMhO.s:2626   .debug_str:0000000000000617 .LASF63
     /tmp/ccyCcMhO.s:2612   .debug_str:00000000000005b4 .LASF92
     /tmp/ccyCcMhO.s:276    .text:0000000000000130 .LFB33
GAS LISTING /tmp/ccyCcMhO.s 			page 12


     /tmp/ccyCcMhO.s:301    .text:0000000000000158 .LFE33
     /tmp/ccyCcMhO.s:290    .text:0000000000000148 .LVL18
     /tmp/ccyCcMhO.s:227    .text:00000000000000f8 .LFB32
     /tmp/ccyCcMhO.s:270    .text:0000000000000130 .LFE32
     /tmp/ccyCcMhO.s:2574   .debug_str:0000000000000401 .LASF64
     /tmp/ccyCcMhO.s:2278   .debug_loc:0000000000000000 .LLST6
     /tmp/ccyCcMhO.s:2292   .debug_loc:0000000000000039 .LLST7
     /tmp/ccyCcMhO.s:250    .text:0000000000000118 .LVL15
     /tmp/ccyCcMhO.s:2444   .debug_str:0000000000000021 .LASF65
     /tmp/ccyCcMhO.s:2470   .debug_str:00000000000000d4 .LASF66
     /tmp/ccyCcMhO.s:107    .text:000000000000004c .LFB31
     /tmp/ccyCcMhO.s:131    .text:0000000000000074 .LFE31
     /tmp/ccyCcMhO.s:2315   .debug_loc:0000000000000099 .LLST1
     /tmp/ccyCcMhO.s:121    .text:0000000000000064 .LVL6
     /tmp/ccyCcMhO.s:2602   .debug_str:00000000000004bb .LASF67
     /tmp/ccyCcMhO.s:79     .text:0000000000000034 .LFB29
     /tmp/ccyCcMhO.s:99     .text:000000000000004c .LFE29
     /tmp/ccyCcMhO.s:2614   .debug_str:00000000000005c4 .LASF68
     /tmp/ccyCcMhO.s:181    .text:00000000000000b0 .LFB26
     /tmp/ccyCcMhO.s:219    .text:00000000000000f8 .LFE26
     /tmp/ccyCcMhO.s:2329   .debug_loc:00000000000000d2 .LLST5
     /tmp/ccyCcMhO.s:207    .text:00000000000000e8 .LVL12
     /tmp/ccyCcMhO.s:2486   .debug_str:000000000000014f .LASF69
     /tmp/ccyCcMhO.s:137    .text:0000000000000074 .LFB23
     /tmp/ccyCcMhO.s:173    .text:00000000000000b0 .LFE23
     /tmp/ccyCcMhO.s:2347   .debug_loc:000000000000011e .LLST2
     /tmp/ccyCcMhO.s:2367   .debug_loc:000000000000016c .LLST3
     /tmp/ccyCcMhO.s:2381   .debug_loc:00000000000001a5 .LLST4
     /tmp/ccyCcMhO.s:161    .text:00000000000000a0 .LVL9
     /tmp/ccyCcMhO.s:37     .text:0000000000000000 .LFB21
     /tmp/ccyCcMhO.s:73     .text:0000000000000034 .LFE21
     /tmp/ccyCcMhO.s:2598   .debug_str:00000000000004a8 .LASF93
     /tmp/ccyCcMhO.s:2395   .debug_loc:00000000000001de .LLST0
     /tmp/ccyCcMhO.s:59     .text:0000000000000020 .LVL2
     /tmp/ccyCcMhO.s:11     .text._ZN6Thread3runEv:0000000000000000 .LFB19
     /tmp/ccyCcMhO.s:30     .text._ZN6Thread3runEv:0000000000000018 .LFE19
     /tmp/ccyCcMhO.s:2622   .debug_str:0000000000000600 .LASF94
     /tmp/ccyCcMhO.s:2572   .debug_str:00000000000003ec .LASF70
     /tmp/ccyCcMhO.s:2466   .debug_str:00000000000000ae .LASF72
     /tmp/ccyCcMhO.s:2562   .debug_str:0000000000000394 .LASF71
     /tmp/ccyCcMhO.s:2454   .debug_str:0000000000000061 .LASF73
     /tmp/ccyCcMhO.s:2630   .debug_str:0000000000000644 .LASF95
     /tmp/ccyCcMhO.s:2462   .debug_str:0000000000000098 .LASF96
     /tmp/ccyCcMhO.s:2582   .debug_str:0000000000000426 .LASF74
     /tmp/ccyCcMhO.s:2558   .debug_str:0000000000000378 .LASF75
     /tmp/ccyCcMhO.s:230    .text:00000000000000f8 .LVL13
     /tmp/ccyCcMhO.s:235    .text:00000000000000fc .LVL14
     /tmp/ccyCcMhO.s:261    .text:0000000000000128 .LVL16
     /tmp/ccyCcMhO.s:265    .text:000000000000012c .LVL17
     /tmp/ccyCcMhO.s:110    .text:000000000000004c .LVL5
     /tmp/ccyCcMhO.s:184    .text:00000000000000b0 .LVL10
     /tmp/ccyCcMhO.s:205    .text:00000000000000e0 .LVL11
     /tmp/ccyCcMhO.s:140    .text:0000000000000074 .LVL7
     /tmp/ccyCcMhO.s:159    .text:0000000000000098 .LVL8
     /tmp/ccyCcMhO.s:41     .text:0000000000000000 .LVL1
     /tmp/ccyCcMhO.s:69     .text:0000000000000030 .LVL3
     /tmp/ccyCcMhO.s:320    .debug_info:0000000000000000 .Ldebug_info0
GAS LISTING /tmp/ccyCcMhO.s 			page 13


     /tmp/ccyCcMhO.s:5      .text:0000000000000000 .Ltext0
     /tmp/ccyCcMhO.s:315    .text:0000000000000158 .Letext0

UNDEFINED SYMBOLS
_ZdlPv
_Z22thread_create_wo_startPP3TCBPFvPvES2_
_Z12thread_startP3TCB
_Z15thread_dispatchv
