GAS LISTING /tmp/ccMjBxoA.s 			page 1


   1              		.file	"userMain.cpp"
   2              		.option pic
   3              		.option norelax
   4              		.text
   5              	.Ltext0:
   6              		.align	2
   7              		.globl	_Z16producerKeyboardPv
   9              	_Z16producerKeyboardPv:
  10              	.LFB19:
  11              		.file 1 "test/../test/ConsumerProducer_C_API_test.h"
   1:test/../test/ConsumerProducer_C_API_test.h **** //
   2:test/../test/ConsumerProducer_C_API_test.h **** // Created by os on 4/17/22.
   3:test/../test/ConsumerProducer_C_API_test.h **** //
   4:test/../test/ConsumerProducer_C_API_test.h **** 
   5:test/../test/ConsumerProducer_C_API_test.h **** #ifndef XV6_CONSUMERPRODUCER_C_API_TEST_H
   6:test/../test/ConsumerProducer_C_API_test.h **** #define XV6_CONSUMERPRODUCER_C_API_TEST_H
   7:test/../test/ConsumerProducer_C_API_test.h **** 
   8:test/../test/ConsumerProducer_C_API_test.h **** #include "../h/syscall_c.h"
   9:test/../test/ConsumerProducer_C_API_test.h **** 
  10:test/../test/ConsumerProducer_C_API_test.h **** #include "buffer.hpp"
  11:test/../test/ConsumerProducer_C_API_test.h **** 
  12:test/../test/ConsumerProducer_C_API_test.h **** sem_t waitForAll;
  13:test/../test/ConsumerProducer_C_API_test.h **** 
  14:test/../test/ConsumerProducer_C_API_test.h **** struct thread_data {
  15:test/../test/ConsumerProducer_C_API_test.h ****     int id;
  16:test/../test/ConsumerProducer_C_API_test.h ****     Buffer *buffer;
  17:test/../test/ConsumerProducer_C_API_test.h ****     sem_t wait;
  18:test/../test/ConsumerProducer_C_API_test.h **** };
  19:test/../test/ConsumerProducer_C_API_test.h **** 
  20:test/../test/ConsumerProducer_C_API_test.h **** volatile int threadEnd = 0;
  21:test/../test/ConsumerProducer_C_API_test.h **** 
  22:test/../test/ConsumerProducer_C_API_test.h **** void producerKeyboard(void *arg) {
  12              		.loc 1 22 34
  13              		.cfi_startproc
  14              	.LVL0:
  15 0000 130101FE 		addi	sp,sp,-32
  16              		.cfi_def_cfa_offset 32
  17 0004 233C1100 		sd	ra,24(sp)
  18 0008 23388100 		sd	s0,16(sp)
  19 000c 23349100 		sd	s1,8(sp)
  20 0010 23302101 		sd	s2,0(sp)
  21              		.cfi_offset 1, -8
  22              		.cfi_offset 8, -16
  23              		.cfi_offset 9, -24
  24              		.cfi_offset 18, -32
  25 0014 13040102 		addi	s0,sp,32
  26              		.cfi_def_cfa 8, 0
  27 0018 93040500 		mv	s1,a0
  23:test/../test/ConsumerProducer_C_API_test.h ****     struct thread_data *data = (struct thread_data *) arg;
  28              		.loc 1 23 5
  29              	.LVL1:
  24:test/../test/ConsumerProducer_C_API_test.h **** 
  25:test/../test/ConsumerProducer_C_API_test.h ****     int key;
  30              		.loc 1 25 5
  26:test/../test/ConsumerProducer_C_API_test.h ****     int i = 0;
  31              		.loc 1 26 5
  32              		.loc 1 26 9 is_stmt 0
GAS LISTING /tmp/ccMjBxoA.s 			page 2


  33 001c 13090000 		li	s2,0
  34 0020 6F00C000 		j	.L2
  35              	.LVL2:
  36              	.L6:
  27:test/../test/ConsumerProducer_C_API_test.h ****     while ((key = getc()) != 0x1b) {
  28:test/../test/ConsumerProducer_C_API_test.h ****         data->buffer->put(key);
  29:test/../test/ConsumerProducer_C_API_test.h ****         i++;
  30:test/../test/ConsumerProducer_C_API_test.h **** 
  31:test/../test/ConsumerProducer_C_API_test.h ****         if (i % (10 * data->id) == 0) {
  32:test/../test/ConsumerProducer_C_API_test.h ****             thread_dispatch();
  37              		.loc 1 32 13 is_stmt 1
  38              		.loc 1 32 28 is_stmt 0
  39 0024 97000000 		call	_Z15thread_dispatchv@plt
  39      E7800000 
  40              	.LVL3:
  41              	.L2:
  27:test/../test/ConsumerProducer_C_API_test.h ****     while ((key = getc()) != 0x1b) {
  42              		.loc 1 27 5 is_stmt 1
  27:test/../test/ConsumerProducer_C_API_test.h ****     while ((key = getc()) != 0x1b) {
  43              		.loc 1 27 27
  27:test/../test/ConsumerProducer_C_API_test.h ****     while ((key = getc()) != 0x1b) {
  44              		.loc 1 27 23 is_stmt 0
  45 002c 97000000 		call	_Z4getcv@plt
  45      E7800000 
  46              	.LVL4:
  27:test/../test/ConsumerProducer_C_API_test.h ****     while ((key = getc()) != 0x1b) {
  47              		.loc 1 27 17
  48 0034 9B050500 		sext.w	a1,a0
  49              	.LVL5:
  27:test/../test/ConsumerProducer_C_API_test.h ****     while ((key = getc()) != 0x1b) {
  50              		.loc 1 27 27
  51 0038 9307B001 		li	a5,27
  52 003c 638AF502 		beq	a1,a5,.L3
  28:test/../test/ConsumerProducer_C_API_test.h ****         i++;
  53              		.loc 1 28 9 is_stmt 1
  28:test/../test/ConsumerProducer_C_API_test.h ****         i++;
  54              		.loc 1 28 26 is_stmt 0
  55 0040 03B58400 		ld	a0,8(s1)
  56 0044 97000000 		call	_ZN6Buffer3putEi@plt
  56      E7800000 
  57              	.LVL6:
  29:test/../test/ConsumerProducer_C_API_test.h **** 
  58              		.loc 1 29 9 is_stmt 1
  29:test/../test/ConsumerProducer_C_API_test.h **** 
  59              		.loc 1 29 10 is_stmt 0
  60 004c 1B071900 		addiw	a4,s2,1
  61 0050 1B090700 		sext.w	s2,a4
  62              	.LVL7:
  31:test/../test/ConsumerProducer_C_API_test.h ****             thread_dispatch();
  63              		.loc 1 31 9 is_stmt 1
  31:test/../test/ConsumerProducer_C_API_test.h ****             thread_dispatch();
  64              		.loc 1 31 29 is_stmt 0
  65 0054 83A60400 		lw	a3,0(s1)
  31:test/../test/ConsumerProducer_C_API_test.h ****             thread_dispatch();
  66              		.loc 1 31 21
  67 0058 9B972600 		slliw	a5,a3,2
  68 005c BB87D700 		addw	a5,a5,a3
GAS LISTING /tmp/ccMjBxoA.s 			page 3


  69 0060 9B971700 		slliw	a5,a5,1
  31:test/../test/ConsumerProducer_C_API_test.h ****             thread_dispatch();
  70              		.loc 1 31 15
  71 0064 BB67F702 		remw	a5,a4,a5
  31:test/../test/ConsumerProducer_C_API_test.h ****             thread_dispatch();
  72              		.loc 1 31 9
  73 0068 E39207FC 		bnez	a5,.L2
  74 006c 6FF09FFB 		j	.L6
  75              	.LVL8:
  76              	.L3:
  33:test/../test/ConsumerProducer_C_API_test.h ****         }
  34:test/../test/ConsumerProducer_C_API_test.h ****     }
  35:test/../test/ConsumerProducer_C_API_test.h **** 
  36:test/../test/ConsumerProducer_C_API_test.h ****     threadEnd = 1;
  77              		.loc 1 36 5 is_stmt 1
  78              		.loc 1 36 15 is_stmt 0
  79 0070 93071000 		li	a5,1
  80 0074 17070000 		sw	a5,.LANCHOR0,a4
  80      2320F700 
  37:test/../test/ConsumerProducer_C_API_test.h ****     data->buffer->put('!');
  81              		.loc 1 37 5 is_stmt 1
  82              		.loc 1 37 22 is_stmt 0
  83 007c 93051002 		li	a1,33
  84              	.LVL9:
  85 0080 03B58400 		ld	a0,8(s1)
  86              	.LVL10:
  87 0084 97000000 		call	_ZN6Buffer3putEi@plt
  87      E7800000 
  88              	.LVL11:
  38:test/../test/ConsumerProducer_C_API_test.h **** 
  39:test/../test/ConsumerProducer_C_API_test.h ****     sem_signal(data->wait);
  89              		.loc 1 39 5 is_stmt 1
  90              		.loc 1 39 15 is_stmt 0
  91 008c 03B50401 		ld	a0,16(s1)
  92 0090 97000000 		call	_Z10sem_signalP3Sem@plt
  92      E7800000 
  93              	.LVL12:
  40:test/../test/ConsumerProducer_C_API_test.h **** }
  94              		.loc 1 40 1
  95 0098 83308101 		ld	ra,24(sp)
  96              		.cfi_restore 1
  97 009c 03340101 		ld	s0,16(sp)
  98              		.cfi_restore 8
  99              		.cfi_def_cfa 2, 32
 100 00a0 83348100 		ld	s1,8(sp)
 101              		.cfi_restore 9
 102              	.LVL13:
 103 00a4 03390100 		ld	s2,0(sp)
 104              		.cfi_restore 18
 105              	.LVL14:
 106 00a8 13010102 		addi	sp,sp,32
 107              		.cfi_def_cfa_offset 0
 108 00ac 67800000 		jr	ra
 109              		.cfi_endproc
 110              	.LFE19:
 112              		.align	2
 113              		.globl	_Z8producerPv
GAS LISTING /tmp/ccMjBxoA.s 			page 4


 115              	_Z8producerPv:
 116              	.LFB20:
  41:test/../test/ConsumerProducer_C_API_test.h **** 
  42:test/../test/ConsumerProducer_C_API_test.h **** void producer(void *arg) {
 117              		.loc 1 42 26 is_stmt 1
 118              		.cfi_startproc
 119              	.LVL15:
 120 00b0 130101FE 		addi	sp,sp,-32
 121              		.cfi_def_cfa_offset 32
 122 00b4 233C1100 		sd	ra,24(sp)
 123 00b8 23388100 		sd	s0,16(sp)
 124 00bc 23349100 		sd	s1,8(sp)
 125 00c0 23302101 		sd	s2,0(sp)
 126              		.cfi_offset 1, -8
 127              		.cfi_offset 8, -16
 128              		.cfi_offset 9, -24
 129              		.cfi_offset 18, -32
 130 00c4 13040102 		addi	s0,sp,32
 131              		.cfi_def_cfa 8, 0
 132 00c8 93040500 		mv	s1,a0
  43:test/../test/ConsumerProducer_C_API_test.h ****     struct thread_data *data = (struct thread_data *) arg;
 133              		.loc 1 43 5
 134              	.LVL16:
  44:test/../test/ConsumerProducer_C_API_test.h **** 
  45:test/../test/ConsumerProducer_C_API_test.h ****     int i = 0;
 135              		.loc 1 45 5
 136              		.loc 1 45 9 is_stmt 0
 137 00cc 13090000 		li	s2,0
 138 00d0 6F00C000 		j	.L8
 139              	.LVL17:
 140              	.L12:
  46:test/../test/ConsumerProducer_C_API_test.h ****     while (!threadEnd) {
  47:test/../test/ConsumerProducer_C_API_test.h ****         data->buffer->put(data->id + '0');
  48:test/../test/ConsumerProducer_C_API_test.h ****         i++;
  49:test/../test/ConsumerProducer_C_API_test.h **** 
  50:test/../test/ConsumerProducer_C_API_test.h ****         if (i % (10 * data->id) == 0) {
  51:test/../test/ConsumerProducer_C_API_test.h ****             thread_dispatch();
 141              		.loc 1 51 13 is_stmt 1
 142              		.loc 1 51 28 is_stmt 0
 143 00d4 97000000 		call	_Z15thread_dispatchv@plt
 143      E7800000 
 144              	.LVL18:
 145              	.L8:
  46:test/../test/ConsumerProducer_C_API_test.h ****     while (!threadEnd) {
 146              		.loc 1 46 5 is_stmt 1
  46:test/../test/ConsumerProducer_C_API_test.h ****     while (!threadEnd) {
 147              		.loc 1 46 12
 148 00dc 97070000 		lw	a5,.LANCHOR0
 148      83A70700 
 149 00e4 639E0702 		bnez	a5,.L9
  47:test/../test/ConsumerProducer_C_API_test.h ****         i++;
 150              		.loc 1 47 9
  47:test/../test/ConsumerProducer_C_API_test.h ****         i++;
 151              		.loc 1 47 33 is_stmt 0
 152 00e8 83A50400 		lw	a1,0(s1)
  47:test/../test/ConsumerProducer_C_API_test.h ****         i++;
 153              		.loc 1 47 26
GAS LISTING /tmp/ccMjBxoA.s 			page 5


 154 00ec 9B850503 		addiw	a1,a1,48
 155 00f0 03B58400 		ld	a0,8(s1)
 156 00f4 97000000 		call	_ZN6Buffer3putEi@plt
 156      E7800000 
 157              	.LVL19:
  48:test/../test/ConsumerProducer_C_API_test.h **** 
 158              		.loc 1 48 9 is_stmt 1
  48:test/../test/ConsumerProducer_C_API_test.h **** 
 159              		.loc 1 48 10 is_stmt 0
 160 00fc 1B071900 		addiw	a4,s2,1
 161 0100 1B090700 		sext.w	s2,a4
 162              	.LVL20:
  50:test/../test/ConsumerProducer_C_API_test.h ****             thread_dispatch();
 163              		.loc 1 50 9 is_stmt 1
  50:test/../test/ConsumerProducer_C_API_test.h ****             thread_dispatch();
 164              		.loc 1 50 29 is_stmt 0
 165 0104 83A60400 		lw	a3,0(s1)
  50:test/../test/ConsumerProducer_C_API_test.h ****             thread_dispatch();
 166              		.loc 1 50 21
 167 0108 9B972600 		slliw	a5,a3,2
 168 010c BB87D700 		addw	a5,a5,a3
 169 0110 9B971700 		slliw	a5,a5,1
  50:test/../test/ConsumerProducer_C_API_test.h ****             thread_dispatch();
 170              		.loc 1 50 15
 171 0114 BB67F702 		remw	a5,a4,a5
  50:test/../test/ConsumerProducer_C_API_test.h ****             thread_dispatch();
 172              		.loc 1 50 9
 173 0118 E39207FC 		bnez	a5,.L8
 174 011c 6FF09FFB 		j	.L12
 175              	.LVL21:
 176              	.L9:
  52:test/../test/ConsumerProducer_C_API_test.h ****         }
  53:test/../test/ConsumerProducer_C_API_test.h ****     }
  54:test/../test/ConsumerProducer_C_API_test.h **** 
  55:test/../test/ConsumerProducer_C_API_test.h ****     sem_signal(data->wait);
 177              		.loc 1 55 5 is_stmt 1
 178              		.loc 1 55 15 is_stmt 0
 179 0120 03B50401 		ld	a0,16(s1)
 180 0124 97000000 		call	_Z10sem_signalP3Sem@plt
 180      E7800000 
 181              	.LVL22:
  56:test/../test/ConsumerProducer_C_API_test.h **** }
 182              		.loc 1 56 1
 183 012c 83308101 		ld	ra,24(sp)
 184              		.cfi_restore 1
 185 0130 03340101 		ld	s0,16(sp)
 186              		.cfi_restore 8
 187              		.cfi_def_cfa 2, 32
 188 0134 83348100 		ld	s1,8(sp)
 189              		.cfi_restore 9
 190              	.LVL23:
 191 0138 03390100 		ld	s2,0(sp)
 192              		.cfi_restore 18
 193              	.LVL24:
 194 013c 13010102 		addi	sp,sp,32
 195              		.cfi_def_cfa_offset 0
 196 0140 67800000 		jr	ra
GAS LISTING /tmp/ccMjBxoA.s 			page 6


 197              		.cfi_endproc
 198              	.LFE20:
 200              		.align	2
 201              		.globl	_Z8consumerPv
 203              	_Z8consumerPv:
 204              	.LFB21:
  57:test/../test/ConsumerProducer_C_API_test.h **** 
  58:test/../test/ConsumerProducer_C_API_test.h **** void consumer(void *arg) {
 205              		.loc 1 58 26 is_stmt 1
 206              		.cfi_startproc
 207              	.LVL25:
 208 0144 130101FD 		addi	sp,sp,-48
 209              		.cfi_def_cfa_offset 48
 210 0148 23341102 		sd	ra,40(sp)
 211 014c 23308102 		sd	s0,32(sp)
 212 0150 233C9100 		sd	s1,24(sp)
 213 0154 23382101 		sd	s2,16(sp)
 214 0158 23343101 		sd	s3,8(sp)
 215              		.cfi_offset 1, -8
 216              		.cfi_offset 8, -16
 217              		.cfi_offset 9, -24
 218              		.cfi_offset 18, -32
 219              		.cfi_offset 19, -40
 220 015c 13040103 		addi	s0,sp,48
 221              		.cfi_def_cfa 8, 0
 222 0160 13090500 		mv	s2,a0
  59:test/../test/ConsumerProducer_C_API_test.h ****     struct thread_data *data = (struct thread_data *) arg;
 223              		.loc 1 59 5
 224              	.LVL26:
  60:test/../test/ConsumerProducer_C_API_test.h **** 
  61:test/../test/ConsumerProducer_C_API_test.h ****     int i = 0;
 225              		.loc 1 61 5
 226              		.loc 1 61 9 is_stmt 0
 227 0164 93090000 		li	s3,0
 228 0168 6F00C001 		j	.L14
 229              	.LVL27:
 230              	.L20:
 231              	.LBB2:
  62:test/../test/ConsumerProducer_C_API_test.h ****     while (!threadEnd) {
  63:test/../test/ConsumerProducer_C_API_test.h ****         int key = data->buffer->get();
  64:test/../test/ConsumerProducer_C_API_test.h ****         i++;
  65:test/../test/ConsumerProducer_C_API_test.h **** 
  66:test/../test/ConsumerProducer_C_API_test.h ****         putc(key);
  67:test/../test/ConsumerProducer_C_API_test.h **** 
  68:test/../test/ConsumerProducer_C_API_test.h ****         if (i % (5 * data->id) == 0) {
  69:test/../test/ConsumerProducer_C_API_test.h ****             thread_dispatch();
 232              		.loc 1 69 13 is_stmt 1
 233              		.loc 1 69 28 is_stmt 0
 234 016c 97000000 		call	_Z15thread_dispatchv@plt
 234      E7800000 
 235              	.LVL28:
 236 0174 6F000005 		j	.L16
 237              	.LVL29:
 238              	.L21:
  70:test/../test/ConsumerProducer_C_API_test.h ****         }
  71:test/../test/ConsumerProducer_C_API_test.h **** 
  72:test/../test/ConsumerProducer_C_API_test.h ****         if (i % 80 == 0) {
GAS LISTING /tmp/ccMjBxoA.s 			page 7


  73:test/../test/ConsumerProducer_C_API_test.h ****             putc('\n');
 239              		.loc 1 73 13 is_stmt 1
 240              		.loc 1 73 17 is_stmt 0
 241 0178 1305A000 		li	a0,10
 242 017c 97000000 		call	_Z4putcc@plt
 242      E7800000 
 243              	.LVL30:
 244              	.L14:
 245              	.LBE2:
  62:test/../test/ConsumerProducer_C_API_test.h ****     while (!threadEnd) {
 246              		.loc 1 62 5 is_stmt 1
  62:test/../test/ConsumerProducer_C_API_test.h ****     while (!threadEnd) {
 247              		.loc 1 62 12
 248 0184 97070000 		lw	a5,.LANCHOR0
 248      83A70700 
 249 018c 63900706 		bnez	a5,.L15
 250              	.LBB3:
  63:test/../test/ConsumerProducer_C_API_test.h ****         i++;
 251              		.loc 1 63 9
  63:test/../test/ConsumerProducer_C_API_test.h ****         i++;
 252              		.loc 1 63 36 is_stmt 0
 253 0190 03358900 		ld	a0,8(s2)
 254 0194 97000000 		call	_ZN6Buffer3getEv@plt
 254      E7800000 
 255              	.LVL31:
  64:test/../test/ConsumerProducer_C_API_test.h **** 
 256              		.loc 1 64 9 is_stmt 1
  64:test/../test/ConsumerProducer_C_API_test.h **** 
 257              		.loc 1 64 10 is_stmt 0
 258 019c 9B841900 		addiw	s1,s3,1
 259 01a0 9B890400 		sext.w	s3,s1
 260              	.LVL32:
  66:test/../test/ConsumerProducer_C_API_test.h **** 
 261              		.loc 1 66 9 is_stmt 1
  66:test/../test/ConsumerProducer_C_API_test.h **** 
 262              		.loc 1 66 13 is_stmt 0
 263 01a4 1375F50F 		andi	a0,a0,0xff
 264              	.LVL33:
 265 01a8 97000000 		call	_Z4putcc@plt
 265      E7800000 
 266              	.LVL34:
  68:test/../test/ConsumerProducer_C_API_test.h ****             thread_dispatch();
 267              		.loc 1 68 9 is_stmt 1
  68:test/../test/ConsumerProducer_C_API_test.h ****             thread_dispatch();
 268              		.loc 1 68 28 is_stmt 0
 269 01b0 03270900 		lw	a4,0(s2)
  68:test/../test/ConsumerProducer_C_API_test.h ****             thread_dispatch();
 270              		.loc 1 68 20
 271 01b4 9B172700 		slliw	a5,a4,2
 272 01b8 BB87E700 		addw	a5,a5,a4
  68:test/../test/ConsumerProducer_C_API_test.h ****             thread_dispatch();
 273              		.loc 1 68 15
 274 01bc BBE7F402 		remw	a5,s1,a5
  68:test/../test/ConsumerProducer_C_API_test.h ****             thread_dispatch();
 275              		.loc 1 68 9
 276 01c0 E38607FA 		beqz	a5,.L20
 277              	.L16:
GAS LISTING /tmp/ccMjBxoA.s 			page 8


  72:test/../test/ConsumerProducer_C_API_test.h ****             putc('\n');
 278              		.loc 1 72 9 is_stmt 1
  72:test/../test/ConsumerProducer_C_API_test.h ****             putc('\n');
 279              		.loc 1 72 15 is_stmt 0
 280 01c4 93070005 		li	a5,80
 281 01c8 BBE4F402 		remw	s1,s1,a5
 282              	.LVL35:
  72:test/../test/ConsumerProducer_C_API_test.h ****             putc('\n');
 283              		.loc 1 72 9
 284 01cc E39C04FA 		bnez	s1,.L14
 285 01d0 6FF09FFA 		j	.L21
 286              	.L22:
 287              	.LBE3:
 288              	.LBB4:
  74:test/../test/ConsumerProducer_C_API_test.h ****         }
  75:test/../test/ConsumerProducer_C_API_test.h ****     }
  76:test/../test/ConsumerProducer_C_API_test.h **** 
  77:test/../test/ConsumerProducer_C_API_test.h ****     while (data->buffer->getCnt() > 0) {
  78:test/../test/ConsumerProducer_C_API_test.h ****         int key = data->buffer->get();
 289              		.loc 1 78 9 is_stmt 1
 290              		.loc 1 78 36 is_stmt 0
 291 01d4 03358900 		ld	a0,8(s2)
 292 01d8 97000000 		call	_ZN6Buffer3getEv@plt
 292      E7800000 
 293              	.LVL36:
  79:test/../test/ConsumerProducer_C_API_test.h ****         putc(key);
 294              		.loc 1 79 9 is_stmt 1
 295              		.loc 1 79 13 is_stmt 0
 296 01e0 1375F50F 		andi	a0,a0,0xff
 297              	.LVL37:
 298 01e4 97000000 		call	_Z4putcc@plt
 298      E7800000 
 299              	.LVL38:
 300              	.L15:
 301              	.LBE4:
  77:test/../test/ConsumerProducer_C_API_test.h ****         int key = data->buffer->get();
 302              		.loc 1 77 5 is_stmt 1
  77:test/../test/ConsumerProducer_C_API_test.h ****         int key = data->buffer->get();
 303              		.loc 1 77 35
  77:test/../test/ConsumerProducer_C_API_test.h ****         int key = data->buffer->get();
 304              		.loc 1 77 32 is_stmt 0
 305 01ec 03358900 		ld	a0,8(s2)
 306 01f0 97000000 		call	_ZN6Buffer6getCntEv@plt
 306      E7800000 
 307              	.LVL39:
  77:test/../test/ConsumerProducer_C_API_test.h ****         int key = data->buffer->get();
 308              		.loc 1 77 35
 309 01f8 E34EA0FC 		bgtz	a0,.L22
  80:test/../test/ConsumerProducer_C_API_test.h ****     }
  81:test/../test/ConsumerProducer_C_API_test.h **** 
  82:test/../test/ConsumerProducer_C_API_test.h ****     sem_signal(data->wait);
 310              		.loc 1 82 5 is_stmt 1
 311              		.loc 1 82 15 is_stmt 0
 312 01fc 03350901 		ld	a0,16(s2)
 313 0200 97000000 		call	_Z10sem_signalP3Sem@plt
 313      E7800000 
 314              	.LVL40:
GAS LISTING /tmp/ccMjBxoA.s 			page 9


  83:test/../test/ConsumerProducer_C_API_test.h **** }
 315              		.loc 1 83 1
 316 0208 83308102 		ld	ra,40(sp)
 317              		.cfi_restore 1
 318 020c 03340102 		ld	s0,32(sp)
 319              		.cfi_restore 8
 320              		.cfi_def_cfa 2, 48
 321 0210 83348101 		ld	s1,24(sp)
 322              		.cfi_restore 9
 323 0214 03390101 		ld	s2,16(sp)
 324              		.cfi_restore 18
 325              	.LVL41:
 326 0218 83398100 		ld	s3,8(sp)
 327              		.cfi_restore 19
 328              	.LVL42:
 329 021c 13010103 		addi	sp,sp,48
 330              		.cfi_def_cfa_offset 0
 331 0220 67800000 		jr	ra
 332              		.cfi_endproc
 333              	.LFE21:
 335              		.section	.rodata.str1.8,"aMS",@progbits,1
 336              		.align	3
 337              	.LC0:
 338 0000 556E6573 		.string	"Unesite broj proizvodjaca?\n"
 338      69746520 
 338      62726F6A 
 338      2070726F 
 338      697A766F 
 339 001c 00000000 		.align	3
 340              	.LC1:
 341 0020 556E6573 		.string	"Unesite velicinu bafera?\n"
 341      69746520 
 341      76656C69 
 341      63696E75 
 341      20626166 
 342 003a 00000000 		.align	3
 342      0000
 343              	.LC2:
 344 0040 42726F6A 		.string	"Broj proizvodjaca "
 344      2070726F 
 344      697A766F 
 344      646A6163 
 344      612000
 345 0053 00000000 		.align	3
 345      00
 346              	.LC3:
 347 0058 20692076 		.string	" i velicina bafera "
 347      656C6963 
 347      696E6120 
 347      62616665 
 347      72612000 
 348 006c 00000000 		.align	3
 349              	.LC4:
 350 0070 2E0A00   		.string	".\n"
 351 0073 00000000 		.align	3
 351      00
 352              	.LC5:
GAS LISTING /tmp/ccMjBxoA.s 			page 10


 353 0078 42726F6A 		.string	"Broj proizvodjaca ne sme biti manji od velicine bafera!\n"
 353      2070726F 
 353      697A766F 
 353      646A6163 
 353      61206E65 
 354 00b1 00000000 		.align	3
 354      000000
 355              	.LC6:
 356 00b8 42726F6A 		.string	"Broj proizvodjaca mora biti veci od nula!\n"
 356      2070726F 
 356      697A766F 
 356      646A6163 
 356      61206D6F 
 357              		.text
 358              		.align	2
 359              		.globl	_Z22producerConsumer_C_APIv
 361              	_Z22producerConsumer_C_APIv:
 362              	.LFB22:
  84:test/../test/ConsumerProducer_C_API_test.h **** 
  85:test/../test/ConsumerProducer_C_API_test.h **** void producerConsumer_C_API() {
 363              		.loc 1 85 31 is_stmt 1
 364              		.cfi_startproc
 365              		.cfi_personality 0x9b,DW.ref.__gxx_personality_v0
 366              		.cfi_lsda 0x1b,.LLSDA22
 367 0224 130101F9 		addi	sp,sp,-112
 368              		.cfi_def_cfa_offset 112
 369 0228 23341106 		sd	ra,104(sp)
 370 022c 23308106 		sd	s0,96(sp)
 371 0230 233C9104 		sd	s1,88(sp)
 372 0234 23382105 		sd	s2,80(sp)
 373 0238 23343105 		sd	s3,72(sp)
 374 023c 23304105 		sd	s4,64(sp)
 375 0240 233C5103 		sd	s5,56(sp)
 376 0244 23386103 		sd	s6,48(sp)
 377              		.cfi_offset 1, -8
 378              		.cfi_offset 8, -16
 379              		.cfi_offset 9, -24
 380              		.cfi_offset 18, -32
 381              		.cfi_offset 19, -40
 382              		.cfi_offset 20, -48
 383              		.cfi_offset 21, -56
 384              		.cfi_offset 22, -64
 385 0248 13040107 		addi	s0,sp,112
 386              		.cfi_def_cfa 8, 0
  86:test/../test/ConsumerProducer_C_API_test.h ****     char input[30];
  87:test/../test/ConsumerProducer_C_API_test.h ****     int n, threadNum;
  88:test/../test/ConsumerProducer_C_API_test.h **** 
  89:test/../test/ConsumerProducer_C_API_test.h ****     printString("Unesite broj proizvodjaca?\n");
  90:test/../test/ConsumerProducer_C_API_test.h ****     getString(input, 30);
  91:test/../test/ConsumerProducer_C_API_test.h ****     threadNum = stringToInt(input);
  92:test/../test/ConsumerProducer_C_API_test.h **** 
  93:test/../test/ConsumerProducer_C_API_test.h ****     printString("Unesite velicinu bafera?\n");
  94:test/../test/ConsumerProducer_C_API_test.h ****     getString(input, 30);
  95:test/../test/ConsumerProducer_C_API_test.h ****     n = stringToInt(input);
  96:test/../test/ConsumerProducer_C_API_test.h **** 
  97:test/../test/ConsumerProducer_C_API_test.h ****     printString("Broj proizvodjaca "); printInt(threadNum);
  98:test/../test/ConsumerProducer_C_API_test.h ****     printString(" i velicina bafera "); printInt(n);
GAS LISTING /tmp/ccMjBxoA.s 			page 11


  99:test/../test/ConsumerProducer_C_API_test.h ****     printString(".\n");
 100:test/../test/ConsumerProducer_C_API_test.h **** 
 101:test/../test/ConsumerProducer_C_API_test.h ****     if(threadNum > n) {
 102:test/../test/ConsumerProducer_C_API_test.h ****         printString("Broj proizvodjaca ne sme biti manji od velicine bafera!\n");
 103:test/../test/ConsumerProducer_C_API_test.h ****         return;
 104:test/../test/ConsumerProducer_C_API_test.h ****     } else if (threadNum < 1) {
 105:test/../test/ConsumerProducer_C_API_test.h ****         printString("Broj proizvodjaca mora biti veci od nula!\n");
 106:test/../test/ConsumerProducer_C_API_test.h ****         return;
 107:test/../test/ConsumerProducer_C_API_test.h ****     }
 108:test/../test/ConsumerProducer_C_API_test.h **** 
 109:test/../test/ConsumerProducer_C_API_test.h ****     Buffer *buffer = new Buffer(n);
 110:test/../test/ConsumerProducer_C_API_test.h **** 
 111:test/../test/ConsumerProducer_C_API_test.h ****     sem_open(&waitForAll, 0);
 112:test/../test/ConsumerProducer_C_API_test.h **** 
 113:test/../test/ConsumerProducer_C_API_test.h ****     thread_t threads[threadNum];
 114:test/../test/ConsumerProducer_C_API_test.h ****     thread_t consumerThread;
 115:test/../test/ConsumerProducer_C_API_test.h **** 
 116:test/../test/ConsumerProducer_C_API_test.h ****     struct thread_data data[threadNum + 1];
 117:test/../test/ConsumerProducer_C_API_test.h **** 
 118:test/../test/ConsumerProducer_C_API_test.h ****     data[threadNum].id = threadNum;
 119:test/../test/ConsumerProducer_C_API_test.h ****     data[threadNum].buffer = buffer;
 120:test/../test/ConsumerProducer_C_API_test.h ****     data[threadNum].wait = waitForAll;
 121:test/../test/ConsumerProducer_C_API_test.h ****     thread_create(&consumerThread, consumer, data + threadNum);
 122:test/../test/ConsumerProducer_C_API_test.h **** 
 123:test/../test/ConsumerProducer_C_API_test.h ****     for (int i = 0; i < threadNum; i++) {
 124:test/../test/ConsumerProducer_C_API_test.h ****         data[i].id = i;
 125:test/../test/ConsumerProducer_C_API_test.h ****         data[i].buffer = buffer;
 126:test/../test/ConsumerProducer_C_API_test.h ****         data[i].wait = waitForAll;
 127:test/../test/ConsumerProducer_C_API_test.h **** 
 128:test/../test/ConsumerProducer_C_API_test.h ****         thread_create(threads + i,
 129:test/../test/ConsumerProducer_C_API_test.h ****                       i > 0 ? producer : producerKeyboard,
 130:test/../test/ConsumerProducer_C_API_test.h ****                       data + i);
 131:test/../test/ConsumerProducer_C_API_test.h ****     }
 132:test/../test/ConsumerProducer_C_API_test.h **** 
 133:test/../test/ConsumerProducer_C_API_test.h ****     thread_dispatch();
 134:test/../test/ConsumerProducer_C_API_test.h **** 
 135:test/../test/ConsumerProducer_C_API_test.h ****     for (int i = 0; i <= threadNum; i++) {
 136:test/../test/ConsumerProducer_C_API_test.h ****         sem_wait(waitForAll);
 137:test/../test/ConsumerProducer_C_API_test.h ****     }
 138:test/../test/ConsumerProducer_C_API_test.h **** 
 139:test/../test/ConsumerProducer_C_API_test.h ****     sem_close(waitForAll);
 140:test/../test/ConsumerProducer_C_API_test.h **** 
 141:test/../test/ConsumerProducer_C_API_test.h ****     delete buffer;
 387              		.loc 1 141 18 is_stmt 0
 388 024c 130B0100 		mv	s6,sp
  86:test/../test/ConsumerProducer_C_API_test.h ****     char input[30];
 389              		.loc 1 86 5 is_stmt 1
  87:test/../test/ConsumerProducer_C_API_test.h **** 
 390              		.loc 1 87 5
  89:test/../test/ConsumerProducer_C_API_test.h ****     getString(input, 30);
 391              		.loc 1 89 5
  89:test/../test/ConsumerProducer_C_API_test.h ****     getString(input, 30);
 392              		.loc 1 89 16 is_stmt 0
 393 0250 17050000 		lla	a0,.LC0
 393      13050500 
 394              	.LEHB0:
 395 0258 97000000 		call	_Z11printStringPKc@plt
GAS LISTING /tmp/ccMjBxoA.s 			page 12


 395      E7800000 
 396              	.LVL43:
  90:test/../test/ConsumerProducer_C_API_test.h ****     threadNum = stringToInt(input);
 397              		.loc 1 90 5 is_stmt 1
  90:test/../test/ConsumerProducer_C_API_test.h ****     threadNum = stringToInt(input);
 398              		.loc 1 90 14 is_stmt 0
 399 0260 9305E001 		li	a1,30
 400 0264 930404FA 		addi	s1,s0,-96
 401 0268 13850400 		mv	a0,s1
 402 026c 97000000 		call	_Z9getStringPci@plt
 402      E7800000 
 403              	.LVL44:
  91:test/../test/ConsumerProducer_C_API_test.h **** 
 404              		.loc 1 91 5 is_stmt 1
  91:test/../test/ConsumerProducer_C_API_test.h **** 
 405              		.loc 1 91 28 is_stmt 0
 406 0274 13850400 		mv	a0,s1
 407 0278 97000000 		call	_Z11stringToIntPKc@plt
 407      E7800000 
 408              	.LVL45:
 409 0280 13090500 		mv	s2,a0
 410              	.LVL46:
  93:test/../test/ConsumerProducer_C_API_test.h ****     getString(input, 30);
 411              		.loc 1 93 5 is_stmt 1
  93:test/../test/ConsumerProducer_C_API_test.h ****     getString(input, 30);
 412              		.loc 1 93 16 is_stmt 0
 413 0284 17050000 		lla	a0,.LC1
 413      13050500 
 414 028c 97000000 		call	_Z11printStringPKc@plt
 414      E7800000 
 415              	.LVL47:
  94:test/../test/ConsumerProducer_C_API_test.h ****     n = stringToInt(input);
 416              		.loc 1 94 5 is_stmt 1
  94:test/../test/ConsumerProducer_C_API_test.h ****     n = stringToInt(input);
 417              		.loc 1 94 14 is_stmt 0
 418 0294 9305E001 		li	a1,30
 419 0298 13850400 		mv	a0,s1
 420 029c 97000000 		call	_Z9getStringPci@plt
 420      E7800000 
 421              	.LVL48:
  95:test/../test/ConsumerProducer_C_API_test.h **** 
 422              		.loc 1 95 5 is_stmt 1
  95:test/../test/ConsumerProducer_C_API_test.h **** 
 423              		.loc 1 95 20 is_stmt 0
 424 02a4 13850400 		mv	a0,s1
 425 02a8 97000000 		call	_Z11stringToIntPKc@plt
 425      E7800000 
 426              	.LVL49:
 427 02b0 93040500 		mv	s1,a0
 428              	.LVL50:
  97:test/../test/ConsumerProducer_C_API_test.h ****     printString(" i velicina bafera "); printInt(n);
 429              		.loc 1 97 5 is_stmt 1
  97:test/../test/ConsumerProducer_C_API_test.h ****     printString(" i velicina bafera "); printInt(n);
 430              		.loc 1 97 16 is_stmt 0
 431 02b4 17050000 		lla	a0,.LC2
 431      13050500 
 432 02bc 97000000 		call	_Z11printStringPKc@plt
GAS LISTING /tmp/ccMjBxoA.s 			page 13


 432      E7800000 
 433              	.LVL51:
  97:test/../test/ConsumerProducer_C_API_test.h ****     printString(" i velicina bafera "); printInt(n);
 434              		.loc 1 97 40 is_stmt 1
  97:test/../test/ConsumerProducer_C_API_test.h ****     printString(" i velicina bafera "); printInt(n);
 435              		.loc 1 97 48 is_stmt 0
 436 02c4 13060000 		li	a2,0
 437 02c8 9305A000 		li	a1,10
 438 02cc 13050900 		mv	a0,s2
 439 02d0 97000000 		call	_Z8printIntiii@plt
 439      E7800000 
 440              	.LVL52:
  98:test/../test/ConsumerProducer_C_API_test.h ****     printString(".\n");
 441              		.loc 1 98 5 is_stmt 1
  98:test/../test/ConsumerProducer_C_API_test.h ****     printString(".\n");
 442              		.loc 1 98 16 is_stmt 0
 443 02d8 17050000 		lla	a0,.LC3
 443      13050500 
 444 02e0 97000000 		call	_Z11printStringPKc@plt
 444      E7800000 
 445              	.LVL53:
  98:test/../test/ConsumerProducer_C_API_test.h ****     printString(".\n");
 446              		.loc 1 98 41 is_stmt 1
  98:test/../test/ConsumerProducer_C_API_test.h ****     printString(".\n");
 447              		.loc 1 98 49 is_stmt 0
 448 02e8 13060000 		li	a2,0
 449 02ec 9305A000 		li	a1,10
 450 02f0 13850400 		mv	a0,s1
 451 02f4 97000000 		call	_Z8printIntiii@plt
 451      E7800000 
 452              	.LVL54:
  99:test/../test/ConsumerProducer_C_API_test.h **** 
 453              		.loc 1 99 5 is_stmt 1
  99:test/../test/ConsumerProducer_C_API_test.h **** 
 454              		.loc 1 99 16 is_stmt 0
 455 02fc 17050000 		lla	a0,.LC4
 455      13050500 
 456 0304 97000000 		call	_Z11printStringPKc@plt
 456      E7800000 
 457              	.LVL55:
 101:test/../test/ConsumerProducer_C_API_test.h ****         printString("Broj proizvodjaca ne sme biti manji od velicine bafera!\n");
 458              		.loc 1 101 5 is_stmt 1
 459 030c 63C42403 		bgt	s2,s1,.L38
 104:test/../test/ConsumerProducer_C_API_test.h ****         printString("Broj proizvodjaca mora biti veci od nula!\n");
 460              		.loc 1 104 12
 461 0310 635C2003 		blez	s2,.L39
 109:test/../test/ConsumerProducer_C_API_test.h **** 
 462              		.loc 1 109 5
 109:test/../test/ConsumerProducer_C_API_test.h **** 
 463              		.loc 1 109 34 is_stmt 0
 464 0314 13058003 		li	a0,56
 465 0318 97000000 		call	_Znwm@plt
 465      E7800000 
 466              	.LVL56:
 467              	.LEHE0:
 468 0320 130A0500 		mv	s4,a0
 469 0324 93850400 		mv	a1,s1
GAS LISTING /tmp/ccMjBxoA.s 			page 14


 470              	.LEHB1:
 471 0328 97000000 		call	_ZN6BufferC1Ei@plt
 471      E7800000 
 472              	.LVL57:
 473              	.LEHE1:
 474 0330 6F000003 		j	.L40
 475              	.L38:
 102:test/../test/ConsumerProducer_C_API_test.h ****         return;
 476              		.loc 1 102 9 is_stmt 1
 102:test/../test/ConsumerProducer_C_API_test.h ****         return;
 477              		.loc 1 102 20 is_stmt 0
 478 0334 17050000 		lla	a0,.LC5
 478      13050500 
 479              	.LEHB2:
 480 033c 97000000 		call	_Z11printStringPKc@plt
 480      E7800000 
 481              	.LVL58:
 103:test/../test/ConsumerProducer_C_API_test.h ****     } else if (threadNum < 1) {
 482              		.loc 1 103 9 is_stmt 1
 483 0344 6F004001 		j	.L25
 484              	.L39:
 105:test/../test/ConsumerProducer_C_API_test.h ****         return;
 485              		.loc 1 105 9
 105:test/../test/ConsumerProducer_C_API_test.h ****         return;
 486              		.loc 1 105 20 is_stmt 0
 487 0348 17050000 		lla	a0,.LC6
 487      13050500 
 488 0350 97000000 		call	_Z11printStringPKc@plt
 488      E7800000 
 489              	.LVL59:
 106:test/../test/ConsumerProducer_C_API_test.h ****     }
 490              		.loc 1 106 9 is_stmt 1
 491              	.L25:
 492 0358 13010B00 		mv	sp,s6
 493 035c 6F000015 		j	.L23
 494              	.L40:
 495              	.LVL60:
 111:test/../test/ConsumerProducer_C_API_test.h **** 
 496              		.loc 1 111 5 discriminator 3
 111:test/../test/ConsumerProducer_C_API_test.h **** 
 497              		.loc 1 111 13 is_stmt 0 discriminator 3
 498 0360 93050000 		li	a1,0
 499 0364 17050000 		lla	a0,.LANCHOR0+8
 499      13050500 
 500 036c 97000000 		call	_Z8sem_openPP3Semj@plt
 500      E7800000 
 501              	.LVL61:
 113:test/../test/ConsumerProducer_C_API_test.h ****     thread_t consumerThread;
 502              		.loc 1 113 5 is_stmt 1 discriminator 3
 113:test/../test/ConsumerProducer_C_API_test.h ****     thread_t consumerThread;
 503              		.loc 1 113 14 is_stmt 0 discriminator 3
 504 0374 93173900 		slli	a5,s2,3
 505 0378 9387F700 		addi	a5,a5,15
 506 037c 93F707FF 		andi	a5,a5,-16
 507 0380 3301F140 		sub	sp,sp,a5
 508 0384 930A0100 		mv	s5,sp
 509              	.LVL62:
GAS LISTING /tmp/ccMjBxoA.s 			page 15


 114:test/../test/ConsumerProducer_C_API_test.h **** 
 510              		.loc 1 114 5 is_stmt 1 discriminator 3
 116:test/../test/ConsumerProducer_C_API_test.h **** 
 511              		.loc 1 116 5 discriminator 3
 116:test/../test/ConsumerProducer_C_API_test.h **** 
 512              		.loc 1 116 39 is_stmt 0 discriminator 3
 513 0388 1B071900 		addiw	a4,s2,1
 514              	.LVL63:
 116:test/../test/ConsumerProducer_C_API_test.h **** 
 515              		.loc 1 116 24 discriminator 3
 516 038c 93171700 		slli	a5,a4,1
 517 0390 B387E700 		add	a5,a5,a4
 518 0394 93973700 		slli	a5,a5,3
 519 0398 9387F700 		addi	a5,a5,15
 520 039c 93F707FF 		andi	a5,a5,-16
 521 03a0 3301F140 		sub	sp,sp,a5
 522              	.LVL64:
 523 03a4 93090100 		mv	s3,sp
 524              	.LVL65:
 118:test/../test/ConsumerProducer_C_API_test.h ****     data[threadNum].buffer = buffer;
 525              		.loc 1 118 5 is_stmt 1 discriminator 3
 118:test/../test/ConsumerProducer_C_API_test.h ****     data[threadNum].buffer = buffer;
 526              		.loc 1 118 24 is_stmt 0 discriminator 3
 527 03a8 13161900 		slli	a2,s2,1
 528 03ac B3072601 		add	a5,a2,s2
 529 03b0 93973700 		slli	a5,a5,3
 530 03b4 B387F900 		add	a5,s3,a5
 531 03b8 23A02701 		sw	s2,0(a5)
 119:test/../test/ConsumerProducer_C_API_test.h ****     data[threadNum].wait = waitForAll;
 532              		.loc 1 119 5 is_stmt 1 discriminator 3
 119:test/../test/ConsumerProducer_C_API_test.h ****     data[threadNum].wait = waitForAll;
 533              		.loc 1 119 28 is_stmt 0 discriminator 3
 534 03bc 23B44701 		sd	s4,8(a5)
 120:test/../test/ConsumerProducer_C_API_test.h ****     thread_create(&consumerThread, consumer, data + threadNum);
 535              		.loc 1 120 5 is_stmt 1 discriminator 3
 120:test/../test/ConsumerProducer_C_API_test.h ****     thread_create(&consumerThread, consumer, data + threadNum);
 536              		.loc 1 120 26 is_stmt 0 discriminator 3
 537 03c0 17070000 		ld	a4,.LANCHOR0+8
 537      03370700 
 538 03c8 23B8E700 		sd	a4,16(a5)
 121:test/../test/ConsumerProducer_C_API_test.h **** 
 539              		.loc 1 121 5 is_stmt 1 discriminator 3
 121:test/../test/ConsumerProducer_C_API_test.h **** 
 540              		.loc 1 121 18 is_stmt 0 discriminator 3
 541 03cc 13860700 		mv	a2,a5
 542 03d0 97050000 		lla	a1,_Z8consumerPv
 542      93850500 
 543 03d8 130584F9 		addi	a0,s0,-104
 544 03dc 97000000 		call	_Z13thread_createPP3TCBPFvPvES2_@plt
 544      E7800000 
 545              	.LVL66:
 546              	.LBB5:
 123:test/../test/ConsumerProducer_C_API_test.h ****         data[i].id = i;
 547              		.loc 1 123 14 discriminator 3
 548 03e4 93040000 		li	s1,0
 549              	.LVL67:
 550 03e8 6F008002 		j	.L29
GAS LISTING /tmp/ccMjBxoA.s 			page 16


 551              	.LVL68:
 552              	.L35:
 128:test/../test/ConsumerProducer_C_API_test.h ****                       i > 0 ? producer : producerKeyboard,
 553              		.loc 1 128 22
 554 03ec 97050000 		lla	a1,_Z16producerKeyboardPv
 554      93850500 
 555              	.L28:
 130:test/../test/ConsumerProducer_C_API_test.h ****     }
 556              		.loc 1 130 28 discriminator 4
 557 03f4 13961700 		slli	a2,a5,1
 558 03f8 3306F600 		add	a2,a2,a5
 559 03fc 13163600 		slli	a2,a2,3
 128:test/../test/ConsumerProducer_C_API_test.h ****                       i > 0 ? producer : producerKeyboard,
 560              		.loc 1 128 22 discriminator 4
 561 0400 3386C900 		add	a2,s3,a2
 562 0404 97000000 		call	_Z13thread_createPP3TCBPFvPvES2_@plt
 562      E7800000 
 563              	.LVL69:
 123:test/../test/ConsumerProducer_C_API_test.h ****         data[i].id = i;
 564              		.loc 1 123 5 is_stmt 1 discriminator 4
 565 040c 9B841400 		addiw	s1,s1,1
 566              	.LVL70:
 567              	.L29:
 123:test/../test/ConsumerProducer_C_API_test.h ****         data[i].id = i;
 568              		.loc 1 123 23 discriminator 1
 569 0410 63D22405 		bge	s1,s2,.L27
 124:test/../test/ConsumerProducer_C_API_test.h ****         data[i].buffer = buffer;
 570              		.loc 1 124 9
 124:test/../test/ConsumerProducer_C_API_test.h ****         data[i].buffer = buffer;
 571              		.loc 1 124 20 is_stmt 0
 572 0414 93971400 		slli	a5,s1,1
 573 0418 B3879700 		add	a5,a5,s1
 574 041c 93973700 		slli	a5,a5,3
 575 0420 B387F900 		add	a5,s3,a5
 576 0424 23A09700 		sw	s1,0(a5)
 125:test/../test/ConsumerProducer_C_API_test.h ****         data[i].wait = waitForAll;
 577              		.loc 1 125 9 is_stmt 1
 125:test/../test/ConsumerProducer_C_API_test.h ****         data[i].wait = waitForAll;
 578              		.loc 1 125 24 is_stmt 0
 579 0428 23B44701 		sd	s4,8(a5)
 126:test/../test/ConsumerProducer_C_API_test.h **** 
 580              		.loc 1 126 9 is_stmt 1
 126:test/../test/ConsumerProducer_C_API_test.h **** 
 581              		.loc 1 126 22 is_stmt 0
 582 042c 17070000 		ld	a4,.LANCHOR0+8
 582      03370700 
 583 0434 23B8E700 		sd	a4,16(a5)
 128:test/../test/ConsumerProducer_C_API_test.h ****                       i > 0 ? producer : producerKeyboard,
 584              		.loc 1 128 9 is_stmt 1
 128:test/../test/ConsumerProducer_C_API_test.h ****                       i > 0 ? producer : producerKeyboard,
 585              		.loc 1 128 33 is_stmt 0
 586 0438 93870400 		mv	a5,s1
 128:test/../test/ConsumerProducer_C_API_test.h ****                       i > 0 ? producer : producerKeyboard,
 587              		.loc 1 128 31
 588 043c 13953400 		slli	a0,s1,3
 128:test/../test/ConsumerProducer_C_API_test.h ****                       i > 0 ? producer : producerKeyboard,
 589              		.loc 1 128 22
GAS LISTING /tmp/ccMjBxoA.s 			page 17


 590 0440 3385AA00 		add	a0,s5,a0
 591 0444 E35490FA 		blez	s1,.L35
 592 0448 97050000 		lla	a1,_Z8producerPv
 592      93850500 
 593 0450 6FF05FFA 		j	.L28
 594              	.L27:
 595              	.LBE5:
 133:test/../test/ConsumerProducer_C_API_test.h **** 
 596              		.loc 1 133 5 is_stmt 1
 133:test/../test/ConsumerProducer_C_API_test.h **** 
 597              		.loc 1 133 20 is_stmt 0
 598 0454 97000000 		call	_Z15thread_dispatchv@plt
 598      E7800000 
 599              	.LVL71:
 600              	.LBB6:
 135:test/../test/ConsumerProducer_C_API_test.h ****         sem_wait(waitForAll);
 601              		.loc 1 135 14
 602 045c 93040000 		li	s1,0
 603              	.LVL72:
 604              	.L31:
 135:test/../test/ConsumerProducer_C_API_test.h ****         sem_wait(waitForAll);
 605              		.loc 1 135 23 is_stmt 1 discriminator 1
 606 0460 634E9900 		bgt	s1,s2,.L30
 136:test/../test/ConsumerProducer_C_API_test.h ****     }
 607              		.loc 1 136 9
 136:test/../test/ConsumerProducer_C_API_test.h ****     }
 608              		.loc 1 136 17 is_stmt 0
 609 0464 17050000 		ld	a0,.LANCHOR0+8
 609      03350500 
 610 046c 97000000 		call	_Z8sem_waitP3Sem@plt
 610      E7800000 
 611              	.LVL73:
 135:test/../test/ConsumerProducer_C_API_test.h ****         sem_wait(waitForAll);
 612              		.loc 1 135 5 is_stmt 1
 613 0474 9B841400 		addiw	s1,s1,1
 614              	.LVL74:
 615 0478 6FF09FFE 		j	.L31
 616              	.LVL75:
 617              	.L30:
 618              	.LBE6:
 139:test/../test/ConsumerProducer_C_API_test.h **** 
 619              		.loc 1 139 5
 139:test/../test/ConsumerProducer_C_API_test.h **** 
 620              		.loc 1 139 14 is_stmt 0
 621 047c 17050000 		ld	a0,.LANCHOR0+8
 621      03350500 
 622 0484 97000000 		call	_Z9sem_closeP3Sem@plt
 622      E7800000 
 623              	.LVL76:
 624              		.loc 1 141 5 is_stmt 1
 625              		.loc 1 141 18 is_stmt 0
 626 048c 630E0A00 		beqz	s4,.L32
 627              		.loc 1 141 12 discriminator 1
 628 0490 13050A00 		mv	a0,s4
 629 0494 97000000 		call	_ZN6BufferD1Ev@plt
 629      E7800000 
 630              	.LVL77:
GAS LISTING /tmp/ccMjBxoA.s 			page 18


 631 049c 13050A00 		mv	a0,s4
 632 04a0 97000000 		call	_ZdlPv@plt
 632      E7800000 
 633              	.LVL78:
 634              	.L32:
 635 04a8 13010B00 		mv	sp,s6
 636              	.LVL79:
 637              	.L23:
 142:test/../test/ConsumerProducer_C_API_test.h **** 
 143:test/../test/ConsumerProducer_C_API_test.h **** }
 638              		.loc 1 143 1
 639 04ac 130104F9 		addi	sp,s0,-112
 640              		.cfi_remember_state
 641              		.cfi_def_cfa 2, 112
 642 04b0 83308106 		ld	ra,104(sp)
 643              		.cfi_restore 1
 644 04b4 03340106 		ld	s0,96(sp)
 645              		.cfi_restore 8
 646 04b8 83348105 		ld	s1,88(sp)
 647              		.cfi_restore 9
 648 04bc 03390105 		ld	s2,80(sp)
 649              		.cfi_restore 18
 650              	.LVL80:
 651 04c0 83398104 		ld	s3,72(sp)
 652              		.cfi_restore 19
 653 04c4 033A0104 		ld	s4,64(sp)
 654              		.cfi_restore 20
 655 04c8 833A8103 		ld	s5,56(sp)
 656              		.cfi_restore 21
 657 04cc 033B0103 		ld	s6,48(sp)
 658              		.cfi_restore 22
 659 04d0 13010107 		addi	sp,sp,112
 660              		.cfi_def_cfa_offset 0
 661 04d4 67800000 		jr	ra
 662              	.LVL81:
 663              	.L36:
 664              		.cfi_restore_state
 665 04d8 93040500 		mv	s1,a0
 666              	.LVL82:
 109:test/../test/ConsumerProducer_C_API_test.h **** 
 667              		.loc 1 109 34
 668 04dc 13050A00 		mv	a0,s4
 669 04e0 97000000 		call	_ZdlPv@plt
 669      E7800000 
 670              	.LVL83:
 671 04e8 13850400 		mv	a0,s1
 672 04ec 97000000 		call	_Unwind_Resume@plt
 672      E7800000 
 673              	.LVL84:
 674              	.LEHE2:
 675              		.cfi_endproc
 676              	.LFE22:
 677              		.globl	__gxx_personality_v0
 678              		.section	.gcc_except_table,"a",@progbits
 679              	.LLSDA22:
 680 0000 FF       		.byte	0xff
 681 0001 FF       		.byte	0xff
GAS LISTING /tmp/ccMjBxoA.s 			page 19


 682 0002 03       		.byte	0x3
 683 0003 27       		.byte	0x27
 684 0004 00000000 		.4byte	.LEHB0-.LFB22
 685 0008 00000000 		.4byte	.LEHE0-.LEHB0
 686 000c 00000000 		.4byte	0
 687 0010 00       		.byte	0
 688 0011 00000000 		.4byte	.LEHB1-.LFB22
 689 0015 00000000 		.4byte	.LEHE1-.LEHB1
 690 0019 00000000 		.4byte	.L36-.LFB22
 691 001d 00       		.byte	0
 692 001e 00000000 		.4byte	.LEHB2-.LFB22
 693 0022 00000000 		.4byte	.LEHE2-.LEHB2
 694 0026 00000000 		.4byte	0
 695 002a 00       		.byte	0
 696              		.text
 698              		.align	2
 699              		.globl	_Z8userMainv
 701              	_Z8userMainv:
 702              	.LFB23:
 703              		.file 2 "test/userMain.cpp"
   1:test/userMain.cpp **** //#include "../test/Threads_C_API_test.hpp" // zadatak 2, niti C API i sinhrona promena konteksta
   2:test/userMain.cpp **** //#include "../test/Threads_CPP_API_test.hpp" // zadatak 2., niti CPP API i sinhrona promena kontek
   3:test/userMain.cpp **** 
   4:test/userMain.cpp **** #include "../test/ConsumerProducer_C_API_test.h" // zadatak 3., kompletan C API sa semaforima, sinh
   5:test/userMain.cpp **** //#include "../test/ConsumerProducer_CPP_Sync_API_test.hpp" // zadatak 3., kompletan CPP API sa sem
   6:test/userMain.cpp **** 
   7:test/userMain.cpp **** //#include "../test/ThreadSleep_C_API_test.hpp" // thread_sleep test C API
   8:test/userMain.cpp **** //#include "../test/ConsumerProducer_CPP_API_test.hpp" // zadatak 4. CPP API i asinhrona promena ko
   9:test/userMain.cpp **** 
  10:test/userMain.cpp **** void userMain() {
 704              		.loc 2 10 17 is_stmt 1
 705              		.cfi_startproc
 706 04f4 130101FF 		addi	sp,sp,-16
 707              		.cfi_def_cfa_offset 16
 708 04f8 23341100 		sd	ra,8(sp)
 709 04fc 23308100 		sd	s0,0(sp)
 710              		.cfi_offset 1, -8
 711              		.cfi_offset 8, -16
 712 0500 13040101 		addi	s0,sp,16
 713              		.cfi_def_cfa 8, 0
  11:test/userMain.cpp ****     //Threads_C_API_test(); // zadatak 2., niti C API i sinhrona promena konteksta
  12:test/userMain.cpp ****     //Threads_CPP_API_test(); // zadatak 2., niti CPP API i sinhrona promena konteksta
  13:test/userMain.cpp **** 
  14:test/userMain.cpp ****     producerConsumer_C_API(); // zadatak 3., kompletan C API sa semaforima, sinhrona promena kontek
 714              		.loc 2 14 5
 715              		.loc 2 14 27 is_stmt 0
 716 0504 97000000 		call	_Z22producerConsumer_C_APIv
 716      E7800000 
 717              	.LVL85:
  15:test/userMain.cpp ****     //producerConsumer_CPP_Sync_API(); // zadatak 3., kompletan CPP API sa semaforima, sinhrona pro
  16:test/userMain.cpp **** 
  17:test/userMain.cpp ****     //testSleeping(); // thread_sleep test C API
  18:test/userMain.cpp ****     //ConsumerProducerCPP::testConsumerProducer(); // zadatak 4. CPP API i asinhrona promena kontek
  19:test/userMain.cpp **** 
  20:test/userMain.cpp **** }...
 718              		.loc 2 20 1
 719 050c 83308100 		ld	ra,8(sp)
GAS LISTING /tmp/ccMjBxoA.s 			page 20


 720              		.cfi_restore 1
 721 0510 03340100 		ld	s0,0(sp)
 722              		.cfi_restore 8
 723              		.cfi_def_cfa 2, 16
 724 0514 13010101 		addi	sp,sp,16
 725              		.cfi_def_cfa_offset 0
 726 0518 67800000 		jr	ra
 727              		.cfi_endproc
 728              	.LFE23:
 730              		.globl	threadEnd
 731              		.globl	waitForAll
 732              		.bss
 733              		.align	3
 734              		.set	.LANCHOR0,. + 0
 737              	threadEnd:
 738 0000 00000000 		.zero	4
 739 0004 00000000 		.zero	4
 742              	waitForAll:
 743 0008 00000000 		.zero	8
 743      00000000 
 744              		.text
 745              	.Letext0:
 746              		.file 3 "test/../test/../h/../lib/hw.h"
 747              		.file 4 "test/../test/../h/../h/tcb.hpp"
 748              		.file 5 "test/../test/../h/syscall_c.h"
 749              		.file 6 "test/../test/buffer.hpp"
 750              		.file 7 "test/../test/printing.hpp"
 3689              		.align	3
 3692              	DW.ref.__gxx_personality_v0:
 3693 0000 00000000 		.dword	__gxx_personality_v0
 3693      00000000 
 3694              		.ident	"GCC: (Ubuntu 9.4.0-1ubuntu1~20.04) 9.4.0"
 3695              		.section	.note.GNU-stack,"",@progbits
GAS LISTING /tmp/ccMjBxoA.s 			page 21

